 uws

 Timestamp is 599de8da (Wed Aug 23 16:43:06 2017)

 Preferred load address is 0000000180000000

 Start         Length     Name                   Class
 0001:00000000 000001e0H .text                   CODE
 0001:000001e0 00000320H .text$di                CODE
 0001:00000500 0005d760H .text$mn                CODE
 0001:0005dc60 00000020H .text$mn$00             CODE
 0001:0005dc80 000010d0H .text$x                 CODE
 0001:0005ed50 0000036eH .text$yd                CODE
 0002:00000000 00000468H .idata$5                DATA
 0002:00000468 00000010H .00cfg                  DATA
 0002:00000478 00000008H .CRT$XCA                DATA
 0002:00000480 00000068H .CRT$XCC                DATA
 0002:000004e8 00000010H .CRT$XCL                DATA
 0002:000004f8 00000058H .CRT$XCU                DATA
 0002:00000550 00000008H .CRT$XCZ                DATA
 0002:00000558 00000008H .CRT$XIA                DATA
 0002:00000560 00000030H .CRT$XIC                DATA
 0002:00000590 00000008H .CRT$XIZ                DATA
 0002:00000598 00000008H .CRT$XLA                DATA
 0002:000005a0 00000008H .CRT$XLZ                DATA
 0002:000005a8 00000008H .CRT$XPA                DATA
 0002:000005b0 00000008H .CRT$XPB                DATA
 0002:000005b8 00000010H .CRT$XPX                DATA
 0002:000005c8 00000008H .CRT$XPXA               DATA
 0002:000005d0 00000008H .CRT$XPZ                DATA
 0002:000005d8 00000008H .CRT$XTA                DATA
 0002:000005e0 00000010H .CRT$XTZ                DATA
 0002:000005f0 00013b88H .rdata                  DATA
 0002:00014178 00000028H .rdata$T                DATA
 0002:000141a0 00003968H .rdata$r                DATA
 0002:00017b08 00000010H .rdata$zETW0            DATA
 0002:00017b18 00000077H .rdata$zETW1            DATA
 0002:00017b8f 0000002cH .rdata$zETW2            DATA
 0002:00017bbb 00000001H .rdata$zETW9            DATA
 0002:00017bbc 0000052cH .rdata$zzzdbg           DATA
 0002:000180e8 00000008H .rtc$IAA                DATA
 0002:000180f0 00000008H .rtc$IZZ                DATA
 0002:000180f8 00000008H .rtc$TAA                DATA
 0002:00018100 00000010H .rtc$TZZ                DATA
 0002:00018110 00005f98H .xdata                  DATA
 0002:0001e0a8 00000ac4H .xdata$x                DATA
 0002:0001eb6c 00000020H .didat$2                DATA
 0002:0001eb8c 00000024H .didat$3                DATA
 0002:0001ebb0 00000360H .didat$4                DATA
 0002:0001ef10 000013f8H .didat$6                DATA
 0002:00020308 00000368H .didat$7                DATA
 0002:00020670 00004260H .edata                  DATA
 0002:000248d0 0000003cH .idata$2                DATA
 0002:0002490c 00000014H .idata$3                DATA
 0002:00024920 00000468H .idata$4                DATA
 0002:00024d88 0000093eH .idata$6                DATA
 0003:00000000 00000d60H .data                   DATA
 0003:00000d60 000024a0H .data$r                 DATA
 0003:00003200 00000360H .didat$5                DATA
 0003:00003560 00002864H .bss                    DATA
 0004:00000000 00005fd0H .pdata                  DATA
 0005:00000000 000000b4H .gfids$x                DATA
 0005:000000b4 00000b34H .gfids$y                DATA
 0006:00000000 00000010H .tls                    DATA
 0006:00000010 00000051H .tls$                   DATA
 0006:00000061 00000001H .tls$ZZZ                DATA
 0007:00000000 00000060H .rsrc$01                DATA
 0007:00000060 00000180H .rsrc$02                DATA

  Address         Publics by Value              Rva+Base               Lib:Object

 0000:00000000       __guard_iat_count          0000000000000000     <absolute>
 0000:00000000       __guard_longjmp_table      0000000000000000     <absolute>
 0000:00000000       __guard_longjmp_count      0000000000000000     <absolute>
 0000:00000000       __dynamic_value_reloc_table 0000000000000000     <absolute>
 0000:00000000       __guard_iat_table          0000000000000000     <absolute>
 0000:00000000       __guard_fids_count         0000000000000000     <absolute>
 0000:00000000       ___safe_se_handler_table   0000000000000000     <absolute>
 0000:00000000       ___safe_se_handler_count   0000000000000000     <absolute>
 0000:00000000       __guard_fids_table         0000000000000000     <absolute>
 0000:00000100       __guard_flags              0000000000000100     <absolute>
 0000:00000000       __ImageBase                0000000180000000     <linker-defined>
 0001:00000000       ?TraceLoggingRegister@__vcrt_trace_logging_provider@@YAJPEBU_TlgProvider_t@1@PEBU_GUID@@P6AX1KE_K2PEAU_EVENT_FILTER_DESCRIPTOR@@PEAX@Z4@Z 0000000180001000 f i libvcruntime:telemetry.obj
 0001:0000007c       ?_TlgEnableCallback@__vcrt_trace_logging_provider@@YAXPEBU_GUID@@KE_K1PEAU_EVENT_FILTER_DESCRIPTOR@@PEAX@Z 000000018000107c f i libvcruntime:telemetry.obj
 0001:00000140       ?_TlgWrite@__vcrt_trace_logging_provider@@YAJPEBU_TlgProvider_t@1@PEFBXPEBU_GUID@@2IPEAU_EVENT_DATA_DESCRIPTOR@@@Z 0000000180001140 f i libvcruntime:telemetry.obj
 0001:00000500       ?_Deallocate@std@@YAXPEAX_K1@Z 0000000180001500 f i Extensions.obj
 0001:00000570       ??0ExtensionsParser@uWS@@QEAA@PEBD_K@Z 0000000180001570 f   Extensions.obj
 0001:00000740       ??1?$basic_string@DU?$char_traits@D@std@@V?$allocator@D@2@@std@@QEAA@XZ 0000000180001740 f i Extensions.obj
 0001:00000780       ??0?$basic_string@DU?$char_traits@D@std@@V?$allocator@D@2@@std@@QEAA@$$QEAV01@@Z 0000000180001780 f i Extensions.obj
 0001:00000800       ?append@?$basic_string@DU?$char_traits@D@std@@V?$allocator@D@2@@std@@QEAAAEAV12@PEBD_K@Z 0000000180001800 f i Extensions.obj
 0001:00000950       ?append@?$basic_string@DU?$char_traits@D@std@@V?$allocator@D@2@@std@@QEAAAEAV12@AEBV12@_K1@Z 0000000180001950 f i Extensions.obj
 0001:00000a80       ?_Assign_rv@?$basic_string@DU?$char_traits@D@std@@V?$allocator@D@2@@std@@QEAAX$$QEAV12@@Z 0000000180001a80 f i Extensions.obj
 0001:00000af0       ?deallocate@?$_Wrap_alloc@V?$allocator@D@std@@@std@@QEAAXPEAD_K@Z 0000000180001af0 f i Extensions.obj
 0001:00000b50       ?_Grow@?$basic_string@DU?$char_traits@D@std@@V?$allocator@D@2@@std@@QEAA_N_K_N@Z 0000000180001b50 f i Extensions.obj
 0001:00000c30       ?_Copy@?$basic_string@DU?$char_traits@D@std@@V?$allocator@D@2@@std@@QEAAX_K0@Z 0000000180001c30 f i Extensions.obj
 0001:00000d10       ?allocate@?$_Wrap_alloc@V?$allocator@D@std@@@std@@QEAAPEAD_K@Z 0000000180001d10 f i Extensions.obj
 0001:00000d80       ?_Do_call@?$_Func_impl@V<lambda_1e1913856f7aaf7dc79da8070652544a>@@V?$allocator@H@std@@XPEAU?$WebSocket@$00@uWS@@HPEAD_K@std@@EEAAX$$QEAPEAU?$WebSocket@$00@uWS@@$$QEAH$$QEAPEAD$$QEA_K@Z 0000000180001d80 f i Group.obj
 0001:00000d80       ?_Do_call@?$_Func_impl@V<lambda_14b7b541ae08ea1c954e985f6a5857b4>@@V?$allocator@H@std@@XPEAU?$WebSocket@$0A@@uWS@@PEAD_K@std@@EEAAX$$QEAPEAU?$WebSocket@$0A@@uWS@@$$QEAPEAD$$QEA_K@Z 0000000180001d80 f i Group.obj
 0001:00000d80       ?_Do_call@?$_Func_impl@V<lambda_a8ef02e52f510361621b8831e97d6fe5>@@V?$allocator@H@std@@XPEAUHttpResponse@uWS@@UHttpRequest@5@PEAD_K_K@std@@EEAAX$$QEAPEAUHttpResponse@uWS@@$$QEAUHttpRequest@4@$$QEAPEAD$$QEA_K3@Z 0000000180001d80 f i Group.obj
 0001:00000d80       ?VirtualProcessorActiveNotification@SchedulerBase@details@Concurrency@@MEAAX_NJ@Z 0000000180001d80 f i libconcrt:SchedulerBase.obj
 0001:00000d80       ?getHeader@Response@HttpServer@@SAXAEBV?$FunctionCallbackInfo@VValue@v8@@@v8@@@Z 0000000180001d80 f i addon.obj
 0001:00000d80       ?setHeader@Response@HttpServer@@SAXAEBV?$FunctionCallbackInfo@VValue@v8@@@v8@@@Z 0000000180001d80 f i addon.obj
 0001:00000d80       ?destroy@stl_condition_variable_vista@details@Concurrency@@UEAAXXZ 0000000180001d80 f i libcpmt:cond.obj
 0001:00000d80       _guard_check_icall_nop     0000000180001d80 f i LIBCMT:guard_support.obj
 0001:00000d80       ?CreateNodeTopology@ResourceManager@details@Concurrency@@UEAAXIPEAIPEAPEAI0@Z 0000000180001d80 f i libconcrt:ResourceManager.obj
 0001:00000d80       ?imbue@?$basic_streambuf@DU?$char_traits@D@std@@@std@@MEAAXAEBVlocale@2@@Z 0000000180001d80 f i libcpmt:cout.obj
 0001:00000d80       ?_Do_call@?$_Func_impl@V<lambda_7434f3cae99d0dcd112468417ee977b0>@@V?$allocator@H@std@@XPEAU?$HttpSocket@$00@uWS@@@std@@EEAAX$$QEAPEAU?$HttpSocket@$00@uWS@@@Z 0000000180001d80 f i Group.obj
 0001:00000d80       ?_Unlock@?$basic_streambuf@DU?$char_traits@D@std@@@std@@UEAAXXZ 0000000180001d80 f i libcpmt:cout.obj
 0001:00000d80       ?_Do_call@?$_Func_impl@V<lambda_a3ecdec81f70a9fe73dcb758a7fed5a7>@@V?$allocator@H@std@@XPEAU?$WebSocket@$00@uWS@@PEAD_K@std@@EEAAX$$QEAPEAU?$WebSocket@$00@uWS@@$$QEAPEAD$$QEA_K@Z 0000000180001d80 f i Group.obj
 0001:00000d80       ?_Do_call@?$_Func_impl@V<lambda_8cc912af1f457cfea0d4ba1cc691c089>@@V?$allocator@H@std@@XH@std@@EEAAX$$QEAH@Z 0000000180001d80 f i Group.obj
 0001:00000d80       ?_Do_call@?$_Func_impl@V<lambda_a9a913c8f103bffe7fddf72259ae7d5c>@@V?$allocator@H@std@@XPEAU?$WebSocket@$0A@@uWS@@PEAD_KW4OpCode@5@@std@@EEAAX$$QEAPEAU?$WebSocket@$0A@@uWS@@$$QEAPEAD$$QEA_K$$QEAW4OpCode@4@@Z 0000000180001d80 f i Group.obj
 0001:00000d80       ?_Do_call@?$_Func_impl@V<lambda_e5e8c2fb959005491ebaf75befe1e41f>@@V?$allocator@H@std@@XPEAU?$WebSocket@$00@uWS@@PEAD_KW4OpCode@5@@std@@EEAAX$$QEAPEAU?$WebSocket@$00@uWS@@$$QEAPEAD$$QEA_K$$QEAW4OpCode@4@@Z 0000000180001d80 f i Group.obj
 0001:00000d80       ?_Do_call@?$_Func_impl@V<lambda_93c0d08600f8b6900f0f2f49a4d25d7a>@@V?$allocator@H@std@@XPEAU?$HttpSocket@$00@uWS@@@std@@EEAAX$$QEAPEAU?$HttpSocket@$00@uWS@@@Z 0000000180001d80 f i Group.obj
 0001:00000d80       ?NotifyResourcesExternallyIdle@ThreadScheduler@details@Concurrency@@UEAAXPEAPEAUIVirtualProcessorRoot@3@I@Z 0000000180001d80 f i libconcrt:ThreadScheduler.obj
 0001:00000d80       ?cork@Socket@uS@@QEAAXH@Z  0000000180001d80 f i Group.obj
 0001:00000d80       ?resume@Request@HttpServer@@SAXAEBV?$FunctionCallbackInfo@VValue@v8@@@v8@@@Z 0000000180001d80 f i addon.obj
 0001:00000d80       ?_Lock@?$basic_streambuf@DU?$char_traits@D@std@@@std@@UEAAXXZ 0000000180001d80 f i libcpmt:cout.obj
 0001:00000d80       ?_Do_call@?$_Func_impl@V<lambda_d881a2c7a1e94701640214c77e3dc049>@@V?$allocator@H@std@@XPEAU?$WebSocket@$0A@@uWS@@UHttpRequest@5@@std@@EEAAX$$QEAPEAU?$WebSocket@$0A@@uWS@@$$QEAUHttpRequest@4@@Z 0000000180001d80 f i Group.obj
 0001:00000d80       ?_Do_call@?$_Func_impl@V<lambda_fee28d472d968bf8cf28d0644c64f87f>@@V?$allocator@H@std@@XPEAUHttpResponse@uWS@@UHttpRequest@5@PEAD_K_K@std@@EEAAX$$QEAPEAUHttpResponse@uWS@@$$QEAUHttpRequest@4@$$QEAPEAD$$QEA_K3@Z 0000000180001d80 f i Group.obj
 0001:00000d80       __except_validate_context_record 0000000180001d80 f i libvcruntime:jbcxrval.obj
 0001:00000d80       ??3@YAXPEAX0@Z             0000000180001d80 f i libcpmt:mutex.obj
 0001:00000d80       ?_Do_call@?$_Func_impl@V<lambda_2be8697520db48762f797b9c727a68ff>@@V?$allocator@H@std@@XPEAUHttpResponse@uWS@@PEAD_K_K@std@@EEAAX$$QEAPEAUHttpResponse@uWS@@$$QEAPEAD$$QEA_K2@Z 0000000180001d80 f i Group.obj
 0001:00000d80       ?unpipe@Request@HttpServer@@SAXAEBV?$FunctionCallbackInfo@VValue@v8@@@v8@@@Z 0000000180001d80 f i addon.obj
 0001:00000d80       ?_Do_call@?$_Func_impl@V<lambda_be55859939e08d27a0fb932e2b03dde6>@@V?$allocator@H@std@@XPEAUHttpResponse@uWS@@@std@@EEAAX$$QEAPEAUHttpResponse@uWS@@@Z 0000000180001d80 f i Group.obj
 0001:00000d80       ?_Do_call@?$_Func_impl@V<lambda_f4f36bdfa1d4948f2a44b7caf93ba028>@@V?$allocator@H@std@@XPEAUHttpResponse@uWS@@@std@@EEAAX$$QEAPEAUHttpResponse@uWS@@@Z 0000000180001d80 f i Group.obj
 0001:00000d80       ?_Do_call@?$_Func_impl@V<lambda_c6520c99f61bc482201622fd3ba6d6a8>@@V?$allocator@H@std@@XPEAU?$WebSocket@$00@uWS@@@std@@EEAAX$$QEAPEAU?$WebSocket@$00@uWS@@@Z 0000000180001d80 f i Group.obj
 0001:00000d80       ?_Do_call@?$_Func_impl@V<lambda_192be0d4e8e564445903b882b614d20b>@@V?$allocator@H@std@@XPEAU?$HttpSocket@$0A@@uWS@@@std@@EEAAX$$QEAPEAU?$HttpSocket@$0A@@uWS@@@Z 0000000180001d80 f i Group.obj
 0001:00000d80       ?_Do_call@?$_Func_impl@V<lambda_28546b2bf5fff94df39539b2c8fdbe8e>@@V?$allocator@H@std@@XPEAX@std@@EEAAX$$QEAPEAX@Z 0000000180001d80 f i Group.obj
 0001:00000d80       ?destroy@stl_condition_variable_win7@details@Concurrency@@UEAAXXZ 0000000180001d80 f i libcpmt:cond.obj
 0001:00000d80       ?RMAwaken@InternalContextBase@details@Concurrency@@EEAAXXZ 0000000180001d80 f i libconcrt:InternalContextBase.obj
 0001:00000d80       ?NotifyAffinitizedWork@FairScheduleGroupSegment@details@Concurrency@@UEAAXXZ 0000000180001d80 f i libconcrt:SchedulerBase.obj
 0001:00000d80       ?destroy@stl_critical_section_win7@details@Concurrency@@UEAAXXZ 0000000180001d80 f i libcpmt:mutex.obj
 0001:00000d80       ?_Do_call@?$_Func_impl@V<lambda_a4841af2b27d100227ba4fc38e1775c0>@@V?$allocator@H@std@@XPEAU?$WebSocket@$00@uWS@@UHttpRequest@5@@std@@EEAAX$$QEAPEAU?$WebSocket@$00@uWS@@$$QEAUHttpRequest@4@@Z 0000000180001d80 f i Group.obj
 0001:00000d80       ?_Do_call@?$_Func_impl@V<lambda_90c955ed1fea1ab5aabbcf78f378525c>@@V?$allocator@H@std@@XPEAUHttpResponse@uWS@@PEAD_K_K@std@@EEAAX$$QEAPEAUHttpResponse@uWS@@$$QEAPEAD$$QEA_K2@Z 0000000180001d80 f i Group.obj
 0001:00000d80       ??$destroy@PEAD@?$_Wrap_alloc@V?$allocator@D@std@@@std@@QEAAXPEAPEAD@Z 0000000180001d80 f i Extensions.obj
 0001:00000d80       ??1critical_section@Concurrency@@QEAA@XZ 0000000180001d80 f i libconcrt:rtlocks.obj
 0001:00000d80       ?_Do_call@?$_Func_impl@V<lambda_e97c96979ea8c6fefbbf0e4dbcda2be5>@@V?$allocator@H@std@@XPEAU?$HttpSocket@$0A@@uWS@@@std@@EEAAX$$QEAPEAU?$HttpSocket@$0A@@uWS@@@Z 0000000180001d80 f i Group.obj
 0001:00000d80       ?Destroy@WaitAnyBlock@details@Concurrency@@UEAAXXZ 0000000180001d80 f i libconcrt:event.obj
 0001:00000d80       ?NotifyResourcesExternallyBusy@ThreadScheduler@details@Concurrency@@UEAAXPEAPEAUIVirtualProcessorRoot@3@I@Z 0000000180001d80 f i libconcrt:ThreadScheduler.obj
 0001:00000d80       ?_Doraise@exception@stdext@@MEBAXXZ 0000000180001d80 f i addon.obj
 0001:00000d80       ?_Do_call@?$_Func_impl@V<lambda_44c2ae3261b8a3837fe161100d7627a5>@@V?$allocator@H@std@@XPEAU?$WebSocket@$0A@@uWS@@@std@@EEAAX$$QEAPEAU?$WebSocket@$0A@@uWS@@@Z 0000000180001d80 f i Group.obj
 0001:00000d80       ?_Do_call@?$_Func_impl@V<lambda_676b05d5fcd7eb23155de59028af8c84>@@V?$allocator@H@std@@XPEAU?$WebSocket@$0A@@uWS@@HPEAD_K@std@@EEAAX$$QEAPEAU?$WebSocket@$0A@@uWS@@$$QEAH$$QEAPEAD$$QEA_K@Z 0000000180001d80 f i Group.obj
 0001:00000dc0       ?passwordCallback@Context@TLS@uS@@CAHPEADHHPEAX@Z 0000000180001dc0 f i Group.obj
 0001:00000e10       ??0Context@TLS@uS@@QEAA@PEAUssl_ctx_st@@@Z 0000000180001e10 f i Group.obj
 0001:00000e30       ??BContext@TLS@uS@@QEAA_NXZ 0000000180001e30 f i Group.obj
 0001:00000e40       ??C?$shared_ptr@V__ExceptionPtr@@@std@@QEBAPEAV__ExceptionPtr@@XZ 0000000180001e40 f i libcpmt:excptptr.obj
 0001:00000e40       ?getLoop@Node@uS@@QEAAPEAULoop@@XZ 0000000180001e40 f i Group.obj
 0001:00000e40       ?getNativeContext@Context@TLS@uS@@QEAAPEAUssl_ctx_st@@XZ 0000000180001e40 f i Group.obj
 0001:00000e50       ??0Context@TLS@uS@@QEAA@XZ 0000000180001e50 f i Group.obj
 0001:00000e70       ?getMemoryBlockIndex@NodeData@uS@@SAH_K@Z 0000000180001e70 f i Group.obj
 0001:00000e90       ?getSmallMemoryBlock@NodeData@uS@@QEAAPEADH@Z 0000000180001e90 f i Group.obj
 0001:00000ec0       ?freeSmallMemoryBlock@NodeData@uS@@QEAAXPEADH@Z 0000000180001ec0 f i Group.obj
 0001:00000ee0       ?addAsync@NodeData@uS@@QEAAXXZ 0000000180001ee0 f i Group.obj
 0001:00000f20       ?clearPendingPollChanges@NodeData@uS@@QEAAXPEAUPoll@@@Z 0000000180001f20 f i Group.obj
 0001:00001000       ??0NodeData@uS@@QEAA@XZ    0000000180002000 f i Group.obj
 0001:00001030       ??1NodeData@uS@@QEAA@XZ    0000000180002030 f i Group.obj
 0001:000010a0       ??0NodeData@uS@@QEAA@AEBU01@@Z 00000001800020a0 f i Group.obj
 0001:00001130       ??0NodeData@uS@@QEAA@$$QEAU01@@Z 0000000180002130 f i Group.obj
 0001:00001200       ??4NodeData@uS@@QEAAAEAU01@AEBU01@@Z 0000000180002200 f i Group.obj
 0001:00001290       ??4NodeData@uS@@QEAAAEAU01@$$QEAU01@@Z 0000000180002290 f i Group.obj
 0001:00001320       ?getPoll@Socket@uS@@IEAAHXZ 0000000180002320 f i Group.obj
 0001:00001330       ?setPoll@Socket@uS@@IEAAHH@Z 0000000180002330 f i Group.obj
 0001:00001340       ?setShuttingDown@Socket@uS@@IEAAX_N@Z 0000000180002340 f i Group.obj
 0001:00001360       ?transfer@Socket@uS@@IEAAXPEAUNodeData@2@P6AXPEAUPoll@@@Z@Z 0000000180002360 f i Group.obj
 0001:00001550       ?changePoll@Socket@uS@@IEAAXPEAU12@@Z 0000000180002550 f i Group.obj
 0001:00001670       ?cancelTimeout@Socket@uS@@IEAAXXZ 0000000180002670 f i Group.obj
 0001:000016c0       ?hasEmptyQueue@Socket@uS@@IEAA_NXZ 00000001800026c0 f i Group.obj
 0001:000016d0       ?enqueue@Socket@uS@@IEAAXPEAUMessage@Queue@12@@Z 00000001800026d0 f i Group.obj
 0001:00001700       ?allocMessage@Socket@uS@@IEAAPEAUMessage@Queue@12@_KPEBD@Z 0000000180002700 f i Group.obj
 0001:00001760       ?freeMessage@Socket@uS@@IEAAXPEAUMessage@Queue@12@@Z 0000000180002760 f i Group.obj
 0001:00001770       ?write@Socket@uS@@IEAA_NPEAUMessage@Queue@12@AEA_N@Z 0000000180002770 f i Group.obj
 0001:000018b0       ??0Socket@uS@@QEAA@PEAUNodeData@1@PEAULoop@@_KPEAUssl_st@@@Z 00000001800028b0 f i Group.obj
 0001:00001950       ?from@?$Group@$00@uWS@@SAPEAU12@PEAUSocket@uS@@@Z 0000000180002950 f i Group.obj
 0001:00001950       ?from@?$Group@$0A@@uWS@@SAPEAU12@PEAUSocket@uS@@@Z 0000000180002950 f i Group.obj
 0001:00001950       ?getNodeData@Socket@uS@@QEAAPEAUNodeData@2@XZ 0000000180002950 f i Group.obj
 0001:00001960       ?getUserData@Socket@uS@@QEAAPEAXXZ 0000000180002960 f i Group.obj
 0001:00001970       ?setUserData@Socket@uS@@QEAAXPEAX@Z 0000000180002970 f i Group.obj
 0001:00001980       ?setNoDelay@Socket@uS@@QEAAXH@Z 0000000180002980 f i Group.obj
 0001:000019c0       ?shutdown@Socket@uS@@QEAAXXZ 00000001800029c0 f i Group.obj
 0001:00001a00       ?isShuttingDown@Socket@uS@@QEAA_NXZ 0000000180002a00 f i Group.obj
 0001:00001a10       ??1Socket@uS@@QEAA@XZ      0000000180002a10 f i Group.obj
 0001:00001a20       ??0Socket@uS@@QEAA@$$QEAU01@@Z 0000000180002a20 f i Group.obj
 0001:00001a70       ??1?$HttpSocket@$0A@@uWS@@QEAA@XZ 0000000180002a70 f i Group.obj
 0001:00001a70       ??1?$WebSocket@$00@uWS@@QEAA@XZ 0000000180002a70 f i Group.obj
 0001:00001a70       ??1?$HttpSocket@$00@uWS@@QEAA@XZ 0000000180002a70 f i Group.obj
 0001:00001ad0       ??0?$HttpSocket@$0A@@uWS@@QEAA@$$QEAU01@@Z 0000000180002ad0 f i Group.obj
 0001:00001ad0       ??0?$HttpSocket@$00@uWS@@QEAA@$$QEAU01@@Z 0000000180002ad0 f i Group.obj
 0001:00001b90       ??_FNode@uS@@QEAAXXZ       0000000180002b90 f i Group.obj
 0001:00001bb0       ??0Hub@uWS@@QEAA@H_NI@Z    0000000180002bb0 f i Group.obj
 0001:00001c90       ??1Hub@uWS@@QEAA@XZ        0000000180002c90 f i Group.obj
 0001:00001d10       ??1?$Group@$00@uWS@@QEAA@XZ 0000000180002d10 f i Group.obj
 0001:00001f80       ??0?$Group@$00@uWS@@QEAA@AEBU01@@Z 0000000180002f80 f i Group.obj
 0001:00002290       ??0?$Group@$00@uWS@@QEAA@$$QEAU01@@Z 0000000180003290 f i Group.obj
 0001:00002450       ??4?$Group@$00@uWS@@QEAAAEAU01@AEBU01@@Z 0000000180003450 f i Group.obj
 0001:00002610       ??4?$Group@$00@uWS@@QEAAAEAU01@$$QEAU01@@Z 0000000180003610 f i Group.obj
 0001:00002a40       ??1?$Group@$0A@@uWS@@QEAA@XZ 0000000180003a40 f i Group.obj
 0001:00002c80       ??0?$Group@$0A@@uWS@@QEAA@AEBU01@@Z 0000000180003c80 f i Group.obj
 0001:00002f70       ??0?$Group@$0A@@uWS@@QEAA@$$QEAU01@@Z 0000000180003f70 f i Group.obj
 0001:00003130       ??4?$Group@$0A@@uWS@@QEAAAEAU01@AEBU01@@Z 0000000180004130 f i Group.obj
 0001:000032f0       ??4?$Group@$0A@@uWS@@QEAAAEAU01@$$QEAU01@@Z 00000001800042f0 f i Group.obj
 0001:00003700       ??_FHub@uWS@@QEAAXXZ       0000000180004700 f i Group.obj
 0001:00003710       ??4?$WebSocketProtocol@$0A@U?$WebSocket@$0A@@uWS@@@uWS@@QEAAAEAV01@$$QEAV01@@Z 0000000180004710 f i WebSocket.obj
 0001:00003710       ??4?$WebSocketProtocol@$00U?$WebSocket@$00@uWS@@@uWS@@QEAAAEAV01@AEBV01@@Z 0000000180004710 f i Group.obj
 0001:00003710       ??4?$WebSocketProtocol@$00U?$WebSocket@$00@uWS@@@uWS@@QEAAAEAV01@$$QEAV01@@Z 0000000180004710 f i Group.obj
 0001:00003710       ??4?$WebSocketProtocol@$0A@U?$WebSocket@$0A@@uWS@@@uWS@@QEAAAEAV01@AEBV01@@Z 0000000180004710 f i WebSocket.obj
 0001:00003710       ?setbuf@?$basic_streambuf@DU?$char_traits@D@std@@@std@@MEAAPEAV12@PEAD_J@Z 0000000180004710 f i libcpmt:cout.obj
 0001:00003720       ??0?$function@$$A6AXPEAUHttpResponse@uWS@@UHttpRequest@2@PEAD_K3@Z@std@@QEAA@$$QEAV01@@Z 0000000180004720 f i Group.obj
 0001:00003720       ??0?$function@$$A6AXPEAU?$HttpSocket@$0A@@uWS@@UHttpRequest@2@@Z@std@@QEAA@$$QEAV01@@Z 0000000180004720 f i Group.obj
 0001:00003720       ??0?$function@$$A6AXPEAUHttpResponse@uWS@@PEAD_K2@Z@std@@QEAA@$$QEAV01@@Z 0000000180004720 f i Group.obj
 0001:00003720       ??0?$function@$$A6AXPEAU?$HttpSocket@$0A@@uWS@@@Z@std@@QEAA@$$QEAV01@@Z 0000000180004720 f i Group.obj
 0001:00003720       ??0?$function@$$A6AXPEAU?$HttpSocket@$00@uWS@@@Z@std@@QEAA@$$QEAV01@@Z 0000000180004720 f i Group.obj
 0001:00003720       ??0?$function@$$A6AXPEAU?$WebSocket@$0A@@uWS@@UHttpRequest@2@@Z@std@@QEAA@$$QEAV01@@Z 0000000180004720 f i Group.obj
 0001:00003720       ??0?$function@$$A6AXPEAX@Z@std@@QEAA@$$QEAV01@@Z 0000000180004720 f i Group.obj
 0001:00003720       ??0?$function@$$A6AXPEAU?$WebSocket@$0A@@uWS@@PEAD_KW4OpCode@2@@Z@std@@QEAA@$$QEAV01@@Z 0000000180004720 f i Group.obj
 0001:00003720       ??0?$function@$$A6AXPEAU?$WebSocket@$00@uWS@@PEAD_KW4OpCode@2@@Z@std@@QEAA@$$QEAV01@@Z 0000000180004720 f i Group.obj
 0001:00003720       ??0?$function@$$A6AXPEAU?$HttpSocket@$00@uWS@@UHttpRequest@2@@Z@std@@QEAA@$$QEAV01@@Z 0000000180004720 f i Group.obj
 0001:00003720       ??0?$function@$$A6AXPEAUHttpResponse@uWS@@@Z@std@@QEAA@$$QEAV01@@Z 0000000180004720 f i Group.obj
 0001:00003720       ??0?$function@$$A6AXPEAU?$WebSocket@$0A@@uWS@@PEAD_K@Z@std@@QEAA@$$QEAV01@@Z 0000000180004720 f i Group.obj
 0001:00003720       ??0?$function@$$A6AXPEAU?$WebSocket@$00@uWS@@PEAD_K@Z@std@@QEAA@$$QEAV01@@Z 0000000180004720 f i Group.obj
 0001:00003720       ??0?$function@$$A6AXPEAU?$WebSocket@$0A@@uWS@@HPEAD_K@Z@std@@QEAA@$$QEAV01@@Z 0000000180004720 f i Group.obj
 0001:00003720       ??0?$function@$$A6AXPEAU?$WebSocket@$00@uWS@@UHttpRequest@2@@Z@std@@QEAA@$$QEAV01@@Z 0000000180004720 f i Group.obj
 0001:00003720       ??0?$function@$$A6AXPEAU?$WebSocket@$00@uWS@@HPEAD_K@Z@std@@QEAA@$$QEAV01@@Z 0000000180004720 f i Group.obj
 0001:000037a0       ??$?4AEAV?$function@$$A6AXPEAX@Z@std@@XX@?$function@$$A6AXPEAX@Z@std@@QEAAAEAV01@AEAV01@@Z 00000001800047a0 f i Group.obj
 0001:000037a0       ??$?4AEAV?$function@$$A6AXPEAUHttpResponse@uWS@@UHttpRequest@2@PEAD_K3@Z@std@@XX@?$function@$$A6AXPEAUHttpResponse@uWS@@UHttpRequest@2@PEAD_K3@Z@std@@QEAAAEAV01@AEAV01@@Z 00000001800047a0 f i Group.obj
 0001:000037a0       ??4?$function@$$A6AXPEAU?$WebSocket@$0A@@uWS@@UHttpRequest@2@@Z@std@@QEAAAEAV01@AEBV01@@Z 00000001800047a0 f i Group.obj
 0001:000037a0       ??$?4AEAV?$function@$$A6AXPEAU?$WebSocket@$00@uWS@@PEAD_KW4OpCode@2@@Z@std@@XX@?$function@$$A6AXPEAU?$WebSocket@$00@uWS@@PEAD_KW4OpCode@2@@Z@std@@QEAAAEAV01@AEAV01@@Z 00000001800047a0 f i Group.obj
 0001:000037a0       ??4?$function@$$A6AXPEAU?$WebSocket@$00@uWS@@PEAD_KW4OpCode@2@@Z@std@@QEAAAEAV01@AEBV01@@Z 00000001800047a0 f i Group.obj
 0001:000037a0       ??4?$function@$$A6AXPEAU?$HttpSocket@$00@uWS@@@Z@std@@QEAAAEAV01@AEBV01@@Z 00000001800047a0 f i Group.obj
 0001:000037a0       ??$?4AEAV?$function@$$A6AXPEAU?$HttpSocket@$00@uWS@@UHttpRequest@2@@Z@std@@XX@?$function@$$A6AXPEAU?$HttpSocket@$00@uWS@@UHttpRequest@2@@Z@std@@QEAAAEAV01@AEAV01@@Z 00000001800047a0 f i Group.obj
 0001:000037a0       ??4?$function@$$A6AXPEAX@Z@std@@QEAAAEAV01@AEBV01@@Z 00000001800047a0 f i Group.obj
 0001:000037a0       ??4?$function@$$A6AXPEAU?$WebSocket@$00@uWS@@HPEAD_K@Z@std@@QEAAAEAV01@AEBV01@@Z 00000001800047a0 f i Group.obj
 0001:000037a0       ??$?4AEAV?$function@$$A6AXPEAU?$WebSocket@$0A@@uWS@@PEAD_K@Z@std@@XX@?$function@$$A6AXPEAU?$WebSocket@$0A@@uWS@@PEAD_K@Z@std@@QEAAAEAV01@AEAV01@@Z 00000001800047a0 f i Group.obj
 0001:000037a0       ??4?$function@$$A6AXPEAUHttpResponse@uWS@@PEAD_K2@Z@std@@QEAAAEAV01@AEBV01@@Z 00000001800047a0 f i Group.obj
 0001:000037a0       ??$?4AEAV?$function@$$A6AXPEAUHttpResponse@uWS@@PEAD_K2@Z@std@@XX@?$function@$$A6AXPEAUHttpResponse@uWS@@PEAD_K2@Z@std@@QEAAAEAV01@AEAV01@@Z 00000001800047a0 f i Group.obj
 0001:000037a0       ??$?4AEAV?$function@$$A6AXPEAU?$WebSocket@$00@uWS@@UHttpRequest@2@@Z@std@@XX@?$function@$$A6AXPEAU?$WebSocket@$00@uWS@@UHttpRequest@2@@Z@std@@QEAAAEAV01@AEAV01@@Z 00000001800047a0 f i Group.obj
 0001:000037a0       ??$?4AEAV?$function@$$A6AXPEAU?$WebSocket@$00@uWS@@PEAD_K@Z@std@@XX@?$function@$$A6AXPEAU?$WebSocket@$00@uWS@@PEAD_K@Z@std@@QEAAAEAV01@AEAV01@@Z 00000001800047a0 f i Group.obj
 0001:000037a0       ??$?4AEAV?$function@$$A6AXPEAU?$WebSocket@$0A@@uWS@@UHttpRequest@2@@Z@std@@XX@?$function@$$A6AXPEAU?$WebSocket@$0A@@uWS@@UHttpRequest@2@@Z@std@@QEAAAEAV01@AEAV01@@Z 00000001800047a0 f i Group.obj
 0001:000037a0       ??$?4AEAV?$function@$$A6AXPEAUHttpResponse@uWS@@@Z@std@@XX@?$function@$$A6AXPEAUHttpResponse@uWS@@@Z@std@@QEAAAEAV01@AEAV01@@Z 00000001800047a0 f i Group.obj
 0001:000037a0       ??4?$function@$$A6AXPEAUHttpResponse@uWS@@UHttpRequest@2@PEAD_K3@Z@std@@QEAAAEAV01@AEBV01@@Z 00000001800047a0 f i Group.obj
 0001:000037a0       ??4?$function@$$A6AXPEAU?$HttpSocket@$0A@@uWS@@@Z@std@@QEAAAEAV01@AEBV01@@Z 00000001800047a0 f i Group.obj
 0001:000037a0       ??$?4AEAV?$function@$$A6AXPEAU?$WebSocket@$00@uWS@@HPEAD_K@Z@std@@XX@?$function@$$A6AXPEAU?$WebSocket@$00@uWS@@HPEAD_K@Z@std@@QEAAAEAV01@AEAV01@@Z 00000001800047a0 f i Group.obj
 0001:000037a0       ??4?$function@$$A6AXPEAU?$WebSocket@$0A@@uWS@@PEAD_KW4OpCode@2@@Z@std@@QEAAAEAV01@AEBV01@@Z 00000001800047a0 f i Group.obj
 0001:000037a0       ??$?4AEAV?$function@$$A6AXPEAU?$WebSocket@$0A@@uWS@@PEAD_KW4OpCode@2@@Z@std@@XX@?$function@$$A6AXPEAU?$WebSocket@$0A@@uWS@@PEAD_KW4OpCode@2@@Z@std@@QEAAAEAV01@AEAV01@@Z 00000001800047a0 f i Group.obj
 0001:000037a0       ??$?4AEAV?$function@$$A6AXPEAU?$HttpSocket@$0A@@uWS@@UHttpRequest@2@@Z@std@@XX@?$function@$$A6AXPEAU?$HttpSocket@$0A@@uWS@@UHttpRequest@2@@Z@std@@QEAAAEAV01@AEAV01@@Z 00000001800047a0 f i Group.obj
 0001:000037a0       ??$?4AEAV?$function@$$A6AXPEAU?$HttpSocket@$00@uWS@@@Z@std@@XX@?$function@$$A6AXPEAU?$HttpSocket@$00@uWS@@@Z@std@@QEAAAEAV01@AEAV01@@Z 00000001800047a0 f i Group.obj
 0001:000037a0       ??4?$function@$$A6AXPEAU?$HttpSocket@$00@uWS@@UHttpRequest@2@@Z@std@@QEAAAEAV01@AEBV01@@Z 00000001800047a0 f i Group.obj
 0001:000037a0       ??$?4AEAV?$function@$$A6AXPEAU?$WebSocket@$0A@@uWS@@HPEAD_K@Z@std@@XX@?$function@$$A6AXPEAU?$WebSocket@$0A@@uWS@@HPEAD_K@Z@std@@QEAAAEAV01@AEAV01@@Z 00000001800047a0 f i Group.obj
 0001:000037a0       ??4?$function@$$A6AXPEAU?$WebSocket@$0A@@uWS@@HPEAD_K@Z@std@@QEAAAEAV01@AEBV01@@Z 00000001800047a0 f i Group.obj
 0001:000037a0       ??4?$function@$$A6AXPEAU?$WebSocket@$0A@@uWS@@PEAD_K@Z@std@@QEAAAEAV01@AEBV01@@Z 00000001800047a0 f i Group.obj
 0001:000037a0       ??4?$function@$$A6AXPEAUHttpResponse@uWS@@@Z@std@@QEAAAEAV01@AEBV01@@Z 00000001800047a0 f i Group.obj
 0001:000037a0       ??4?$function@$$A6AXPEAU?$HttpSocket@$0A@@uWS@@UHttpRequest@2@@Z@std@@QEAAAEAV01@AEBV01@@Z 00000001800047a0 f i Group.obj
 0001:000037a0       ??4?$function@$$A6AXPEAU?$WebSocket@$00@uWS@@PEAD_K@Z@std@@QEAAAEAV01@AEBV01@@Z 00000001800047a0 f i Group.obj
 0001:000037a0       ??4?$function@$$A6AXPEAU?$WebSocket@$00@uWS@@UHttpRequest@2@@Z@std@@QEAAAEAV01@AEBV01@@Z 00000001800047a0 f i Group.obj
 0001:000037a0       ??$?4AEAV?$function@$$A6AXPEAU?$HttpSocket@$0A@@uWS@@@Z@std@@XX@?$function@$$A6AXPEAU?$HttpSocket@$0A@@uWS@@@Z@std@@QEAAAEAV01@AEAV01@@Z 00000001800047a0 f i Group.obj
 0001:00003820       ??$?4AEAV?$function@$$A6AXPEAU?$WebSocket@$0A@@uWS@@@Z@std@@XX@?$function@$$A6AXPEAU?$WebSocket@$0A@@uWS@@@Z@std@@QEAAAEAV01@AEAV01@@Z 0000000180004820 f i Group.obj
 0001:00003820       ??4?$function@$$A6AXPEAU?$WebSocket@$0A@@uWS@@@Z@std@@QEAAAEAV01@AEBV01@@Z 0000000180004820 f i Group.obj
 0001:000038e0       ?listen@?$Group@$00@uWS@@QEAAXW4ListenOptions@2@@Z 00000001800048e0 f i Group.obj
 0001:000038e0       ?listen@?$Group@$0A@@uWS@@QEAAXW4ListenOptions@2@@Z 00000001800048e0 f i Group.obj
 0001:00003930       ?addAsync@?$Group@$0A@@uWS@@QEAAXXZ 0000000180004930 f i Group.obj
 0001:00003930       ?addAsync@?$Group@$00@uWS@@QEAAXXZ 0000000180004930 f i Group.obj
 0001:00003980       ??$?4AEAV?$function@$$A6AXH@Z@std@@XX@?$function@$$A6AXH@Z@std@@QEAAAEAV01@AEAV01@@Z 0000000180004980 f i Group.obj
 0001:00003980       ??4?$function@$$A6AXH@Z@std@@QEAAAEAV01@AEBV01@@Z 0000000180004980 f i Group.obj
 0001:00003a40       ??$?4AEAV?$function@$$A6AXPEAU?$WebSocket@$00@uWS@@@Z@std@@XX@?$function@$$A6AXPEAU?$WebSocket@$00@uWS@@@Z@std@@QEAAAEAV01@AEAV01@@Z 0000000180004a40 f i Group.obj
 0001:00003a40       ??4?$function@$$A6AXPEAU?$WebSocket@$00@uWS@@@Z@std@@QEAAAEAV01@AEBV01@@Z 0000000180004a40 f i Group.obj
 0001:00003b00       ??4?$vector@PEAUPoll@@V?$allocator@PEAUPoll@@@std@@@std@@QEAAAEAV01@AEBV01@@Z 0000000180004b00 f i Group.obj
 0001:00003c30       ??4?$vector@PEAUPoll@@V?$allocator@PEAUPoll@@@std@@@std@@QEAAAEAV01@$$QEAV01@@Z 0000000180004c30 f i Group.obj
 0001:00003cb0       ??0?$vector@PEAUPoll@@V?$allocator@PEAUPoll@@@std@@@std@@QEAA@AEBV01@@Z 0000000180004cb0 f i Group.obj
 0001:00003d60       ??1?$shared_ptr@V?$basic_string@DU?$char_traits@D@std@@V?$allocator@D@2@@std@@@std@@QEAA@XZ 0000000180004d60 f i Group.obj
 0001:00003dd0       ??0?$WebSocketState@$0A@@uWS@@QEAA@XZ 0000000180004dd0 f i Group.obj
 0001:00003df0       ??4?$WebSocketState@$0A@@uWS@@QEAAAEAU01@$$QEAU01@@Z 0000000180004df0 f i Group.obj
 0001:00003e10       ??4?$WebSocketState@$0A@@uWS@@QEAAAEAU01@AEBU01@@Z 0000000180004e10 f i Group.obj
 0001:00003e30       ??1?$WebSocket@$0A@@uWS@@QEAA@XZ 0000000180004e30 f i Group.obj
 0001:00003e90       ??0?$WebSocket@$0A@@uWS@@QEAA@$$QEAU01@@Z 0000000180004e90 f i Group.obj
 0001:00003f40       ??0?$WebSocketState@$00@uWS@@QEAA@XZ 0000000180004f40 f i Group.obj
 0001:00003f60       ??4?$WebSocketState@$00@uWS@@QEAAAEAU01@$$QEAU01@@Z 0000000180004f60 f i Group.obj
 0001:00003fa0       ??4?$WebSocketState@$00@uWS@@QEAAAEAU01@AEBU01@@Z 0000000180004fa0 f i Group.obj
 0001:00003fc0       ??0?$WebSocket@$00@uWS@@QEAA@$$QEAU01@@Z 0000000180004fc0 f i Group.obj
 0001:00004080       ?_Reset_move@?$_Func_class@XPEAU?$HttpSocket@$0A@@uWS@@UHttpRequest@2@@std@@IEAAX$$QEAV12@@Z 0000000180005080 f i Group.obj
 0001:00004080       ?_Reset_move@?$_Func_class@XPEAU?$HttpSocket@$00@uWS@@@std@@IEAAX$$QEAV12@@Z 0000000180005080 f i Group.obj
 0001:00004080       ?_Reset_move@?$_Func_class@XPEAU?$WebSocket@$0A@@uWS@@PEAD_K@std@@IEAAX$$QEAV12@@Z 0000000180005080 f i Group.obj
 0001:00004080       ?_Reset_move@?$_Func_class@XPEAUHttpResponse@uWS@@PEAD_K_K@std@@IEAAX$$QEAV12@@Z 0000000180005080 f i Group.obj
 0001:00004080       ?_Reset_move@?$_Func_class@XPEAU?$WebSocket@$0A@@uWS@@UHttpRequest@2@@std@@IEAAX$$QEAV12@@Z 0000000180005080 f i Group.obj
 0001:00004080       ?_Reset_move@?$_Func_class@XPEAU?$HttpSocket@$00@uWS@@UHttpRequest@2@@std@@IEAAX$$QEAV12@@Z 0000000180005080 f i Group.obj
 0001:00004080       ?_Reset_move@?$_Func_class@XPEAU?$WebSocket@$0A@@uWS@@PEAD_KW4OpCode@2@@std@@IEAAX$$QEAV12@@Z 0000000180005080 f i Group.obj
 0001:00004080       ?_Reset_move@?$_Func_class@XPEAU?$WebSocket@$00@uWS@@PEAD_K@std@@IEAAX$$QEAV12@@Z 0000000180005080 f i Group.obj
 0001:00004080       ?_Reset_move@?$_Func_class@XPEAU?$HttpSocket@$0A@@uWS@@@std@@IEAAX$$QEAV12@@Z 0000000180005080 f i Group.obj
 0001:00004080       ?_Reset_move@?$_Func_class@XPEAU?$WebSocket@$00@uWS@@HPEAD_K@std@@IEAAX$$QEAV12@@Z 0000000180005080 f i Group.obj
 0001:00004080       ?_Reset_move@?$_Func_class@XPEAU?$WebSocket@$00@uWS@@UHttpRequest@2@@std@@IEAAX$$QEAV12@@Z 0000000180005080 f i Group.obj
 0001:00004080       ?_Reset_move@?$_Func_class@XPEAU?$WebSocket@$0A@@uWS@@HPEAD_K@std@@IEAAX$$QEAV12@@Z 0000000180005080 f i Group.obj
 0001:00004080       ?_Reset_move@?$_Func_class@XPEAX@std@@IEAAX$$QEAV12@@Z 0000000180005080 f i Group.obj
 0001:00004080       ?_Reset_move@?$_Func_class@XPEAUHttpResponse@uWS@@@std@@IEAAX$$QEAV12@@Z 0000000180005080 f i Group.obj
 0001:00004080       ?_Reset_move@?$_Func_class@XPEAU?$WebSocket@$00@uWS@@PEAD_KW4OpCode@2@@std@@IEAAX$$QEAV12@@Z 0000000180005080 f i Group.obj
 0001:00004080       ?_Reset_move@?$_Func_class@XPEAUHttpResponse@uWS@@UHttpRequest@2@PEAD_K_K@std@@IEAAX$$QEAV12@@Z 0000000180005080 f i Group.obj
 0001:000040f0       ?_Tidy@?$_Func_class@XPEAU?$WebSocket@$0A@@uWS@@@std@@IEAAXXZ 00000001800050f0 f i Group.obj
 0001:00004150       ?_Reset_move@?$_Func_class@XPEAU?$WebSocket@$0A@@uWS@@@std@@IEAAX$$QEAV12@@Z 0000000180005150 f i Group.obj
 0001:000041e0       ?_Tidy@?$_Func_class@XH@std@@IEAAXXZ 00000001800051e0 f i Group.obj
 0001:00004240       ?_Reset_move@?$_Func_class@XH@std@@IEAAX$$QEAV12@@Z 0000000180005240 f i Group.obj
 0001:000042d0       ?_Tidy@?$_Func_class@XPEAU?$WebSocket@$00@uWS@@@std@@IEAAXXZ 00000001800052d0 f i Group.obj
 0001:00004330       ?_Reset_move@?$_Func_class@XPEAU?$WebSocket@$00@uWS@@@std@@IEAAX$$QEAV12@@Z 0000000180005330 f i Group.obj
 0001:000043c0       ?_Tidy@?$deque@PEAUPoll@@V?$allocator@PEAUPoll@@@std@@@std@@IEAAXXZ 00000001800053c0 f i Group.obj
 0001:000044b0       ??4?$deque@PEAUPoll@@V?$allocator@PEAUPoll@@@std@@@std@@QEAAAEAV01@AEBV01@@Z 00000001800054b0 f i Group.obj
 0001:00004700       ??4?$deque@PEAUPoll@@V?$allocator@PEAUPoll@@@std@@@std@@QEAAAEAV01@$$QEAV01@@Z 0000000180005700 f i Group.obj
 0001:00004780       ??0?$deque@PEAUPoll@@V?$allocator@PEAUPoll@@@std@@@std@@QEAA@$$QEAV01@@Z 0000000180005780 f i Group.obj
 0001:00004840       ??0?$deque@PEAUPoll@@V?$allocator@PEAUPoll@@@std@@@std@@QEAA@AEBV01@@Z 0000000180005840 f i Group.obj
 0001:00004900       ?deallocate@?$_Wrap_alloc@V?$allocator@PEAUPoll@@@std@@@std@@QEAAXPEAPEAUPoll@@_K@Z 0000000180005900 f i Group.obj
 0001:00004970       ?_Reserve@?$vector@PEAUPoll@@V?$allocator@PEAUPoll@@@std@@@std@@IEAAX_K@Z 0000000180005970 f i Group.obj
 0001:00004a00       ?_Buy@?$vector@PEAUPoll@@V?$allocator@PEAUPoll@@@std@@@std@@IEAA_N_K@Z 0000000180005a00 f i Group.obj
 0001:00004a60       ?assign@?$basic_string@DU?$char_traits@D@std@@V?$allocator@D@2@@std@@QEAAAEAV12@AEBV12@_K1@Z 0000000180005a60 f i Group.obj
 0001:00004b90       ?_Swap@?$_Func_class@XPEAUHttpResponse@uWS@@@std@@IEAAXAEAV12@@Z 0000000180005b90 f i Group.obj
 0001:00004b90       ?_Swap@?$_Func_class@XPEAU?$WebSocket@$00@uWS@@HPEAD_K@std@@IEAAXAEAV12@@Z 0000000180005b90 f i Group.obj
 0001:00004b90       ?_Swap@?$_Func_class@XPEAUHttpResponse@uWS@@UHttpRequest@2@PEAD_K_K@std@@IEAAXAEAV12@@Z 0000000180005b90 f i Group.obj
 0001:00004b90       ?_Swap@?$_Func_class@XPEAU?$WebSocket@$0A@@uWS@@HPEAD_K@std@@IEAAXAEAV12@@Z 0000000180005b90 f i Group.obj
 0001:00004b90       ?_Swap@?$_Func_class@XPEAX@std@@IEAAXAEAV12@@Z 0000000180005b90 f i Group.obj
 0001:00004b90       ?_Swap@?$_Func_class@XPEAU?$WebSocket@$00@uWS@@UHttpRequest@2@@std@@IEAAXAEAV12@@Z 0000000180005b90 f i Group.obj
 0001:00004b90       ?_Swap@?$_Func_class@XPEAU?$HttpSocket@$00@uWS@@UHttpRequest@2@@std@@IEAAXAEAV12@@Z 0000000180005b90 f i Group.obj
 0001:00004b90       ?_Swap@?$_Func_class@XPEAU?$HttpSocket@$0A@@uWS@@UHttpRequest@2@@std@@IEAAXAEAV12@@Z 0000000180005b90 f i Group.obj
 0001:00004b90       ?_Swap@?$_Func_class@XPEAU?$WebSocket@$0A@@uWS@@PEAD_KW4OpCode@2@@std@@IEAAXAEAV12@@Z 0000000180005b90 f i Group.obj
 0001:00004b90       ?_Swap@?$_Func_class@XPEAU?$WebSocket@$0A@@uWS@@UHttpRequest@2@@std@@IEAAXAEAV12@@Z 0000000180005b90 f i Group.obj
 0001:00004b90       ?_Swap@?$_Func_class@XPEAU?$WebSocket@$0A@@uWS@@PEAD_K@std@@IEAAXAEAV12@@Z 0000000180005b90 f i Group.obj
 0001:00004b90       ?_Swap@?$_Func_class@XPEAU?$HttpSocket@$00@uWS@@@std@@IEAAXAEAV12@@Z 0000000180005b90 f i Group.obj
 0001:00004b90       ?_Swap@?$_Func_class@XPEAUHttpResponse@uWS@@PEAD_K_K@std@@IEAAXAEAV12@@Z 0000000180005b90 f i Group.obj
 0001:00004b90       ?_Swap@?$_Func_class@XPEAU?$WebSocket@$00@uWS@@PEAD_KW4OpCode@2@@std@@IEAAXAEAV12@@Z 0000000180005b90 f i Group.obj
 0001:00004b90       ?_Swap@?$_Func_class@XPEAU?$HttpSocket@$0A@@uWS@@@std@@IEAAXAEAV12@@Z 0000000180005b90 f i Group.obj
 0001:00004b90       ?_Swap@?$_Func_class@XPEAU?$WebSocket@$00@uWS@@PEAD_K@std@@IEAAXAEAV12@@Z 0000000180005b90 f i Group.obj
 0001:00004cd0       ?_Swap@?$_Func_class@XPEAU?$WebSocket@$0A@@uWS@@@std@@IEAAXAEAV12@@Z 0000000180005cd0 f i Group.obj
 0001:00004e20       ?_Swap@?$_Func_class@XH@std@@IEAAXAEAV12@@Z 0000000180005e20 f i Group.obj
 0001:00004f70       ?_Swap@?$_Func_class@XPEAU?$WebSocket@$00@uWS@@@std@@IEAAXAEAV12@@Z 0000000180005f70 f i Group.obj
 0001:000050c0       ?erase@?$deque@PEAUPoll@@V?$allocator@PEAUPoll@@@std@@@std@@QEAA?AV?$_Deque_iterator@V?$_Deque_val@U?$_Deque_simple_types@PEAUPoll@@@std@@@std@@@2@V?$_Deque_const_iterator@V?$_Deque_val@U?$_Deque_simple_types@PEAUPoll@@@std@@@std@@@2@0@Z 00000001800060c0 f i Group.obj
 0001:000052f0       ?_Reallocate@?$vector@PEAUPoll@@V?$allocator@PEAUPoll@@@std@@@std@@IEAAX_K@Z 00000001800062f0 f i Group.obj
 0001:00005370       ?erase@?$basic_string@DU?$char_traits@D@std@@V?$allocator@D@2@@std@@QEAAAEAV12@_K0@Z 0000000180006370 f i Group.obj
 0001:00005440       ?allocate@?$allocator@PEAUPoll@@@std@@QEAAPEAPEAUPoll@@_K@Z 0000000180006440 f i Group.obj
 0001:000054c0       ?timerCallback@?$Group@$00@uWS@@KAXPEAUTimer@@@Z 00000001800064c0 f i Group.obj
 0001:00005600       ?addWebSocket@?$Group@$0A@@uWS@@IEAAXPEAU?$WebSocket@$0A@@2@@Z 0000000180006600 f i Group.obj
 0001:00005600       ?addWebSocket@?$Group@$00@uWS@@IEAAXPEAU?$WebSocket@$00@2@@Z 0000000180006600 f i Group.obj
 0001:00005640       ?removeWebSocket@?$Group@$00@uWS@@IEAAXPEAU?$WebSocket@$00@2@@Z 0000000180006640 f i Group.obj
 0001:00005640       ?removeWebSocket@?$Group@$0A@@uWS@@IEAAXPEAU?$WebSocket@$0A@@2@@Z 0000000180006640 f i Group.obj
 0001:00005700       ?addHttpSocket@?$Group@$00@uWS@@IEAAXPEAU?$HttpSocket@$00@2@@Z 0000000180006700 f i Group.obj
 0001:000057d0       ?removeHttpSocket@?$Group@$0A@@uWS@@IEAAXPEAU?$HttpSocket@$0A@@2@@Z 00000001800067d0 f i Group.obj
 0001:000057d0       ?removeHttpSocket@?$Group@$00@uWS@@IEAAXPEAU?$HttpSocket@$00@2@@Z 00000001800067d0 f i Group.obj
 0001:000058c0       ??0?$Group@$00@uWS@@IEAA@HIPEAUHub@1@PEAUNodeData@uS@@@Z 00000001800068c0 f i Group.obj
 0001:00005d20       ?stopListening@?$Group@$00@uWS@@IEAAXXZ 0000000180006d20 f i Group.obj
 0001:00005d90       ?onConnection@?$Group@$0A@@uWS@@QEAAXV?$function@$$A6AXPEAU?$WebSocket@$0A@@uWS@@UHttpRequest@2@@Z@std@@@Z 0000000180006d90 f i Group.obj
 0001:00005d90       ?onConnection@?$Group@$00@uWS@@QEAAXV?$function@$$A6AXPEAU?$WebSocket@$00@uWS@@UHttpRequest@2@@Z@std@@@Z 0000000180006d90 f i Group.obj
 0001:00005dd0       ?onTransfer@?$Group@$00@uWS@@QEAAXV?$function@$$A6AXPEAU?$WebSocket@$00@uWS@@@Z@std@@@Z 0000000180006dd0 f i Group.obj
 0001:00005e40       ?onMessage@?$Group@$0A@@uWS@@QEAAXV?$function@$$A6AXPEAU?$WebSocket@$0A@@uWS@@PEAD_KW4OpCode@2@@Z@std@@@Z 0000000180006e40 f i Group.obj
 0001:00005e40       ?onMessage@?$Group@$00@uWS@@QEAAXV?$function@$$A6AXPEAU?$WebSocket@$00@uWS@@PEAD_KW4OpCode@2@@Z@std@@@Z 0000000180006e40 f i Group.obj
 0001:00005e80       ?onDisconnection@?$Group@$0A@@uWS@@QEAAXV?$function@$$A6AXPEAU?$WebSocket@$0A@@uWS@@HPEAD_K@Z@std@@@Z 0000000180006e80 f i Group.obj
 0001:00005e80       ?onDisconnection@?$Group@$00@uWS@@QEAAXV?$function@$$A6AXPEAU?$WebSocket@$00@uWS@@HPEAD_K@Z@std@@@Z 0000000180006e80 f i Group.obj
 0001:00005ec0       ?onPing@?$Group@$0A@@uWS@@QEAAXV?$function@$$A6AXPEAU?$WebSocket@$0A@@uWS@@PEAD_K@Z@std@@@Z 0000000180006ec0 f i Group.obj
 0001:00005ec0       ?onPing@?$Group@$00@uWS@@QEAAXV?$function@$$A6AXPEAU?$WebSocket@$00@uWS@@PEAD_K@Z@std@@@Z 0000000180006ec0 f i Group.obj
 0001:00005f00       ?onPong@?$Group@$0A@@uWS@@QEAAXV?$function@$$A6AXPEAU?$WebSocket@$0A@@uWS@@PEAD_K@Z@std@@@Z 0000000180006f00 f i Group.obj
 0001:00005f00       ?onPong@?$Group@$00@uWS@@QEAAXV?$function@$$A6AXPEAU?$WebSocket@$00@uWS@@PEAD_K@Z@std@@@Z 0000000180006f00 f i Group.obj
 0001:00005f40       ?onError@?$Group@$00@uWS@@QEAAXV?$function@$$A6AXH@Z@std@@@Z 0000000180006f40 f i Group.obj
 0001:00005fb0       ?onHttpConnection@?$Group@$00@uWS@@QEAAXV?$function@$$A6AXPEAU?$HttpSocket@$00@uWS@@@Z@std@@@Z 0000000180006fb0 f i Group.obj
 0001:00005fb0       ?onHttpConnection@?$Group@$0A@@uWS@@QEAAXV?$function@$$A6AXPEAU?$HttpSocket@$0A@@uWS@@@Z@std@@@Z 0000000180006fb0 f i Group.obj
 0001:00005ff0       ?onHttpRequest@?$Group@$0A@@uWS@@QEAAXV?$function@$$A6AXPEAUHttpResponse@uWS@@UHttpRequest@2@PEAD_K3@Z@std@@@Z 0000000180006ff0 f i Group.obj
 0001:00005ff0       ?onHttpRequest@?$Group@$00@uWS@@QEAAXV?$function@$$A6AXPEAUHttpResponse@uWS@@UHttpRequest@2@PEAD_K3@Z@std@@@Z 0000000180006ff0 f i Group.obj
 0001:00006030       ?onHttpData@?$Group@$00@uWS@@QEAAXV?$function@$$A6AXPEAUHttpResponse@uWS@@PEAD_K2@Z@std@@@Z 0000000180007030 f i Group.obj
 0001:00006030       ?onHttpData@?$Group@$0A@@uWS@@QEAAXV?$function@$$A6AXPEAUHttpResponse@uWS@@PEAD_K2@Z@std@@@Z 0000000180007030 f i Group.obj
 0001:00006070       ?onHttpDisconnection@?$Group@$0A@@uWS@@QEAAXV?$function@$$A6AXPEAU?$HttpSocket@$0A@@uWS@@@Z@std@@@Z 0000000180007070 f i Group.obj
 0001:00006070       ?onHttpDisconnection@?$Group@$00@uWS@@QEAAXV?$function@$$A6AXPEAU?$HttpSocket@$00@uWS@@@Z@std@@@Z 0000000180007070 f i Group.obj
 0001:000060b0       ?onCancelledHttpRequest@?$Group@$0A@@uWS@@QEAAXV?$function@$$A6AXPEAUHttpResponse@uWS@@@Z@std@@@Z 00000001800070b0 f i Group.obj
 0001:000060b0       ?onCancelledHttpRequest@?$Group@$00@uWS@@QEAAXV?$function@$$A6AXPEAUHttpResponse@uWS@@@Z@std@@@Z 00000001800070b0 f i Group.obj
 0001:000060f0       ?onHttpUpgrade@?$Group@$00@uWS@@QEAAXV?$function@$$A6AXPEAU?$HttpSocket@$00@uWS@@UHttpRequest@2@@Z@std@@@Z 00000001800070f0 f i Group.obj
 0001:000060f0       ?onHttpUpgrade@?$Group@$0A@@uWS@@QEAAXV?$function@$$A6AXPEAU?$HttpSocket@$0A@@uWS@@UHttpRequest@2@@Z@std@@@Z 00000001800070f0 f i Group.obj
 0001:00006130       ?broadcast@?$Group@$00@uWS@@QEAAXPEBD_KW4OpCode@2@@Z 0000000180007130 f i Group.obj
 0001:000061a0       ?setUserData@?$Group@$00@uWS@@QEAAXPEAX@Z 00000001800071a0 f i Group.obj
 0001:000061a0       ?setUserData@?$Group@$0A@@uWS@@QEAAXPEAX@Z 00000001800071a0 f i Group.obj
 0001:000061b0       ?getUserData@?$Group@$0A@@uWS@@QEAAPEAXXZ 00000001800071b0 f i Group.obj
 0001:000061b0       ?getUserData@?$Group@$00@uWS@@QEAAPEAXXZ 00000001800071b0 f i Group.obj
 0001:000061c0       ?terminate@?$Group@$00@uWS@@QEAAXXZ 00000001800071c0 f i Group.obj
 0001:00006230       ?close@?$Group@$00@uWS@@QEAAXHPEAD_K@Z 0000000180007230 f i Group.obj
 0001:000062e0       ?startAutoPing@?$Group@$00@uWS@@QEAAXHV?$basic_string@DU?$char_traits@D@std@@V?$allocator@D@2@@std@@@Z 00000001800072e0 f i Group.obj
 0001:00006390       ?timerCallback@?$Group@$0A@@uWS@@KAXPEAUTimer@@@Z 0000000180007390 f i Group.obj
 0001:00006520       ?addHttpSocket@?$Group@$0A@@uWS@@IEAAXPEAU?$HttpSocket@$0A@@2@@Z 0000000180007520 f i Group.obj
 0001:000065f0       ??0?$Group@$0A@@uWS@@IEAA@HIPEAUHub@1@PEAUNodeData@uS@@@Z 00000001800075f0 f i Group.obj
 0001:00006a20       ?stopListening@?$Group@$0A@@uWS@@IEAAXXZ 0000000180007a20 f i Group.obj
 0001:00006a40       ?onTransfer@?$Group@$0A@@uWS@@QEAAXV?$function@$$A6AXPEAU?$WebSocket@$0A@@uWS@@@Z@std@@@Z 0000000180007a40 f i Group.obj
 0001:00006ab0       ?onError@?$Group@$0A@@uWS@@QEAAXV?$function@$$A6AXPEAX@Z@std@@@Z 0000000180007ab0 f i Group.obj
 0001:00006af0       ?broadcast@?$Group@$0A@@uWS@@QEAAXPEBD_KW4OpCode@2@@Z 0000000180007af0 f i Group.obj
 0001:00006b60       ?terminate@?$Group@$0A@@uWS@@QEAAXXZ 0000000180007b60 f i Group.obj
 0001:00006b90       ?close@?$Group@$0A@@uWS@@QEAAXHPEAD_K@Z 0000000180007b90 f i Group.obj
 0001:00006c00       ?startAutoPing@?$Group@$0A@@uWS@@QEAAXHV?$basic_string@DU?$char_traits@D@std@@V?$allocator@D@2@@std@@@Z 0000000180007c00 f i Group.obj
 0001:00006cb0       ??$copy@V?$_Deque_const_iterator@V?$_Deque_val@U?$_Deque_simple_types@PEAUPoll@@@std@@@std@@@std@@V?$_Deque_iterator@V?$_Deque_val@U?$_Deque_simple_types@PEAUPoll@@@std@@@std@@@2@@std@@YA?AV?$_Deque_iterator@V?$_Deque_val@U?$_Deque_simple_types@PEAUPoll@@@std@@@std@@@0@V?$_Deque_const_iterator@V?$_Deque_val@U?$_Deque_simple_types@PEAUPoll@@@std@@@std@@@0@0V10@@Z 0000000180007cb0 f i Group.obj
 0001:00006d50       ??$insert@V?$_Deque_const_iterator@V?$_Deque_val@U?$_Deque_simple_types@PEAUPoll@@@std@@@std@@@std@@@?$deque@PEAUPoll@@V?$allocator@PEAUPoll@@@std@@@std@@QEAA?AV?$_Deque_iterator@V?$_Deque_val@U?$_Deque_simple_types@PEAUPoll@@@std@@@std@@@1@V?$_Deque_const_iterator@V?$_Deque_val@U?$_Deque_simple_types@PEAUPoll@@@std@@@std@@@1@00@Z 0000000180007d50 f i Group.obj
 0001:00007000       ??$move_backward@V?$_Deque_iterator@V?$_Deque_val@U?$_Deque_simple_types@PEAUPoll@@@std@@@std@@@std@@V12@@std@@YA?AV?$_Deque_iterator@V?$_Deque_val@U?$_Deque_simple_types@PEAUPoll@@@std@@@std@@@0@V10@00@Z 0000000180008000 f i Group.obj
 0001:000070e0       ??D?$_Deque_const_iterator@V?$_Deque_val@U?$_Deque_simple_types@PEAUPoll@@@std@@@std@@@std@@QEBAAEBQEAUPoll@@XZ 00000001800080e0 f i Group.obj
 0001:00007120       ?push_back@?$deque@PEAUPoll@@V?$allocator@PEAUPoll@@@std@@@std@@QEAAXAEBQEAUPoll@@@Z 0000000180008120 f i Group.obj
 0001:00007120       ??$emplace_back@AEBQEAUPoll@@@?$deque@PEAUPoll@@V?$allocator@PEAUPoll@@@std@@@std@@QEAAXAEBQEAUPoll@@@Z 0000000180008120 f i Group.obj
 0001:000071f0       ?push_front@?$deque@PEAUPoll@@V?$allocator@PEAUPoll@@@std@@@std@@QEAAXAEBQEAUPoll@@@Z 00000001800081f0 f i Group.obj
 0001:000072d0       ?terminate@?$HttpSocket@$0A@@uWS@@QEAAXXZ 00000001800082d0 f i Group.obj
 0001:000072e0       ?terminate@?$HttpSocket@$00@uWS@@QEAAXXZ 00000001800082e0 f i Group.obj
 0001:000072f0       ?_Growmap@?$deque@PEAUPoll@@V?$allocator@PEAUPoll@@@std@@@std@@IEAAX_K@Z 00000001800082f0 f i Group.obj
 0001:00007550       ??$forEach@V<lambda_1664b30095d6fbe8a5c4c0400e552b02>@@@?$Group@$00@uWS@@QEAAXAEBV<lambda_1664b30095d6fbe8a5c4c0400e552b02>@@@Z 0000000180008550 f i Group.obj
 0001:000076a0       ??$forEachHttpSocket@V<lambda_9c9228540c8e926e008b7b2fe2467fbd>@@@?$Group@$00@uWS@@QEAAXAEBV<lambda_9c9228540c8e926e008b7b2fe2467fbd>@@@Z 00000001800086a0 f i Group.obj
 0001:000077f0       ??$closeSocket@UListenSocket@uS@@@Socket@uS@@QEAAXXZ 00000001800087f0 f i Group.obj
 0001:000078a0       ??$forEach@V<lambda_4bd5ffb5432a522713c66c61c8561692>@@@?$Group@$00@uWS@@QEAAXAEBV<lambda_4bd5ffb5432a522713c66c61c8561692>@@@Z 00000001800088a0 f i Group.obj
 0001:000078a0       ??$forEach@V<lambda_820529b9f6fde9e8f7185a04d48d4919>@@@?$Group@$0A@@uWS@@QEAAXAEBV<lambda_820529b9f6fde9e8f7185a04d48d4919>@@@Z 00000001800088a0 f i Group.obj
 0001:000079e0       ??$forEach@V<lambda_dac5425407134c3ad1fc5d689b618274>@@@?$Group@$00@uWS@@QEAAXAEBV<lambda_dac5425407134c3ad1fc5d689b618274>@@@Z 00000001800089e0 f i Group.obj
 0001:00007b20       ??$forEach@V<lambda_b3593f67ea0e2bc354cc56d37223a8e1>@@@?$Group@$00@uWS@@QEAAXAEBV<lambda_b3593f67ea0e2bc354cc56d37223a8e1>@@@Z 0000000180008b20 f i Group.obj
 0001:00007c70       ??$forEach@V<lambda_f5a579efc66b9b6c3cfc8fc18fc26429>@@@?$Group@$0A@@uWS@@QEAAXAEBV<lambda_f5a579efc66b9b6c3cfc8fc18fc26429>@@@Z 0000000180008c70 f i Group.obj
 0001:00007dc0       ??$forEachHttpSocket@V<lambda_ebb358eec121e84d82693a1291214969>@@@?$Group@$0A@@uWS@@QEAAXAEBV<lambda_ebb358eec121e84d82693a1291214969>@@@Z 0000000180008dc0 f i Group.obj
 0001:00007f10       ??$forEach@V<lambda_7b72ecf7eb32a9a4dae114748b789669>@@@?$Group@$0A@@uWS@@QEAAXAEBV<lambda_7b72ecf7eb32a9a4dae114748b789669>@@@Z 0000000180008f10 f i Group.obj
 0001:00008050       ??$forEach@V<lambda_57c17a60ae854d66cbe009548d358f46>@@@?$Group@$0A@@uWS@@QEAAXAEBV<lambda_57c17a60ae854d66cbe009548d358f46>@@@Z 0000000180009050 f i Group.obj
 0001:000081a0       ??$_Copy_no_deprecate@V?$_Deque_const_iterator@V?$_Deque_val@U?$_Deque_simple_types@PEAUPoll@@@std@@@std@@@std@@V?$_Deque_iterator@V?$_Deque_val@U?$_Deque_simple_types@PEAUPoll@@@std@@@std@@@2@@std@@YA?AV?$_Deque_iterator@V?$_Deque_val@U?$_Deque_simple_types@PEAUPoll@@@std@@@std@@@0@V?$_Deque_const_iterator@V?$_Deque_val@U?$_Deque_simple_types@PEAUPoll@@@std@@@std@@@0@0V10@@Z 00000001800091a0 f i Group.obj
 0001:000081a0       ??$_Move_no_deprecate@V?$_Deque_iterator@V?$_Deque_val@U?$_Deque_simple_types@PEAUPoll@@@std@@@std@@@std@@V12@@std@@YA?AV?$_Deque_iterator@V?$_Deque_val@U?$_Deque_simple_types@PEAUPoll@@@std@@@std@@@0@V10@00@Z 00000001800091a0 f i Group.obj
 0001:00008280       ??$reverse@V?$_Deque_iterator@V?$_Deque_val@U?$_Deque_simple_types@PEAUPoll@@@std@@@std@@@std@@@std@@YAXV?$_Deque_iterator@V?$_Deque_val@U?$_Deque_simple_types@PEAUPoll@@@std@@@std@@@0@0@Z 0000000180009280 f i Group.obj
 0001:00008380       ??$rotate@V?$_Deque_iterator@V?$_Deque_val@U?$_Deque_simple_types@PEAUPoll@@@std@@@std@@@std@@@std@@YA?AV?$_Deque_iterator@V?$_Deque_val@U?$_Deque_simple_types@PEAUPoll@@@std@@@std@@@0@V10@00@Z 0000000180009380 f i Group.obj
 0001:00008510       ??$_Move_backward1@V?$_Deque_unchecked_iterator@V?$_Deque_val@U?$_Deque_simple_types@PEAUPoll@@@std@@@std@@@std@@V?$_Deque_iterator@V?$_Deque_val@U?$_Deque_simple_types@PEAUPoll@@@std@@@std@@@2@@std@@YA?AV?$_Deque_iterator@V?$_Deque_val@U?$_Deque_simple_types@PEAUPoll@@@std@@@std@@@0@V?$_Deque_unchecked_iterator@V?$_Deque_val@U?$_Deque_simple_types@PEAUPoll@@@std@@@std@@@0@0V10@Urandom_access_iterator_tag@0@2@Z 0000000180009510 f i Group.obj
 0001:00008640       ??$_Copy_no_deprecate1@V?$_Deque_unchecked_const_iterator@V?$_Deque_val@U?$_Deque_simple_types@PEAUPoll@@@std@@@std@@@std@@V?$_Deque_iterator@V?$_Deque_val@U?$_Deque_simple_types@PEAUPoll@@@std@@@std@@@2@@std@@YA?AV?$_Deque_iterator@V?$_Deque_val@U?$_Deque_simple_types@PEAUPoll@@@std@@@std@@@0@V?$_Deque_unchecked_const_iterator@V?$_Deque_val@U?$_Deque_simple_types@PEAUPoll@@@std@@@std@@@0@0V10@Urandom_access_iterator_tag@0@2@Z 0000000180009640 f i Group.obj
 0001:00008640       ??$_Move_no_deprecate1@V?$_Deque_unchecked_iterator@V?$_Deque_val@U?$_Deque_simple_types@PEAUPoll@@@std@@@std@@@std@@V?$_Deque_iterator@V?$_Deque_val@U?$_Deque_simple_types@PEAUPoll@@@std@@@std@@@2@@std@@YA?AV?$_Deque_iterator@V?$_Deque_val@U?$_Deque_simple_types@PEAUPoll@@@std@@@std@@@0@V?$_Deque_unchecked_iterator@V?$_Deque_val@U?$_Deque_simple_types@PEAUPoll@@@std@@@std@@@0@0V10@Urandom_access_iterator_tag@0@2@Z 0000000180009640 f i Group.obj
 0001:00008770       ??$_Rotate@V?$_Deque_unchecked_iterator@V?$_Deque_val@U?$_Deque_simple_types@PEAUPoll@@@std@@@std@@@std@@@std@@YA?AV?$_Deque_unchecked_iterator@V?$_Deque_val@U?$_Deque_simple_types@PEAUPoll@@@std@@@std@@@0@V10@00Urandom_access_iterator_tag@0@@Z 0000000180009770 f i Group.obj
 0001:000089a0       ?_Delete_this@?$_Func_impl@V<lambda_a9a913c8f103bffe7fddf72259ae7d5c>@@V?$allocator@H@std@@XPEAU?$WebSocket@$0A@@uWS@@PEAD_KW4OpCode@5@@std@@EEAAX_N@Z 00000001800099a0 f i Group.obj
 0001:000089a0       ?_Delete_this@?$_Func_impl@V<lambda_e5e8c2fb959005491ebaf75befe1e41f>@@V?$allocator@H@std@@XPEAU?$WebSocket@$00@uWS@@PEAD_KW4OpCode@5@@std@@EEAAX_N@Z 00000001800099a0 f i Group.obj
 0001:000089a0       ?_Delete_this@?$_Func_impl@V<lambda_4acf657190c75d6154df1f8279f608b3>@@V?$allocator@H@std@@XPEAU?$WebSocket@$00@uWS@@PEAD_KW4OpCode@5@@std@@EEAAX_N@Z 00000001800099a0 f i addon.obj
 0001:000089a0       ?_Delete_this@?$_Func_impl@V<lambda_44c2ae3261b8a3837fe161100d7627a5>@@V?$allocator@H@std@@XPEAU?$WebSocket@$0A@@uWS@@@std@@EEAAX_N@Z 00000001800099a0 f i Group.obj
 0001:000089a0       ?_Delete_this@?$_Func_impl@V<lambda_d881a2c7a1e94701640214c77e3dc049>@@V?$allocator@H@std@@XPEAU?$WebSocket@$0A@@uWS@@UHttpRequest@5@@std@@EEAAX_N@Z 00000001800099a0 f i Group.obj
 0001:000089a0       ?_Delete_this@?$_Func_impl@V<lambda_28546b2bf5fff94df39539b2c8fdbe8e>@@V?$allocator@H@std@@XPEAX@std@@EEAAX_N@Z 00000001800099a0 f i Group.obj
 0001:000089a0       ?_Delete_this@?$_Func_impl@V<lambda_676b05d5fcd7eb23155de59028af8c84>@@V?$allocator@H@std@@XPEAU?$WebSocket@$0A@@uWS@@HPEAD_K@std@@EEAAX_N@Z 00000001800099a0 f i Group.obj
 0001:000089a0       ?_Delete_this@?$_Func_impl@V<lambda_1ea449dbbe6c4a9ff2706a11ec691fab>@@V?$allocator@H@std@@XPEAU?$WebSocket@$0A@@uWS@@PEAD_KW4OpCode@5@@std@@EEAAX_N@Z 00000001800099a0 f i addon.obj
 0001:000089a0       ?_Delete_this@?$_Func_impl@V<lambda_2ba66bc05ba93ca83268b0bf8e7eaaf7>@@V?$allocator@H@std@@XPEAU?$WebSocket@$00@uWS@@PEAD_K@std@@EEAAX_N@Z 00000001800099a0 f i addon.obj
 0001:000089a0       ?_Delete_this@?$_Func_impl@V<lambda_c6520c99f61bc482201622fd3ba6d6a8>@@V?$allocator@H@std@@XPEAU?$WebSocket@$00@uWS@@@std@@EEAAX_N@Z 00000001800099a0 f i Group.obj
 0001:000089a0       ?_Delete_this@?$_Func_impl@V<lambda_1e1913856f7aaf7dc79da8070652544a>@@V?$allocator@H@std@@XPEAU?$WebSocket@$00@uWS@@HPEAD_K@std@@EEAAX_N@Z 00000001800099a0 f i Group.obj
 0001:000089a0       ?_Delete_this@?$_Func_impl@V<lambda_5203bc642fa96e6a4d3687e7b4a8a1dd>@@V?$allocator@H@std@@XPEAU?$WebSocket@$0A@@uWS@@PEAD_K@std@@EEAAX_N@Z 00000001800099a0 f i addon.obj
 0001:000089a0       ?_Delete_this@?$_Func_impl@V<lambda_47e56f5e9252a482bd9c0aa7befe2a4e>@@V?$allocator@H@std@@XPEAU?$WebSocket@$0A@@uWS@@PEAD_K@std@@EEAAX_N@Z 00000001800099a0 f i addon.obj
 0001:000089a0       ?_Delete_this@?$_Func_impl@V<lambda_adbdade2acdb425a95e1d65016bf1258>@@V?$allocator@H@std@@XPEAUHttpResponse@uWS@@UHttpRequest@5@PEAD_K_K@std@@EEAAX_N@Z 00000001800099a0 f i addon.obj
 0001:000089a0       ?_Delete_this@?$_Func_impl@V<lambda_fee28d472d968bf8cf28d0644c64f87f>@@V?$allocator@H@std@@XPEAUHttpResponse@uWS@@UHttpRequest@5@PEAD_K_K@std@@EEAAX_N@Z 00000001800099a0 f i Group.obj
 0001:000089a0       ?_Delete_this@?$_Func_impl@V<lambda_2084e076f6151854c0db1be6acabce48>@@V?$allocator@H@std@@XPEAX@std@@EEAAX_N@Z 00000001800099a0 f i addon.obj
 0001:000089a0       ?_Delete_this@?$_Func_impl@V<lambda_192be0d4e8e564445903b882b614d20b>@@V?$allocator@H@std@@XPEAU?$HttpSocket@$0A@@uWS@@@std@@EEAAX_N@Z 00000001800099a0 f i Group.obj
 0001:000089a0       ?_Delete_this@?$_Func_impl@V<lambda_a8ef02e52f510361621b8831e97d6fe5>@@V?$allocator@H@std@@XPEAUHttpResponse@uWS@@UHttpRequest@5@PEAD_K_K@std@@EEAAX_N@Z 00000001800099a0 f i Group.obj
 0001:000089a0       ?_Delete_this@?$_Func_impl@V<lambda_be55859939e08d27a0fb932e2b03dde6>@@V?$allocator@H@std@@XPEAUHttpResponse@uWS@@@std@@EEAAX_N@Z 00000001800099a0 f i Group.obj
 0001:000089a0       ?_Delete_this@?$_Func_impl@V<lambda_14b7b541ae08ea1c954e985f6a5857b4>@@V?$allocator@H@std@@XPEAU?$WebSocket@$0A@@uWS@@PEAD_K@std@@EEAAX_N@Z 00000001800099a0 f i Group.obj
 0001:000089a0       ?_Delete_this@?$_Func_impl@V<lambda_7434f3cae99d0dcd112468417ee977b0>@@V?$allocator@H@std@@XPEAU?$HttpSocket@$00@uWS@@@std@@EEAAX_N@Z 00000001800099a0 f i Group.obj
 0001:000089a0       ?_Delete_this@?$_Func_impl@V<lambda_b966d8f42a0351f524477ccae8980970>@@V?$allocator@H@std@@XPEAU?$WebSocket@$00@uWS@@HPEAD_K@std@@EEAAX_N@Z 00000001800099a0 f i addon.obj
 0001:000089a0       ?_Delete_this@?$_Func_impl@V<lambda_a3ecdec81f70a9fe73dcb758a7fed5a7>@@V?$allocator@H@std@@XPEAU?$WebSocket@$00@uWS@@PEAD_K@std@@EEAAX_N@Z 00000001800099a0 f i Group.obj
 0001:000089a0       ?_Delete_this@?$_Func_impl@V<lambda_f4f36bdfa1d4948f2a44b7caf93ba028>@@V?$allocator@H@std@@XPEAUHttpResponse@uWS@@@std@@EEAAX_N@Z 00000001800099a0 f i Group.obj
 0001:000089a0       ?_Delete_this@?$_Func_impl@V<lambda_e97c96979ea8c6fefbbf0e4dbcda2be5>@@V?$allocator@H@std@@XPEAU?$HttpSocket@$0A@@uWS@@@std@@EEAAX_N@Z 00000001800099a0 f i Group.obj
 0001:000089a0       ?_Delete_this@?$_Func_impl@V<lambda_627f71350547a88590b856e4dc8f03a3>@@V?$allocator@H@std@@XPEAUHttpResponse@uWS@@@std@@EEAAX_N@Z 00000001800099a0 f i addon.obj
 0001:000089a0       ?_Delete_this@?$_Func_impl@V<lambda_06b3790a6438be8c984e27831cd7ebe1>@@V?$allocator@H@std@@XPEAU?$WebSocket@$00@uWS@@PEAD_K@std@@EEAAX_N@Z 00000001800099a0 f i addon.obj
 0001:000089a0       ?_Delete_this@?$_Func_impl@V<lambda_2348f224942daab74e5fd550b84d90ff>@@V?$allocator@H@std@@XPEAUHttpResponse@uWS@@PEAD_K_K@std@@EEAAX_N@Z 00000001800099a0 f i addon.obj
 0001:000089a0       ?_Delete_this@?$_Func_impl@V<lambda_93c0d08600f8b6900f0f2f49a4d25d7a>@@V?$allocator@H@std@@XPEAU?$HttpSocket@$00@uWS@@@std@@EEAAX_N@Z 00000001800099a0 f i Group.obj
 0001:000089a0       ?_Delete_this@?$_Func_impl@V<lambda_c75e75b8ce235a770095cf5e3315fdec>@@V?$allocator@H@std@@XPEAU?$WebSocket@$0A@@uWS@@HPEAD_K@std@@EEAAX_N@Z 00000001800099a0 f i addon.obj
 0001:000089a0       ?_Delete_this@?$_Func_impl@V<lambda_90c955ed1fea1ab5aabbcf78f378525c>@@V?$allocator@H@std@@XPEAUHttpResponse@uWS@@PEAD_K_K@std@@EEAAX_N@Z 00000001800099a0 f i Group.obj
 0001:000089a0       ?_Delete_this@?$_Func_impl@V<lambda_2be8697520db48762f797b9c727a68ff>@@V?$allocator@H@std@@XPEAUHttpResponse@uWS@@PEAD_K_K@std@@EEAAX_N@Z 00000001800099a0 f i Group.obj
 0001:000089a0       ?_Delete_this@?$_Func_impl@V<lambda_faaa5f5890ff3be9fbce2836205fee3b>@@V?$allocator@H@std@@XPEAU?$WebSocket@$00@uWS@@UHttpRequest@5@@std@@EEAAX_N@Z 00000001800099a0 f i addon.obj
 0001:000089a0       ?_Delete_this@?$_Func_impl@V<lambda_fadd044f7e86bc60b9387df73115f306>@@V?$allocator@H@std@@XPEAU?$WebSocket@$0A@@uWS@@UHttpRequest@5@@std@@EEAAX_N@Z 00000001800099a0 f i addon.obj
 0001:000089a0       ?_Delete_this@?$_Func_impl@V<lambda_8cc912af1f457cfea0d4ba1cc691c089>@@V?$allocator@H@std@@XH@std@@EEAAX_N@Z 00000001800099a0 f i Group.obj
 0001:000089a0       ?_Delete_this@?$_Func_impl@V<lambda_a4841af2b27d100227ba4fc38e1775c0>@@V?$allocator@H@std@@XPEAU?$WebSocket@$00@uWS@@UHttpRequest@5@@std@@EEAAX_N@Z 00000001800099a0 f i Group.obj
 0001:000089c0       ?_Get@?$_Func_impl@V<lambda_627f71350547a88590b856e4dc8f03a3>@@V?$allocator@H@std@@XPEAUHttpResponse@uWS@@@std@@EEBAPEBXXZ 00000001800099c0 f i addon.obj
 0001:000089c0       ?_Get@?$_Func_impl@V<lambda_c75e75b8ce235a770095cf5e3315fdec>@@V?$allocator@H@std@@XPEAU?$WebSocket@$0A@@uWS@@HPEAD_K@std@@EEBAPEBXXZ 00000001800099c0 f i addon.obj
 0001:000089c0       ?_Get@?$_Func_impl@V<lambda_1e1913856f7aaf7dc79da8070652544a>@@V?$allocator@H@std@@XPEAU?$WebSocket@$00@uWS@@HPEAD_K@std@@EEBAPEBXXZ 00000001800099c0 f i Group.obj
 0001:000089c0       ?_Get@?$_Func_impl@V<lambda_676b05d5fcd7eb23155de59028af8c84>@@V?$allocator@H@std@@XPEAU?$WebSocket@$0A@@uWS@@HPEAD_K@std@@EEBAPEBXXZ 00000001800099c0 f i Group.obj
 0001:000089c0       ?_Get@?$_Func_impl@V<lambda_47e56f5e9252a482bd9c0aa7befe2a4e>@@V?$allocator@H@std@@XPEAU?$WebSocket@$0A@@uWS@@PEAD_K@std@@EEBAPEBXXZ 00000001800099c0 f i addon.obj
 0001:000089c0       _Mtx_getconcrtcs           00000001800099c0 f i libcpmt:mutex.obj
 0001:000089c0       ?_Get@?$_Func_impl@V<lambda_5203bc642fa96e6a4d3687e7b4a8a1dd>@@V?$allocator@H@std@@XPEAU?$WebSocket@$0A@@uWS@@PEAD_K@std@@EEBAPEBXXZ 00000001800099c0 f i addon.obj
 0001:000089c0       ?_Get@?$_Func_impl@V<lambda_28546b2bf5fff94df39539b2c8fdbe8e>@@V?$allocator@H@std@@XPEAX@std@@EEBAPEBXXZ 00000001800099c0 f i Group.obj
 0001:000089c0       ?_Get@?$_Func_impl@V<lambda_fee28d472d968bf8cf28d0644c64f87f>@@V?$allocator@H@std@@XPEAUHttpResponse@uWS@@UHttpRequest@5@PEAD_K_K@std@@EEBAPEBXXZ 00000001800099c0 f i Group.obj
 0001:000089c0       ?_Get@?$_Func_impl@V<lambda_a4841af2b27d100227ba4fc38e1775c0>@@V?$allocator@H@std@@XPEAU?$WebSocket@$00@uWS@@UHttpRequest@5@@std@@EEBAPEBXXZ 00000001800099c0 f i Group.obj
 0001:000089c0       ?_Get@?$_Func_impl@V<lambda_faaa5f5890ff3be9fbce2836205fee3b>@@V?$allocator@H@std@@XPEAU?$WebSocket@$00@uWS@@UHttpRequest@5@@std@@EEBAPEBXXZ 00000001800099c0 f i addon.obj
 0001:000089c0       ?_Get@?$_Func_impl@V<lambda_a8ef02e52f510361621b8831e97d6fe5>@@V?$allocator@H@std@@XPEAUHttpResponse@uWS@@UHttpRequest@5@PEAD_K_K@std@@EEBAPEBXXZ 00000001800099c0 f i Group.obj
 0001:000089c0       ?_Get@?$_Func_impl@V<lambda_2ba66bc05ba93ca83268b0bf8e7eaaf7>@@V?$allocator@H@std@@XPEAU?$WebSocket@$00@uWS@@PEAD_K@std@@EEBAPEBXXZ 00000001800099c0 f i addon.obj
 0001:000089c0       ?_Get@?$_Func_impl@V<lambda_b966d8f42a0351f524477ccae8980970>@@V?$allocator@H@std@@XPEAU?$WebSocket@$00@uWS@@HPEAD_K@std@@EEBAPEBXXZ 00000001800099c0 f i addon.obj
 0001:000089c0       ?_Get@?$_Func_impl@V<lambda_adbdade2acdb425a95e1d65016bf1258>@@V?$allocator@H@std@@XPEAUHttpResponse@uWS@@UHttpRequest@5@PEAD_K_K@std@@EEBAPEBXXZ 00000001800099c0 f i addon.obj
 0001:000089c0       ?_Get@?$_Func_impl@V<lambda_2be8697520db48762f797b9c727a68ff>@@V?$allocator@H@std@@XPEAUHttpResponse@uWS@@PEAD_K_K@std@@EEBAPEBXXZ 00000001800099c0 f i Group.obj
 0001:000089c0       ?_Get@?$_Func_impl@V<lambda_2084e076f6151854c0db1be6acabce48>@@V?$allocator@H@std@@XPEAX@std@@EEBAPEBXXZ 00000001800099c0 f i addon.obj
 0001:000089c0       ?_Get@?$_Func_impl@V<lambda_1ea449dbbe6c4a9ff2706a11ec691fab>@@V?$allocator@H@std@@XPEAU?$WebSocket@$0A@@uWS@@PEAD_KW4OpCode@5@@std@@EEBAPEBXXZ 00000001800099c0 f i addon.obj
 0001:000089c0       ?_Get@?$_Func_impl@V<lambda_c6520c99f61bc482201622fd3ba6d6a8>@@V?$allocator@H@std@@XPEAU?$WebSocket@$00@uWS@@@std@@EEBAPEBXXZ 00000001800099c0 f i Group.obj
 0001:000089c0       ?_Get@?$_Func_impl@V<lambda_7434f3cae99d0dcd112468417ee977b0>@@V?$allocator@H@std@@XPEAU?$HttpSocket@$00@uWS@@@std@@EEBAPEBXXZ 00000001800099c0 f i Group.obj
 0001:000089c0       ?_Get@?$_Func_impl@V<lambda_192be0d4e8e564445903b882b614d20b>@@V?$allocator@H@std@@XPEAU?$HttpSocket@$0A@@uWS@@@std@@EEBAPEBXXZ 00000001800099c0 f i Group.obj
 0001:000089c0       ?_Get@?$_Func_impl@V<lambda_e5e8c2fb959005491ebaf75befe1e41f>@@V?$allocator@H@std@@XPEAU?$WebSocket@$00@uWS@@PEAD_KW4OpCode@5@@std@@EEBAPEBXXZ 00000001800099c0 f i Group.obj
 0001:000089c0       ?_Get@?$_Func_impl@V<lambda_4acf657190c75d6154df1f8279f608b3>@@V?$allocator@H@std@@XPEAU?$WebSocket@$00@uWS@@PEAD_KW4OpCode@5@@std@@EEBAPEBXXZ 00000001800099c0 f i addon.obj
 0001:000089c0       ?_Get@?$_Func_impl@V<lambda_8cc912af1f457cfea0d4ba1cc691c089>@@V?$allocator@H@std@@XH@std@@EEBAPEBXXZ 00000001800099c0 f i Group.obj
 0001:000089c0       ?_Get@?$_Func_impl@V<lambda_e97c96979ea8c6fefbbf0e4dbcda2be5>@@V?$allocator@H@std@@XPEAU?$HttpSocket@$0A@@uWS@@@std@@EEBAPEBXXZ 00000001800099c0 f i Group.obj
 0001:000089c0       ?_Get@?$_Func_impl@V<lambda_2348f224942daab74e5fd550b84d90ff>@@V?$allocator@H@std@@XPEAUHttpResponse@uWS@@PEAD_K_K@std@@EEBAPEBXXZ 00000001800099c0 f i addon.obj
 0001:000089c0       ?_Get@?$_Func_impl@V<lambda_14b7b541ae08ea1c954e985f6a5857b4>@@V?$allocator@H@std@@XPEAU?$WebSocket@$0A@@uWS@@PEAD_K@std@@EEBAPEBXXZ 00000001800099c0 f i Group.obj
 0001:000089c0       ?_Get@?$_Func_impl@V<lambda_be55859939e08d27a0fb932e2b03dde6>@@V?$allocator@H@std@@XPEAUHttpResponse@uWS@@@std@@EEBAPEBXXZ 00000001800099c0 f i Group.obj
 0001:000089c0       ?_Get@?$_Func_impl@V<lambda_a3ecdec81f70a9fe73dcb758a7fed5a7>@@V?$allocator@H@std@@XPEAU?$WebSocket@$00@uWS@@PEAD_K@std@@EEBAPEBXXZ 00000001800099c0 f i Group.obj
 0001:000089c0       ?_Get@?$_Func_impl@V<lambda_a9a913c8f103bffe7fddf72259ae7d5c>@@V?$allocator@H@std@@XPEAU?$WebSocket@$0A@@uWS@@PEAD_KW4OpCode@5@@std@@EEBAPEBXXZ 00000001800099c0 f i Group.obj
 0001:000089c0       ?_Get@?$_Func_impl@V<lambda_d881a2c7a1e94701640214c77e3dc049>@@V?$allocator@H@std@@XPEAU?$WebSocket@$0A@@uWS@@UHttpRequest@5@@std@@EEBAPEBXXZ 00000001800099c0 f i Group.obj
 0001:000089c0       ?_Get@?$_Func_impl@V<lambda_fadd044f7e86bc60b9387df73115f306>@@V?$allocator@H@std@@XPEAU?$WebSocket@$0A@@uWS@@UHttpRequest@5@@std@@EEBAPEBXXZ 00000001800099c0 f i addon.obj
 0001:000089c0       ?_Get@?$_Func_impl@V<lambda_44c2ae3261b8a3837fe161100d7627a5>@@V?$allocator@H@std@@XPEAU?$WebSocket@$0A@@uWS@@@std@@EEBAPEBXXZ 00000001800099c0 f i Group.obj
 0001:000089c0       ?_Get@?$_Func_impl@V<lambda_93c0d08600f8b6900f0f2f49a4d25d7a>@@V?$allocator@H@std@@XPEAU?$HttpSocket@$00@uWS@@@std@@EEBAPEBXXZ 00000001800099c0 f i Group.obj
 0001:000089c0       ?_Get@?$_Func_impl@V<lambda_f4f36bdfa1d4948f2a44b7caf93ba028>@@V?$allocator@H@std@@XPEAUHttpResponse@uWS@@@std@@EEBAPEBXXZ 00000001800099c0 f i Group.obj
 0001:000089c0       ?_Get@?$_Func_impl@V<lambda_90c955ed1fea1ab5aabbcf78f378525c>@@V?$allocator@H@std@@XPEAUHttpResponse@uWS@@PEAD_K_K@std@@EEBAPEBXXZ 00000001800099c0 f i Group.obj
 0001:000089c0       ?_Get@?$_Func_impl@V<lambda_06b3790a6438be8c984e27831cd7ebe1>@@V?$allocator@H@std@@XPEAU?$WebSocket@$00@uWS@@PEAD_K@std@@EEBAPEBXXZ 00000001800099c0 f i addon.obj
 0001:000089d0       ?_Target_type@?$_Func_impl@V<lambda_2be8697520db48762f797b9c727a68ff>@@V?$allocator@H@std@@XPEAUHttpResponse@uWS@@PEAD_K_K@std@@EEBAAEBVtype_info@@XZ 00000001800099d0 f i Group.obj
 0001:000089e0       ?_Move@?$_Func_impl@V<lambda_2be8697520db48762f797b9c727a68ff>@@V?$allocator@H@std@@XPEAUHttpResponse@uWS@@PEAD_K_K@std@@EEAAPEAV?$_Func_base@XPEAUHttpResponse@uWS@@PEAD_K_K@2@PEAX@Z 00000001800099e0 f i Group.obj
 0001:000089e0       ?_Copy@?$_Func_impl@V<lambda_2be8697520db48762f797b9c727a68ff>@@V?$allocator@H@std@@XPEAUHttpResponse@uWS@@PEAD_K_K@std@@EEBAPEAV?$_Func_base@XPEAUHttpResponse@uWS@@PEAD_K_K@2@PEAX@Z 00000001800099e0 f i Group.obj
 0001:00008a00       ?_Target_type@?$_Func_impl@V<lambda_be55859939e08d27a0fb932e2b03dde6>@@V?$allocator@H@std@@XPEAUHttpResponse@uWS@@@std@@EEBAAEBVtype_info@@XZ 0000000180009a00 f i Group.obj
 0001:00008a10       ?_Copy@?$_Func_impl@V<lambda_be55859939e08d27a0fb932e2b03dde6>@@V?$allocator@H@std@@XPEAUHttpResponse@uWS@@@std@@EEBAPEAV?$_Func_base@XPEAUHttpResponse@uWS@@@2@PEAX@Z 0000000180009a10 f i Group.obj
 0001:00008a10       ?_Move@?$_Func_impl@V<lambda_be55859939e08d27a0fb932e2b03dde6>@@V?$allocator@H@std@@XPEAUHttpResponse@uWS@@@std@@EEAAPEAV?$_Func_base@XPEAUHttpResponse@uWS@@@2@PEAX@Z 0000000180009a10 f i Group.obj
 0001:00008a30       ?_Target_type@?$_Func_impl@V<lambda_192be0d4e8e564445903b882b614d20b>@@V?$allocator@H@std@@XPEAU?$HttpSocket@$0A@@uWS@@@std@@EEBAAEBVtype_info@@XZ 0000000180009a30 f i Group.obj
 0001:00008a40       ?_Copy@?$_Func_impl@V<lambda_192be0d4e8e564445903b882b614d20b>@@V?$allocator@H@std@@XPEAU?$HttpSocket@$0A@@uWS@@@std@@EEBAPEAV?$_Func_base@XPEAU?$HttpSocket@$0A@@uWS@@@2@PEAX@Z 0000000180009a40 f i Group.obj
 0001:00008a40       ?_Move@?$_Func_impl@V<lambda_192be0d4e8e564445903b882b614d20b>@@V?$allocator@H@std@@XPEAU?$HttpSocket@$0A@@uWS@@@std@@EEAAPEAV?$_Func_base@XPEAU?$HttpSocket@$0A@@uWS@@@2@PEAX@Z 0000000180009a40 f i Group.obj
 0001:00008a60       ?_Target_type@?$_Func_impl@V<lambda_e97c96979ea8c6fefbbf0e4dbcda2be5>@@V?$allocator@H@std@@XPEAU?$HttpSocket@$0A@@uWS@@@std@@EEBAAEBVtype_info@@XZ 0000000180009a60 f i Group.obj
 0001:00008a70       ?_Move@?$_Func_impl@V<lambda_e97c96979ea8c6fefbbf0e4dbcda2be5>@@V?$allocator@H@std@@XPEAU?$HttpSocket@$0A@@uWS@@@std@@EEAAPEAV?$_Func_base@XPEAU?$HttpSocket@$0A@@uWS@@@2@PEAX@Z 0000000180009a70 f i Group.obj
 0001:00008a70       ?_Copy@?$_Func_impl@V<lambda_e97c96979ea8c6fefbbf0e4dbcda2be5>@@V?$allocator@H@std@@XPEAU?$HttpSocket@$0A@@uWS@@@std@@EEBAPEAV?$_Func_base@XPEAU?$HttpSocket@$0A@@uWS@@@2@PEAX@Z 0000000180009a70 f i Group.obj
 0001:00008a90       ?_Target_type@?$_Func_impl@V<lambda_fee28d472d968bf8cf28d0644c64f87f>@@V?$allocator@H@std@@XPEAUHttpResponse@uWS@@UHttpRequest@5@PEAD_K_K@std@@EEBAAEBVtype_info@@XZ 0000000180009a90 f i Group.obj
 0001:00008aa0       ?_Move@?$_Func_impl@V<lambda_fee28d472d968bf8cf28d0644c64f87f>@@V?$allocator@H@std@@XPEAUHttpResponse@uWS@@UHttpRequest@5@PEAD_K_K@std@@EEAAPEAV?$_Func_base@XPEAUHttpResponse@uWS@@UHttpRequest@2@PEAD_K_K@2@PEAX@Z 0000000180009aa0 f i Group.obj
 0001:00008aa0       ?_Copy@?$_Func_impl@V<lambda_fee28d472d968bf8cf28d0644c64f87f>@@V?$allocator@H@std@@XPEAUHttpResponse@uWS@@UHttpRequest@5@PEAD_K_K@std@@EEBAPEAV?$_Func_base@XPEAUHttpResponse@uWS@@UHttpRequest@2@PEAD_K_K@2@PEAX@Z 0000000180009aa0 f i Group.obj
 0001:00008ac0       ?_Target_type@?$_Func_impl@V<lambda_28546b2bf5fff94df39539b2c8fdbe8e>@@V?$allocator@H@std@@XPEAX@std@@EEBAAEBVtype_info@@XZ 0000000180009ac0 f i Group.obj
 0001:00008ad0       ?_Copy@?$_Func_impl@V<lambda_28546b2bf5fff94df39539b2c8fdbe8e>@@V?$allocator@H@std@@XPEAX@std@@EEBAPEAV?$_Func_base@XPEAX@2@PEAX@Z 0000000180009ad0 f i Group.obj
 0001:00008ad0       ?_Move@?$_Func_impl@V<lambda_28546b2bf5fff94df39539b2c8fdbe8e>@@V?$allocator@H@std@@XPEAX@std@@EEAAPEAV?$_Func_base@XPEAX@2@PEAX@Z 0000000180009ad0 f i Group.obj
 0001:00008af0       ?_Target_type@?$_Func_impl@V<lambda_14b7b541ae08ea1c954e985f6a5857b4>@@V?$allocator@H@std@@XPEAU?$WebSocket@$0A@@uWS@@PEAD_K@std@@EEBAAEBVtype_info@@XZ 0000000180009af0 f i Group.obj
 0001:00008b00       ?_Copy@?$_Func_impl@V<lambda_14b7b541ae08ea1c954e985f6a5857b4>@@V?$allocator@H@std@@XPEAU?$WebSocket@$0A@@uWS@@PEAD_K@std@@EEBAPEAV?$_Func_base@XPEAU?$WebSocket@$0A@@uWS@@PEAD_K@2@PEAX@Z 0000000180009b00 f i Group.obj
 0001:00008b00       ?_Move@?$_Func_impl@V<lambda_14b7b541ae08ea1c954e985f6a5857b4>@@V?$allocator@H@std@@XPEAU?$WebSocket@$0A@@uWS@@PEAD_K@std@@EEAAPEAV?$_Func_base@XPEAU?$WebSocket@$0A@@uWS@@PEAD_K@2@PEAX@Z 0000000180009b00 f i Group.obj
 0001:00008b20       ?_Target_type@?$_Func_impl@V<lambda_676b05d5fcd7eb23155de59028af8c84>@@V?$allocator@H@std@@XPEAU?$WebSocket@$0A@@uWS@@HPEAD_K@std@@EEBAAEBVtype_info@@XZ 0000000180009b20 f i Group.obj
 0001:00008b30       ?_Copy@?$_Func_impl@V<lambda_676b05d5fcd7eb23155de59028af8c84>@@V?$allocator@H@std@@XPEAU?$WebSocket@$0A@@uWS@@HPEAD_K@std@@EEBAPEAV?$_Func_base@XPEAU?$WebSocket@$0A@@uWS@@HPEAD_K@2@PEAX@Z 0000000180009b30 f i Group.obj
 0001:00008b30       ?_Move@?$_Func_impl@V<lambda_676b05d5fcd7eb23155de59028af8c84>@@V?$allocator@H@std@@XPEAU?$WebSocket@$0A@@uWS@@HPEAD_K@std@@EEAAPEAV?$_Func_base@XPEAU?$WebSocket@$0A@@uWS@@HPEAD_K@2@PEAX@Z 0000000180009b30 f i Group.obj
 0001:00008b50       ?_Target_type@?$_Func_impl@V<lambda_a9a913c8f103bffe7fddf72259ae7d5c>@@V?$allocator@H@std@@XPEAU?$WebSocket@$0A@@uWS@@PEAD_KW4OpCode@5@@std@@EEBAAEBVtype_info@@XZ 0000000180009b50 f i Group.obj
 0001:00008b60       ?_Move@?$_Func_impl@V<lambda_a9a913c8f103bffe7fddf72259ae7d5c>@@V?$allocator@H@std@@XPEAU?$WebSocket@$0A@@uWS@@PEAD_KW4OpCode@5@@std@@EEAAPEAV?$_Func_base@XPEAU?$WebSocket@$0A@@uWS@@PEAD_KW4OpCode@2@@2@PEAX@Z 0000000180009b60 f i Group.obj
 0001:00008b60       ?_Copy@?$_Func_impl@V<lambda_a9a913c8f103bffe7fddf72259ae7d5c>@@V?$allocator@H@std@@XPEAU?$WebSocket@$0A@@uWS@@PEAD_KW4OpCode@5@@std@@EEBAPEAV?$_Func_base@XPEAU?$WebSocket@$0A@@uWS@@PEAD_KW4OpCode@2@@2@PEAX@Z 0000000180009b60 f i Group.obj
 0001:00008b80       ?_Target_type@?$_Func_impl@V<lambda_44c2ae3261b8a3837fe161100d7627a5>@@V?$allocator@H@std@@XPEAU?$WebSocket@$0A@@uWS@@@std@@EEBAAEBVtype_info@@XZ 0000000180009b80 f i Group.obj
 0001:00008b90       ?_Copy@?$_Func_impl@V<lambda_44c2ae3261b8a3837fe161100d7627a5>@@V?$allocator@H@std@@XPEAU?$WebSocket@$0A@@uWS@@@std@@EEBAPEAV?$_Func_base@XPEAU?$WebSocket@$0A@@uWS@@@2@PEAX@Z 0000000180009b90 f i Group.obj
 0001:00008b90       ?_Move@?$_Func_impl@V<lambda_44c2ae3261b8a3837fe161100d7627a5>@@V?$allocator@H@std@@XPEAU?$WebSocket@$0A@@uWS@@@std@@EEAAPEAV?$_Func_base@XPEAU?$WebSocket@$0A@@uWS@@@2@PEAX@Z 0000000180009b90 f i Group.obj
 0001:00008bb0       ?_Target_type@?$_Func_impl@V<lambda_d881a2c7a1e94701640214c77e3dc049>@@V?$allocator@H@std@@XPEAU?$WebSocket@$0A@@uWS@@UHttpRequest@5@@std@@EEBAAEBVtype_info@@XZ 0000000180009bb0 f i Group.obj
 0001:00008bc0       ?_Move@?$_Func_impl@V<lambda_d881a2c7a1e94701640214c77e3dc049>@@V?$allocator@H@std@@XPEAU?$WebSocket@$0A@@uWS@@UHttpRequest@5@@std@@EEAAPEAV?$_Func_base@XPEAU?$WebSocket@$0A@@uWS@@UHttpRequest@2@@2@PEAX@Z 0000000180009bc0 f i Group.obj
 0001:00008bc0       ?_Copy@?$_Func_impl@V<lambda_d881a2c7a1e94701640214c77e3dc049>@@V?$allocator@H@std@@XPEAU?$WebSocket@$0A@@uWS@@UHttpRequest@5@@std@@EEBAPEAV?$_Func_base@XPEAU?$WebSocket@$0A@@uWS@@UHttpRequest@2@@2@PEAX@Z 0000000180009bc0 f i Group.obj
 0001:00008be0       ?_Target_type@?$_Func_impl@V<lambda_90c955ed1fea1ab5aabbcf78f378525c>@@V?$allocator@H@std@@XPEAUHttpResponse@uWS@@PEAD_K_K@std@@EEBAAEBVtype_info@@XZ 0000000180009be0 f i Group.obj
 0001:00008bf0       ?_Move@?$_Func_impl@V<lambda_90c955ed1fea1ab5aabbcf78f378525c>@@V?$allocator@H@std@@XPEAUHttpResponse@uWS@@PEAD_K_K@std@@EEAAPEAV?$_Func_base@XPEAUHttpResponse@uWS@@PEAD_K_K@2@PEAX@Z 0000000180009bf0 f i Group.obj
 0001:00008bf0       ?_Copy@?$_Func_impl@V<lambda_90c955ed1fea1ab5aabbcf78f378525c>@@V?$allocator@H@std@@XPEAUHttpResponse@uWS@@PEAD_K_K@std@@EEBAPEAV?$_Func_base@XPEAUHttpResponse@uWS@@PEAD_K_K@2@PEAX@Z 0000000180009bf0 f i Group.obj
 0001:00008c10       ?_Target_type@?$_Func_impl@V<lambda_f4f36bdfa1d4948f2a44b7caf93ba028>@@V?$allocator@H@std@@XPEAUHttpResponse@uWS@@@std@@EEBAAEBVtype_info@@XZ 0000000180009c10 f i Group.obj
 0001:00008c20       ?_Move@?$_Func_impl@V<lambda_f4f36bdfa1d4948f2a44b7caf93ba028>@@V?$allocator@H@std@@XPEAUHttpResponse@uWS@@@std@@EEAAPEAV?$_Func_base@XPEAUHttpResponse@uWS@@@2@PEAX@Z 0000000180009c20 f i Group.obj
 0001:00008c20       ?_Copy@?$_Func_impl@V<lambda_f4f36bdfa1d4948f2a44b7caf93ba028>@@V?$allocator@H@std@@XPEAUHttpResponse@uWS@@@std@@EEBAPEAV?$_Func_base@XPEAUHttpResponse@uWS@@@2@PEAX@Z 0000000180009c20 f i Group.obj
 0001:00008c40       ?_Target_type@?$_Func_impl@V<lambda_7434f3cae99d0dcd112468417ee977b0>@@V?$allocator@H@std@@XPEAU?$HttpSocket@$00@uWS@@@std@@EEBAAEBVtype_info@@XZ 0000000180009c40 f i Group.obj
 0001:00008c50       ?_Move@?$_Func_impl@V<lambda_7434f3cae99d0dcd112468417ee977b0>@@V?$allocator@H@std@@XPEAU?$HttpSocket@$00@uWS@@@std@@EEAAPEAV?$_Func_base@XPEAU?$HttpSocket@$00@uWS@@@2@PEAX@Z 0000000180009c50 f i Group.obj
 0001:00008c50       ?_Copy@?$_Func_impl@V<lambda_7434f3cae99d0dcd112468417ee977b0>@@V?$allocator@H@std@@XPEAU?$HttpSocket@$00@uWS@@@std@@EEBAPEAV?$_Func_base@XPEAU?$HttpSocket@$00@uWS@@@2@PEAX@Z 0000000180009c50 f i Group.obj
 0001:00008c70       ?_Target_type@?$_Func_impl@V<lambda_93c0d08600f8b6900f0f2f49a4d25d7a>@@V?$allocator@H@std@@XPEAU?$HttpSocket@$00@uWS@@@std@@EEBAAEBVtype_info@@XZ 0000000180009c70 f i Group.obj
 0001:00008c80       ?_Copy@?$_Func_impl@V<lambda_93c0d08600f8b6900f0f2f49a4d25d7a>@@V?$allocator@H@std@@XPEAU?$HttpSocket@$00@uWS@@@std@@EEBAPEAV?$_Func_base@XPEAU?$HttpSocket@$00@uWS@@@2@PEAX@Z 0000000180009c80 f i Group.obj
 0001:00008c80       ?_Move@?$_Func_impl@V<lambda_93c0d08600f8b6900f0f2f49a4d25d7a>@@V?$allocator@H@std@@XPEAU?$HttpSocket@$00@uWS@@@std@@EEAAPEAV?$_Func_base@XPEAU?$HttpSocket@$00@uWS@@@2@PEAX@Z 0000000180009c80 f i Group.obj
 0001:00008ca0       ?_Target_type@?$_Func_impl@V<lambda_a8ef02e52f510361621b8831e97d6fe5>@@V?$allocator@H@std@@XPEAUHttpResponse@uWS@@UHttpRequest@5@PEAD_K_K@std@@EEBAAEBVtype_info@@XZ 0000000180009ca0 f i Group.obj
 0001:00008cb0       ?_Move@?$_Func_impl@V<lambda_a8ef02e52f510361621b8831e97d6fe5>@@V?$allocator@H@std@@XPEAUHttpResponse@uWS@@UHttpRequest@5@PEAD_K_K@std@@EEAAPEAV?$_Func_base@XPEAUHttpResponse@uWS@@UHttpRequest@2@PEAD_K_K@2@PEAX@Z 0000000180009cb0 f i Group.obj
 0001:00008cb0       ?_Copy@?$_Func_impl@V<lambda_a8ef02e52f510361621b8831e97d6fe5>@@V?$allocator@H@std@@XPEAUHttpResponse@uWS@@UHttpRequest@5@PEAD_K_K@std@@EEBAPEAV?$_Func_base@XPEAUHttpResponse@uWS@@UHttpRequest@2@PEAD_K_K@2@PEAX@Z 0000000180009cb0 f i Group.obj
 0001:00008cd0       ?_Target_type@?$_Func_impl@V<lambda_8cc912af1f457cfea0d4ba1cc691c089>@@V?$allocator@H@std@@XH@std@@EEBAAEBVtype_info@@XZ 0000000180009cd0 f i Group.obj
 0001:00008ce0       ?_Copy@?$_Func_impl@V<lambda_8cc912af1f457cfea0d4ba1cc691c089>@@V?$allocator@H@std@@XH@std@@EEBAPEAV?$_Func_base@XH@2@PEAX@Z 0000000180009ce0 f i Group.obj
 0001:00008ce0       ?_Move@?$_Func_impl@V<lambda_8cc912af1f457cfea0d4ba1cc691c089>@@V?$allocator@H@std@@XH@std@@EEAAPEAV?$_Func_base@XH@2@PEAX@Z 0000000180009ce0 f i Group.obj
 0001:00008d00       ?_Target_type@?$_Func_impl@V<lambda_a3ecdec81f70a9fe73dcb758a7fed5a7>@@V?$allocator@H@std@@XPEAU?$WebSocket@$00@uWS@@PEAD_K@std@@EEBAAEBVtype_info@@XZ 0000000180009d00 f i Group.obj
 0001:00008d10       ?_Copy@?$_Func_impl@V<lambda_a3ecdec81f70a9fe73dcb758a7fed5a7>@@V?$allocator@H@std@@XPEAU?$WebSocket@$00@uWS@@PEAD_K@std@@EEBAPEAV?$_Func_base@XPEAU?$WebSocket@$00@uWS@@PEAD_K@2@PEAX@Z 0000000180009d10 f i Group.obj
 0001:00008d10       ?_Move@?$_Func_impl@V<lambda_a3ecdec81f70a9fe73dcb758a7fed5a7>@@V?$allocator@H@std@@XPEAU?$WebSocket@$00@uWS@@PEAD_K@std@@EEAAPEAV?$_Func_base@XPEAU?$WebSocket@$00@uWS@@PEAD_K@2@PEAX@Z 0000000180009d10 f i Group.obj
 0001:00008d30       ?_Target_type@?$_Func_impl@V<lambda_1e1913856f7aaf7dc79da8070652544a>@@V?$allocator@H@std@@XPEAU?$WebSocket@$00@uWS@@HPEAD_K@std@@EEBAAEBVtype_info@@XZ 0000000180009d30 f i Group.obj
 0001:00008d40       ?_Move@?$_Func_impl@V<lambda_1e1913856f7aaf7dc79da8070652544a>@@V?$allocator@H@std@@XPEAU?$WebSocket@$00@uWS@@HPEAD_K@std@@EEAAPEAV?$_Func_base@XPEAU?$WebSocket@$00@uWS@@HPEAD_K@2@PEAX@Z 0000000180009d40 f i Group.obj
 0001:00008d40       ?_Copy@?$_Func_impl@V<lambda_1e1913856f7aaf7dc79da8070652544a>@@V?$allocator@H@std@@XPEAU?$WebSocket@$00@uWS@@HPEAD_K@std@@EEBAPEAV?$_Func_base@XPEAU?$WebSocket@$00@uWS@@HPEAD_K@2@PEAX@Z 0000000180009d40 f i Group.obj
 0001:00008d60       ?_Target_type@?$_Func_impl@V<lambda_e5e8c2fb959005491ebaf75befe1e41f>@@V?$allocator@H@std@@XPEAU?$WebSocket@$00@uWS@@PEAD_KW4OpCode@5@@std@@EEBAAEBVtype_info@@XZ 0000000180009d60 f i Group.obj
 0001:00008d70       ?_Copy@?$_Func_impl@V<lambda_e5e8c2fb959005491ebaf75befe1e41f>@@V?$allocator@H@std@@XPEAU?$WebSocket@$00@uWS@@PEAD_KW4OpCode@5@@std@@EEBAPEAV?$_Func_base@XPEAU?$WebSocket@$00@uWS@@PEAD_KW4OpCode@2@@2@PEAX@Z 0000000180009d70 f i Group.obj
 0001:00008d70       ?_Move@?$_Func_impl@V<lambda_e5e8c2fb959005491ebaf75befe1e41f>@@V?$allocator@H@std@@XPEAU?$WebSocket@$00@uWS@@PEAD_KW4OpCode@5@@std@@EEAAPEAV?$_Func_base@XPEAU?$WebSocket@$00@uWS@@PEAD_KW4OpCode@2@@2@PEAX@Z 0000000180009d70 f i Group.obj
 0001:00008d90       ?_Target_type@?$_Func_impl@V<lambda_c6520c99f61bc482201622fd3ba6d6a8>@@V?$allocator@H@std@@XPEAU?$WebSocket@$00@uWS@@@std@@EEBAAEBVtype_info@@XZ 0000000180009d90 f i Group.obj
 0001:00008da0       ?_Move@?$_Func_impl@V<lambda_c6520c99f61bc482201622fd3ba6d6a8>@@V?$allocator@H@std@@XPEAU?$WebSocket@$00@uWS@@@std@@EEAAPEAV?$_Func_base@XPEAU?$WebSocket@$00@uWS@@@2@PEAX@Z 0000000180009da0 f i Group.obj
 0001:00008da0       ?_Copy@?$_Func_impl@V<lambda_c6520c99f61bc482201622fd3ba6d6a8>@@V?$allocator@H@std@@XPEAU?$WebSocket@$00@uWS@@@std@@EEBAPEAV?$_Func_base@XPEAU?$WebSocket@$00@uWS@@@2@PEAX@Z 0000000180009da0 f i Group.obj
 0001:00008dc0       ?_Target_type@?$_Func_impl@V<lambda_a4841af2b27d100227ba4fc38e1775c0>@@V?$allocator@H@std@@XPEAU?$WebSocket@$00@uWS@@UHttpRequest@5@@std@@EEBAAEBVtype_info@@XZ 0000000180009dc0 f i Group.obj
 0001:00008dd0       ?_Copy@?$_Func_impl@V<lambda_a4841af2b27d100227ba4fc38e1775c0>@@V?$allocator@H@std@@XPEAU?$WebSocket@$00@uWS@@UHttpRequest@5@@std@@EEBAPEAV?$_Func_base@XPEAU?$WebSocket@$00@uWS@@UHttpRequest@2@@2@PEAX@Z 0000000180009dd0 f i Group.obj
 0001:00008dd0       ?_Move@?$_Func_impl@V<lambda_a4841af2b27d100227ba4fc38e1775c0>@@V?$allocator@H@std@@XPEAU?$WebSocket@$00@uWS@@UHttpRequest@5@@std@@EEAAPEAV?$_Func_base@XPEAU?$WebSocket@$00@uWS@@UHttpRequest@2@@2@PEAX@Z 0000000180009dd0 f i Group.obj
 0001:00008df0       ?GetDefaultDestination@VirtualProcessor@details@Concurrency@@UEAAPEAUIExecutionContext@3@XZ 0000000180009df0 f i libconcrt:VirtualProcessor.obj
 0001:00008df0       ?GetContextKind@ExternalContextBase@details@Concurrency@@EEBA?AW4ContextKind@ContextBase@23@XZ 0000000180009df0 f i libconcrt:ExternalContextBase.obj
 0001:00008df0       ?EnterCriticalRegion@ContextBase@details@Concurrency@@QEAAHXZ 0000000180009df0 f i libconcrt:ContextBase.obj
 0001:00008df0       ?PreRunnableSearch@VirtualProcessor@details@Concurrency@@UEAAPEAVInternalContextBase@23@XZ 0000000180009df0 f i libconcrt:VirtualProcessor.obj
 0001:00008df0       ?ExitCriticalRegion@ContextBase@details@Concurrency@@QEAAHXZ 0000000180009df0 f i libconcrt:ContextBase.obj
 0001:00008df0       ?showmanyc@?$basic_streambuf@DU?$char_traits@D@std@@@std@@MEAA_JXZ 0000000180009df0 f i libcpmt:cout.obj
 0001:00008df0       ?_Get_deleter@_Ref_count_base@std@@UEBAPEAXAEBVtype_info@@@Z 0000000180009df0 f i Networking.obj
 0001:00008df0       ?ExitHyperCriticalRegion@ContextBase@details@Concurrency@@QEAAHXZ 0000000180009df0 f i libconcrt:ContextBase.obj
 0001:00008df0       ?EnterHyperCriticalRegion@ContextBase@details@Concurrency@@QEAAHXZ 0000000180009df0 f i libconcrt:ContextBase.obj
 0001:00008df0       ?sync@?$basic_streambuf@DU?$char_traits@D@std@@@std@@MEAAHXZ 0000000180009df0 f i libcpmt:cout.obj
 0001:00008e00       ??_G_Ref_count_base@std@@UEAAPEAXI@Z 0000000180009e00 f i Networking.obj
 0001:00008e00       ??_E_Ref_count_base@std@@UEAAPEAXI@Z 0000000180009e00 f i * CIL library *:* CIL module *
 0001:00008e30       ??0Context@TLS@uS@@QEAA@AEBV012@@Z 0000000180009e30 f   Networking.obj
 0001:00008e60       ??4Context@TLS@uS@@QEAAAEAV012@AEBV012@@Z 0000000180009e60 f   Networking.obj
 0001:00008e80       ??1Context@TLS@uS@@QEAA@XZ 0000000180009e80 f   Networking.obj
 0001:00008eb0       ?createContext@TLS@uS@@YA?AVContext@12@V?$basic_string@DU?$char_traits@D@std@@V?$allocator@D@2@@std@@00@Z 0000000180009eb0 f   Networking.obj
 0001:000090b0       ?_Delete_this@?$_Ref_count@V?$basic_string@DU?$char_traits@D@std@@V?$allocator@D@2@@std@@@std@@EEAAXXZ 000000018000a0b0 f i Networking.obj
 0001:000090d0       ?_Destroy@?$_Ref_count@V?$basic_string@DU?$char_traits@D@std@@V?$allocator@D@2@@std@@@std@@EEAAXXZ 000000018000a0d0 f i Networking.obj
 0001:00009130       ??_E?$_Ref_count@V?$basic_string@DU?$char_traits@D@std@@V?$allocator@D@2@@std@@@std@@UEAAPEAXI@Z 000000018000a130 f i * CIL library *:* CIL module *
 0001:00009130       ??_E?$_Ref_count@V__ExceptionPtr@@@std@@UEAAPEAXI@Z 000000018000a130 f i libcpmt:excptptr.obj
 0001:00009130       ??_G?$_Ref_count@V__ExceptionPtr@@@std@@UEAAPEAXI@Z 000000018000a130 f i libcpmt:excptptr.obj
 0001:00009130       ??_G?$_Ref_count@V?$basic_string@DU?$char_traits@D@std@@V?$allocator@D@2@@std@@@std@@UEAAPEAXI@Z 000000018000a130 f i Networking.obj
 0001:00009160       ?inflate@Hub@uWS@@IEAAPEADPEADAEA_K_K@Z 000000018000a160 f   Hub.obj
 0001:000092b0       ?onServerAccept@Hub@uWS@@KAXPEAUSocket@uS@@@Z 000000018000a2b0 f   Hub.obj
 0001:00009410       ?onClientConnection@Hub@uWS@@KAXPEAUSocket@uS@@_N@Z 000000018000a410 f   Hub.obj
 0001:000094d0       ?listen@Hub@uWS@@QEAA_NPEBDHVContext@TLS@uS@@HPEAU?$Group@$00@2@@Z 000000018000a4d0 f   Hub.obj
 0001:000095c0       ?listen@Hub@uWS@@QEAA_NHVContext@TLS@uS@@HPEAU?$Group@$00@2@@Z 000000018000a5c0 f   Hub.obj
 0001:00009640       ?allocateHttpSocket@uWS@@YAPEAUSocket@uS@@PEAU23@@Z 000000018000a640 f   Hub.obj
 0001:000096e0       ?connect@Hub@uWS@@QEAAXV?$basic_string@DU?$char_traits@D@std@@V?$allocator@D@2@@std@@PEAXV?$map@V?$basic_string@DU?$char_traits@D@std@@V?$allocator@D@2@@std@@V12@U?$less@V?$basic_string@DU?$char_traits@D@std@@V?$allocator@D@2@@std@@@2@V?$allocator@U?$pair@$$CBV?$basic_string@DU?$char_traits@D@std@@V?$allocator@D@2@@std@@V12@@std@@@2@@4@HPEAU?$Group@$0A@@2@@Z 000000018000a6e0 f   Hub.obj
 0001:0000a1f0       ??1?$pair@V?$basic_string@DU?$char_traits@D@std@@V?$allocator@D@2@@std@@V12@@std@@QEAA@XZ 000000018000b1f0 f i Hub.obj
 0001:0000a270       ?upgrade@Hub@uWS@@QEAAX_KPEBDPEAUssl_st@@1010PEAU?$Group@$00@2@@Z 000000018000b270 f   Hub.obj
 0001:0000a590       ??_G?$HttpSocket@$0A@@uWS@@QEAAPEAXI@Z 000000018000b590 f i HTTPSocket.obj
 0001:0000a590       ??_G?$HttpSocket@$00@uWS@@QEAAPEAXI@Z 000000018000b590 f i Hub.obj
 0001:0000a600       ??0?$WebSocket@$00@uWS@@IEAA@_NPEAUSocket@uS@@@Z 000000018000b600 f i Hub.obj
 0001:0000a690       ??0?$HttpSocket@$0A@@uWS@@QEAA@PEAUSocket@uS@@@Z 000000018000b690 f i Hub.obj
 0001:0000a690       ??0?$HttpSocket@$00@uWS@@QEAA@PEAUSocket@uS@@@Z 000000018000b690 f i Hub.obj
 0001:0000a710       ?find_first_of@?$basic_string@DU?$char_traits@D@std@@V?$allocator@D@2@@std@@QEBA_KPEBD_K1@Z 000000018000b710 f i Hub.obj
 0001:0000a7c0       ?find@?$basic_string@DU?$char_traits@D@std@@V?$allocator@D@2@@std@@QEBA_KPEBD_K1@Z 000000018000b7c0 f i Hub.obj
 0001:0000a8b0       ?assign@?$basic_string@DU?$char_traits@D@std@@V?$allocator@D@2@@std@@QEAAAEAV12@PEBD_K@Z 000000018000b8b0 f i Hub.obj
 0001:0000a9f0       ?erase@?$_Tree@V?$_Tmap_traits@V?$basic_string@DU?$char_traits@D@std@@V?$allocator@D@2@@std@@V12@U?$less@V?$basic_string@DU?$char_traits@D@std@@V?$allocator@D@2@@std@@@2@V?$allocator@U?$pair@$$CBV?$basic_string@DU?$char_traits@D@std@@V?$allocator@D@2@@std@@V12@@std@@@2@$0A@@std@@@std@@QEAA?AV?$_Tree_iterator@V?$_Tree_val@U?$_Tree_simple_types@U?$pair@$$CBV?$basic_string@DU?$char_traits@D@std@@V?$allocator@D@2@@std@@V12@@std@@@std@@@std@@@2@V?$_Tree_const_iterator@V?$_Tree_val@U?$_Tree_simple_types@U?$pair@$$CBV?$basic_string@DU?$char_traits@D@std@@V?$allocator@D@2@@std@@V12@@std@@@std@@@std@@@2@0@Z 000000018000b9f0 f i Hub.obj
 0001:0000aaf0       ?erase@?$_Tree@V?$_Tmap_traits@V?$basic_string@DU?$char_traits@D@std@@V?$allocator@D@2@@std@@V12@U?$less@V?$basic_string@DU?$char_traits@D@std@@V?$allocator@D@2@@std@@@2@V?$allocator@U?$pair@$$CBV?$basic_string@DU?$char_traits@D@std@@V?$allocator@D@2@@std@@V12@@std@@@2@$0A@@std@@@std@@QEAA?AV?$_Tree_iterator@V?$_Tree_val@U?$_Tree_simple_types@U?$pair@$$CBV?$basic_string@DU?$char_traits@D@std@@V?$allocator@D@2@@std@@V12@@std@@@std@@@std@@@2@V?$_Tree_const_iterator@V?$_Tree_val@U?$_Tree_simple_types@U?$pair@$$CBV?$basic_string@DU?$char_traits@D@std@@V?$allocator@D@2@@std@@V12@@std@@@std@@@std@@@2@@Z 000000018000baf0 f i Hub.obj
 0001:0000b020       ?_Rrotate@?$_Tree@V?$_Tmap_traits@V?$basic_string@DU?$char_traits@D@std@@V?$allocator@D@2@@std@@V12@U?$less@V?$basic_string@DU?$char_traits@D@std@@V?$allocator@D@2@@std@@@2@V?$allocator@U?$pair@$$CBV?$basic_string@DU?$char_traits@D@std@@V?$allocator@D@2@@std@@V12@@std@@@2@$0A@@std@@@std@@IEAAXPEAU?$_Tree_node@U?$pair@$$CBV?$basic_string@DU?$char_traits@D@std@@V?$allocator@D@2@@std@@V12@@std@@PEAX@2@@Z 000000018000c020 f i Hub.obj
 0001:0000b080       ?_Lrotate@?$_Tree@V?$_Tmap_traits@V?$basic_string@DU?$char_traits@D@std@@V?$allocator@D@2@@std@@V12@U?$less@V?$basic_string@DU?$char_traits@D@std@@V?$allocator@D@2@@std@@@2@V?$allocator@U?$pair@$$CBV?$basic_string@DU?$char_traits@D@std@@V?$allocator@D@2@@std@@V12@@std@@@2@$0A@@std@@@std@@IEAAXPEAU?$_Tree_node@U?$pair@$$CBV?$basic_string@DU?$char_traits@D@std@@V?$allocator@D@2@@std@@V12@@std@@PEAX@2@@Z 000000018000c080 f i Hub.obj
 0001:0000b0e0       ?_Erase@?$_Tree@V?$_Tmap_traits@V?$basic_string@DU?$char_traits@D@std@@V?$allocator@D@2@@std@@V12@U?$less@V?$basic_string@DU?$char_traits@D@std@@V?$allocator@D@2@@std@@@2@V?$allocator@U?$pair@$$CBV?$basic_string@DU?$char_traits@D@std@@V?$allocator@D@2@@std@@V12@@std@@@2@$0A@@std@@@std@@IEAAXPEAU?$_Tree_node@U?$pair@$$CBV?$basic_string@DU?$char_traits@D@std@@V?$allocator@D@2@@std@@V12@@std@@PEAX@2@@Z 000000018000c0e0 f i Hub.obj
 0001:0000b250       ??$_Integral_to_string@DH@std@@YA?AV?$basic_string@DU?$char_traits@D@std@@V?$allocator@D@2@@0@H@Z 000000018000c250 f i Hub.obj
 0001:0000b330       ??$listen@$1?onServerAccept@Hub@uWS@@KAXPEAUSocket@uS@@@Z@Node@uS@@QEAA_NPEBDHVContext@TLS@1@HPEAUNodeData@1@PEAX@Z 000000018000c330 f i Hub.obj
 0001:0000b7b0       ??$connect@$1?allocateHttpSocket@uWS@@YAPEAUSocket@uS@@PEAU34@@Z$1?onClientConnection@Hub@2@KAX0_N@Z@Node@uS@@QEAAPEAUSocket@1@PEBDH_NPEAUNodeData@1@@Z 000000018000c7b0 f i Hub.obj
 0001:0000ba30       ??$?HDU?$char_traits@D@std@@V?$allocator@D@1@@std@@YA?AV?$basic_string@DU?$char_traits@D@std@@V?$allocator@D@2@@0@AEBV10@PEBD@Z 000000018000ca30 f i Hub.obj
 0001:0000bad0       ??$sslIoHandler@U?$HttpSocket@$00@uWS@@@Socket@uS@@KAXPEAUPoll@@HH@Z 000000018000cad0 f i Hub.obj
 0001:0000bcf0       ??$ioHandler@U?$HttpSocket@$00@uWS@@@Socket@uS@@KAXPEAUPoll@@HH@Z 000000018000ccf0 f i Hub.obj
 0001:0000be70       ??$sslIoHandler@U?$HttpSocket@$0A@@uWS@@@Socket@uS@@KAXPEAUPoll@@HH@Z 000000018000ce70 f i Hub.obj
 0001:0000c090       ??$ioHandler@U?$HttpSocket@$0A@@uWS@@@Socket@uS@@KAXPEAUPoll@@HH@Z 000000018000d090 f i Hub.obj
 0001:0000c210       ??$accept_poll_cb@$1?onServerAccept@Hub@uWS@@KAXPEAUSocket@uS@@@Z@Node@uS@@CAXPEAUPoll@@HH@Z 000000018000d210 f i Hub.obj
 0001:0000c220       ??$connect_cb@$1?onClientConnection@Hub@uWS@@KAXPEAUSocket@uS@@_N@Z@Node@uS@@CAXPEAUPoll@@HH@Z 000000018000d220 f i Hub.obj
 0001:0000c230       ??$sslIoHandler@U?$WebSocket@$00@uWS@@@Socket@uS@@KAXPEAUPoll@@HH@Z 000000018000d230 f i Hub.obj
 0001:0000c450       ??$ioHandler@U?$WebSocket@$00@uWS@@@Socket@uS@@KAXPEAUPoll@@HH@Z 000000018000d450 f i Hub.obj
 0001:0000c5f0       ??$accept_cb@$1?onServerAccept@Hub@uWS@@KAXPEAUSocket@uS@@@Z$0A@@Node@uS@@CAXPEAUListenSocket@1@@Z 000000018000d5f0 f i Hub.obj
 0001:0000c790       ??$accept_timer_cb@$1?onServerAccept@Hub@uWS@@KAXPEAUSocket@uS@@@Z@Node@uS@@CAXPEAUTimer@@@Z 000000018000d790 f i Hub.obj
 0001:0000c7a0       ??$accept_cb@$1?onServerAccept@Hub@uWS@@KAXPEAUSocket@uS@@@Z$00@Node@uS@@CAXPEAUListenSocket@1@@Z 000000018000d7a0 f i Hub.obj
 0001:0000c930       ?asyncCallback@NodeData@uS@@SAXPEAUAsync@@@Z 000000018000d930 f   Node.obj
 0001:0000caf0       ??0Node@uS@@QEAA@HHH_N@Z   000000018000daf0 f   Node.obj
 0001:0000cce0       ?run@Node@uS@@QEAAXXZ      000000018000dce0 f   Node.obj
 0001:0000cd10       ??1Node@uS@@QEAA@XZ        000000018000dd10 f   Node.obj
 0001:0000cf10       ntohll                     000000018000df10 f i WebSocket.obj
 0001:0000cfa0       ?send@?$WebSocket@$0A@@uWS@@QEAAXPEBDW4OpCode@2@@Z 000000018000dfa0 f i WebSocket.obj
 0001:0000cfe0       ?ping@?$WebSocket@$0A@@uWS@@QEAAXPEBD@Z 000000018000dfe0 f i WebSocket.obj
 0001:0000d020       ?forceClose@?$WebSocket@$0A@@uWS@@KAXPEAU?$WebSocketState@$0A@@2@@Z 000000018000e020 f i WebSocket.obj
 0001:0000d040       ?setCompressed@?$WebSocket@$0A@@uWS@@KA_NPEAU?$WebSocketState@$0A@@2@@Z 000000018000e040 f i WebSocket.obj
 0001:0000d070       ?refusePayloadLength@?$WebSocket@$00@uWS@@KA_N_KPEAU?$WebSocketState@$00@2@@Z 000000018000e070 f i WebSocket.obj
 0001:0000d070       ?refusePayloadLength@?$WebSocket@$0A@@uWS@@KA_N_KPEAU?$WebSocketState@$0A@@2@@Z 000000018000e070 f i WebSocket.obj
 0001:0000d0a0       ??0?$WebSocket@$0A@@uWS@@IEAA@_NPEAUSocket@uS@@@Z 000000018000e0a0 f i WebSocket.obj
 0001:0000d130       ?send@?$WebSocket@$00@uWS@@QEAAXPEBDW4OpCode@2@@Z 000000018000e130 f i WebSocket.obj
 0001:0000d170       ?ping@?$WebSocket@$00@uWS@@QEAAXPEBD@Z 000000018000e170 f i WebSocket.obj
 0001:0000d1b0       ?forceClose@?$WebSocket@$00@uWS@@KAXPEAU?$WebSocketState@$00@2@@Z 000000018000e1b0 f i WebSocket.obj
 0001:0000d1d0       ?setCompressed@?$WebSocket@$00@uWS@@KA_NPEAU?$WebSocketState@$00@2@@Z 000000018000e1d0 f i WebSocket.obj
 0001:0000d200       ?append@?$basic_string@DU?$char_traits@D@std@@V?$allocator@D@2@@std@@QEAAAEAV12@_KD@Z 000000018000e200 f i WebSocket.obj
 0001:0000d310       ?onData@?$WebSocket@$00@uWS@@KAPEAUSocket@uS@@PEAU34@PEAD_K@Z 000000018000e310 f i WebSocket.obj
 0001:0000d350       ?onEnd@?$WebSocket@$00@uWS@@KAXPEAUSocket@uS@@@Z 000000018000e350 f i WebSocket.obj
 0001:0000d490       ?handleFragment@?$WebSocket@$00@uWS@@KA_NPEAD_KIH_NPEAU?$WebSocketState@$00@2@@Z 000000018000e490 f i WebSocket.obj
 0001:0000d950       ?sendPrepared@?$WebSocket@$00@uWS@@QEAAXPEAUPreparedMessage@12@PEAX@Z 000000018000e950 f i WebSocket.obj
 0001:0000d950       ?sendPrepared@?$WebSocket@$0A@@uWS@@QEAAXPEAUPreparedMessage@12@PEAX@Z 000000018000e950 f i WebSocket.obj
 0001:0000dab0       ?finalizeMessage@?$WebSocket@$00@uWS@@SAXPEAUPreparedMessage@12@@Z 000000018000eab0 f i WebSocket.obj
 0001:0000dab0       ?finalizeMessage@?$WebSocket@$0A@@uWS@@SAXPEAUPreparedMessage@12@@Z 000000018000eab0 f i WebSocket.obj
 0001:0000dae0       ?close@?$WebSocket@$00@uWS@@QEAAXHPEBD_K@Z 000000018000eae0 f i WebSocket.obj
 0001:0000dc90       ?transfer@?$WebSocket@$00@uWS@@QEAAXPEAU?$Group@$00@2@@Z 000000018000ec90 f i WebSocket.obj
 0001:0000dc90       ?transfer@?$WebSocket@$0A@@uWS@@QEAAXPEAU?$Group@$0A@@2@@Z 000000018000ec90 f i WebSocket.obj
 0001:0000ddb0       ?terminate@?$WebSocket@$00@uWS@@QEAAXXZ 000000018000edb0 f i WebSocket.obj
 0001:0000ddc0       ?send@?$WebSocket@$00@uWS@@QEAAXPEBD_KW4OpCode@2@P6AXPEAU12@PEAX_N4@Z4@Z 000000018000edc0 f i WebSocket.obj
 0001:0000dde0       ?prepareMessage@?$WebSocket@$00@uWS@@SAPEAUPreparedMessage@12@PEAD_KW4OpCode@2@_NP6AXPEAU12@PEAX35@Z@Z 000000018000ede0 f i WebSocket.obj
 0001:0000de70       ?prepareMessageBatch@?$WebSocket@$00@uWS@@SAPEAUPreparedMessage@12@AEAV?$vector@V?$basic_string@DU?$char_traits@D@std@@V?$allocator@D@2@@std@@V?$allocator@V?$basic_string@DU?$char_traits@D@std@@V?$allocator@D@2@@std@@@2@@std@@AEAV?$vector@HV?$allocator@H@std@@@5@W4OpCode@2@_NP6AXPEAU12@PEAX35@Z@Z 000000018000ee70 f i WebSocket.obj
 0001:0000e050       ?onData@?$WebSocket@$0A@@uWS@@KAPEAUSocket@uS@@PEAU34@PEAD_K@Z 000000018000f050 f i WebSocket.obj
 0001:0000e090       ?onEnd@?$WebSocket@$0A@@uWS@@KAXPEAUSocket@uS@@@Z 000000018000f090 f i WebSocket.obj
 0001:0000e1d0       ?handleFragment@?$WebSocket@$0A@@uWS@@KA_NPEAD_KIH_NPEAU?$WebSocketState@$0A@@2@@Z 000000018000f1d0 f i WebSocket.obj
 0001:0000e680       ?close@?$WebSocket@$0A@@uWS@@QEAAXHPEBD_K@Z 000000018000f680 f i WebSocket.obj
 0001:0000e7e0       ?terminate@?$WebSocket@$0A@@uWS@@QEAAXXZ 000000018000f7e0 f i WebSocket.obj
 0001:0000e7f0       ?send@?$WebSocket@$0A@@uWS@@QEAAXPEBD_KW4OpCode@2@P6AXPEAU12@PEAX_N4@Z4@Z 000000018000f7f0 f i WebSocket.obj
 0001:0000e810       ?prepareMessage@?$WebSocket@$0A@@uWS@@SAPEAUPreparedMessage@12@PEAD_KW4OpCode@2@_NP6AXPEAU12@PEAX35@Z@Z 000000018000f810 f i WebSocket.obj
 0001:0000e8a0       ?prepareMessageBatch@?$WebSocket@$0A@@uWS@@SAPEAUPreparedMessage@12@AEAV?$vector@V?$basic_string@DU?$char_traits@D@std@@V?$allocator@D@2@@std@@V?$allocator@V?$basic_string@DU?$char_traits@D@std@@V?$allocator@D@2@@std@@@2@@std@@AEAV?$vector@HV?$allocator@H@std@@@5@W4OpCode@2@_NP6AXPEAU12@PEAX35@Z@Z 000000018000f8a0 f i WebSocket.obj
 0001:0000ea80       ?consume@?$WebSocketProtocol@$0A@U?$WebSocket@$0A@@uWS@@@uWS@@SAXPEADIPEAU?$WebSocketState@$0A@@2@@Z 000000018000fa80 f i WebSocket.obj
 0001:0000ec20       ?formatMessage@?$WebSocketProtocol@$0A@U?$WebSocket@$0A@@uWS@@@uWS@@SA_KPEADPEBD_KW4OpCode@2@2_N@Z 000000018000fc20 f i WebSocket.obj
 0001:0000edc0       ?formatClosePayload@?$WebSocketProtocol@$0A@U?$WebSocket@$0A@@uWS@@@uWS@@SA_KPEADGPEBD_K@Z 000000018000fdc0 f i WebSocket.obj
 0001:0000edc0       ?formatClosePayload@?$WebSocketProtocol@$00U?$WebSocket@$00@uWS@@@uWS@@SA_KPEADGPEBD_K@Z 000000018000fdc0 f i WebSocket.obj
 0001:0000ee20       ?parseClosePayload@?$WebSocketProtocol@$00U?$WebSocket@$00@uWS@@@uWS@@SA?AUCloseFrame@12@PEAD_K@Z 000000018000fe20 f i WebSocket.obj
 0001:0000ee20       ?parseClosePayload@?$WebSocketProtocol@$0A@U?$WebSocket@$0A@@uWS@@@uWS@@SA?AUCloseFrame@12@PEAD_K@Z 000000018000fe20 f i WebSocket.obj
 0001:0000ef10       ?isValidUtf8@?$WebSocketProtocol@$0A@U?$WebSocket@$0A@@uWS@@@uWS@@SA_NPEAE_K@Z 000000018000ff10 f i WebSocket.obj
 0001:0000ef10       ?isValidUtf8@?$WebSocketProtocol@$00U?$WebSocket@$00@uWS@@@uWS@@SA_NPEAE_K@Z 000000018000ff10 f i WebSocket.obj
 0001:0000f050       ?consume@?$WebSocketProtocol@$00U?$WebSocket@$00@uWS@@@uWS@@SAXPEADIPEAU?$WebSocketState@$00@2@@Z 0000000180010050 f i WebSocket.obj
 0001:0000f1f0       ?formatMessage@?$WebSocketProtocol@$00U?$WebSocket@$00@uWS@@@uWS@@SA_KPEADPEBD_KW4OpCode@2@2_N@Z 00000001800101f0 f i WebSocket.obj
 0001:0000f330       ??R?$_Func_class@XPEAU?$WebSocket@$0A@@uWS@@PEAD_K@std@@QEBAXPEAU?$WebSocket@$0A@@uWS@@PEAD_K@Z 0000000180010330 f i WebSocket.obj
 0001:0000f330       ??R?$_Func_class@XPEAU?$WebSocket@$00@uWS@@PEAD_K@std@@QEBAXPEAU?$WebSocket@$00@uWS@@PEAD_K@Z 0000000180010330 f i WebSocket.obj
 0001:0000f370       ?consumeContinuation@?$WebSocketProtocol@$0A@U?$WebSocket@$0A@@uWS@@@uWS@@CA_NAEAPEADAEAIPEAU?$WebSocketState@$0A@@2@@Z 0000000180010370 f i WebSocket.obj
 0001:0000f450       ?rsv1@?$WebSocketProtocol@$00U?$WebSocket@$00@uWS@@@uWS@@CA_NPEAD@Z 0000000180010450 f i WebSocket.obj
 0001:0000f450       ?rsv1@?$WebSocketProtocol@$0A@U?$WebSocket@$0A@@uWS@@@uWS@@CA_NPEAD@Z 0000000180010450 f i WebSocket.obj
 0001:0000f460       ?rsv23@?$WebSocketProtocol@$00U?$WebSocket@$00@uWS@@@uWS@@CA_NPEAD@Z 0000000180010460 f i WebSocket.obj
 0001:0000f460       ?rsv23@?$WebSocketProtocol@$0A@U?$WebSocket@$0A@@uWS@@@uWS@@CA_NPEAD@Z 0000000180010460 f i WebSocket.obj
 0001:0000f470       ?payloadLength@?$WebSocketProtocol@$0A@U?$WebSocket@$0A@@uWS@@@uWS@@CAEPEAD@Z 0000000180010470 f i WebSocket.obj
 0001:0000f470       ?payloadLength@?$WebSocketProtocol@$00U?$WebSocket@$00@uWS@@@uWS@@CAEPEAD@Z 0000000180010470 f i WebSocket.obj
 0001:0000f480       ?getOpCode@?$WebSocketProtocol@$0A@U?$WebSocket@$0A@@uWS@@@uWS@@CAEPEAD@Z 0000000180010480 f i WebSocket.obj
 0001:0000f480       ?getOpCode@?$WebSocketProtocol@$00U?$WebSocket@$00@uWS@@@uWS@@CAEPEAD@Z 0000000180010480 f i WebSocket.obj
 0001:0000f490       ?isFin@?$WebSocketProtocol@$0A@U?$WebSocket@$0A@@uWS@@@uWS@@CA_NPEAD@Z 0000000180010490 f i WebSocket.obj
 0001:0000f490       ?isFin@?$WebSocketProtocol@$00U?$WebSocket@$00@uWS@@@uWS@@CA_NPEAD@Z 0000000180010490 f i WebSocket.obj
 0001:0000f4a0       ?consumeContinuation@?$WebSocketProtocol@$00U?$WebSocket@$00@uWS@@@uWS@@CA_NAEAPEADAEAIPEAU?$WebSocketState@$00@2@@Z 00000001800104a0 f i WebSocket.obj
 0001:0000f690       ?unmaskInplace@?$WebSocketProtocol@$00U?$WebSocket@$00@uWS@@@uWS@@CAXPEAD00@Z 0000000180010690 f i WebSocket.obj
 0001:0000f690       ?unmaskInplace@?$WebSocketProtocol@$0A@U?$WebSocket@$0A@@uWS@@@uWS@@CAXPEAD00@Z 0000000180010690 f i WebSocket.obj
 0001:0000f6d0       ?rotateMask@?$WebSocketProtocol@$00U?$WebSocket@$00@uWS@@@uWS@@CAXIPEAD@Z 00000001800106d0 f i WebSocket.obj
 0001:0000f6d0       ?rotateMask@?$WebSocketProtocol@$0A@U?$WebSocket@$0A@@uWS@@@uWS@@CAXIPEAD@Z 00000001800106d0 f i WebSocket.obj
 0001:0000f7d0       ??$sendTransformed@UWebSocketTransformer@?1??send@?$WebSocket@$00@uWS@@QEAAXPEBD_KW4OpCode@4@P6AXPEAU34@PEAX_N4@Z4@Z@UTransformData@?1??234@QEAAX01264@Z@@Socket@uS@@IEAAXPEBD_KP6AXPEAX2_N2@Z2UTransformData@?1??send@?$WebSocket@$00@uWS@@QEAAX01W4OpCode@5@P6AXPEAU45@232@Z2@Z@@Z 00000001800107d0 f i WebSocket.obj
 0001:0000fb20       ??$sendTransformed@UWebSocketTransformer@?1??send@?$WebSocket@$0A@@uWS@@QEAAXPEBD_KW4OpCode@4@P6AXPEAU34@PEAX_N4@Z4@Z@UTransformData@?1??234@QEAAX01264@Z@@Socket@uS@@IEAAXPEBD_KP6AXPEAX2_N2@Z2UTransformData@?1??send@?$WebSocket@$0A@@uWS@@QEAAX01W4OpCode@5@P6AXPEAU45@232@Z2@Z@@Z 0000000180010b20 f i WebSocket.obj
 0001:0000fdb0       ??$consumeMessage@$01E@?$WebSocketProtocol@$0A@U?$WebSocket@$0A@@uWS@@@uWS@@CA_NEAEAPEADAEAIPEAU?$WebSocketState@$0A@@1@@Z 0000000180010db0 f i WebSocket.obj
 0001:0000ff80       ??$consumeMessage@$03G@?$WebSocketProtocol@$0A@U?$WebSocket@$0A@@uWS@@@uWS@@CA_NGAEAPEADAEAIPEAU?$WebSocketState@$0A@@1@@Z 0000000180010f80 f i WebSocket.obj
 0001:00010150       ??$consumeMessage@$09_K@?$WebSocketProtocol@$0A@U?$WebSocket@$0A@@uWS@@@uWS@@CA_N_KAEAPEADAEAIPEAU?$WebSocketState@$0A@@1@@Z 0000000180011150 f i WebSocket.obj
 0001:000102e0       ??$consumeMessage@$05E@?$WebSocketProtocol@$00U?$WebSocket@$00@uWS@@@uWS@@CA_NEAEAPEADAEAIPEAU?$WebSocketState@$00@1@@Z 00000001800112e0 f i WebSocket.obj
 0001:00010530       ??$consumeMessage@$07G@?$WebSocketProtocol@$00U?$WebSocket@$00@uWS@@@uWS@@CA_NGAEAPEADAEAIPEAU?$WebSocketState@$00@1@@Z 0000000180011530 f i WebSocket.obj
 0001:00010780       ??$consumeMessage@$0O@_K@?$WebSocketProtocol@$00U?$WebSocket@$00@uWS@@@uWS@@CA_N_KAEAPEADAEAIPEAU?$WebSocketState@$00@1@@Z 0000000180011780 f i WebSocket.obj
 0001:000109b0       ?unmaskImpreciseCopyMask@?$WebSocketProtocol@$00U?$WebSocket@$00@uWS@@@uWS@@CAXPEAD00I@Z 00000001800119b0 f i WebSocket.obj
 0001:000109b0       ?unmaskImpreciseCopyMask@?$WebSocketProtocol@$0A@U?$WebSocket@$0A@@uWS@@@uWS@@CAXPEAD00I@Z 00000001800119b0 f i WebSocket.obj
 0001:00010a10       ?unmaskImprecise@?$WebSocketProtocol@$0A@U?$WebSocket@$0A@@uWS@@@uWS@@CAXPEAD00I@Z 0000000180011a10 f i WebSocket.obj
 0001:00010a10       ?unmaskImprecise@?$WebSocketProtocol@$00U?$WebSocket@$00@uWS@@@uWS@@CAXPEAD00I@Z 0000000180011a10 f i WebSocket.obj
 0001:00010a60       ?getMethod@HttpRequest@uWS@@QEAA?AW4HttpMethod@2@XZ 0000000180011a60 f i HTTPSocket.obj
 0001:00010c00       ?getHeaders@uWS@@YAPEADPEAD0PEAUHeader@1@_K@Z 0000000180011c00 f   HTTPSocket.obj
 0001:00010df0       ?upgrade@?$HttpSocket@$00@uWS@@QEAAXPEBD0_K01PEA_N@Z 0000000180011df0 f i HTTPSocket.obj
 0001:00011220       ?onData@?$HttpSocket@$00@uWS@@CAPEAUSocket@uS@@PEAU34@PEAD_K@Z 0000000180012220 f i HTTPSocket.obj
 0001:00011920       ?onEnd@?$HttpSocket@$00@uWS@@CAXPEAUSocket@uS@@@Z 0000000180012920 f i HTTPSocket.obj
 0001:00011ac0       ?upgrade@?$HttpSocket@$0A@@uWS@@QEAAXPEBD0_K01PEA_N@Z 0000000180012ac0 f i HTTPSocket.obj
 0001:00011b80       ?onData@?$HttpSocket@$0A@@uWS@@CAPEAUSocket@uS@@PEAU34@PEAD_K@Z 0000000180012b80 f i HTTPSocket.obj
 0001:00011f50       ?onEnd@?$HttpSocket@$0A@@uWS@@CAXPEAUSocket@uS@@@Z 0000000180012f50 f i HTTPSocket.obj
 0001:00012110       ??$sslIoHandler@U?$WebSocket@$0A@@uWS@@@Socket@uS@@KAXPEAUPoll@@HH@Z 0000000180013110 f i HTTPSocket.obj
 0001:00012330       ??$ioHandler@U?$WebSocket@$0A@@uWS@@@Socket@uS@@KAXPEAUPoll@@HH@Z 0000000180013330 f i HTTPSocket.obj
 0001:000124d0       ?getAddress@Socket@uS@@QEAA?AUAddress@12@XZ 00000001800134d0 f   Socket.obj
 0001:000125f0       ?dup@@YA_K_K@Z             00000001800135f0 f i addon.obj
 0001:00012680       __local_stdio_printf_options 0000000180013680 f i addon.obj
 0001:00012690       sprintf                    0000000180013690 f i addon.obj
 0001:000126f0       sprintf_s                  00000001800136f0 f i addon.obj
 0001:00012750       ?what@exception@stdext@@UEBAPEBDXZ 0000000180013750 f i addon.obj
 0001:00012770       ??_Eexception@stdext@@UEAAPEAXI@Z 0000000180013770 f i * CIL library *:* CIL module *
 0001:00012770       ??_Gexception@stdext@@UEAAPEAXI@Z 0000000180013770 f i addon.obj
 0001:00012770       ??_Gruntime_error@std@@UEAAPEAXI@Z 0000000180013770 f i addon.obj
 0001:00012770       ??_Eruntime_error@std@@UEAAPEAXI@Z 0000000180013770 f i * CIL library *:* CIL module *
 0001:000127a0       ??0_Locinfo@std@@QEAA@PEBD@Z 00000001800137a0 f i addon.obj
 0001:00012860       ??1_Locinfo@std@@QEAA@XZ   0000000180013860 f i addon.obj
 0001:00012900       ??_G_Facet_base@std@@UEAAPEAXI@Z 0000000180013900 f i addon.obj
 0001:00012900       ??_E_Facet_base@std@@UEAAPEAXI@Z 0000000180013900 f i * CIL library *:* CIL module *
 0001:00012930       ?_Incref@facet@locale@std@@UEAAXXZ 0000000180013930 f i addon.obj
 0001:00012940       ?_Decref@facet@locale@std@@UEAAPEAV_Facet_base@3@XZ 0000000180013940 f i addon.obj
 0001:00012950       ?_Getcat@?$ctype@D@std@@SA_KPEAPEBVfacet@locale@2@PEBV42@@Z 0000000180013950 f i addon.obj
 0001:00012a10       ?do_tolower@?$ctype@D@std@@MEBADD@Z 0000000180013a10 f i addon.obj
 0001:00012a20       ?do_tolower@?$ctype@D@std@@MEBAPEBDPEADPEBD@Z 0000000180013a20 f i addon.obj
 0001:00012a80       ?do_toupper@?$ctype@D@std@@MEBADD@Z 0000000180013a80 f i addon.obj
 0001:00012a90       ?do_toupper@?$ctype@D@std@@MEBAPEBDPEADPEBD@Z 0000000180013a90 f i addon.obj
 0001:00012af0       ?do_narrow@?$ctype@D@std@@MEBADDD@Z 0000000180013af0 f i addon.obj
 0001:00012af0       ?do_widen@?$ctype@D@std@@MEBADD@Z 0000000180013af0 f i addon.obj
 0001:00012b00       ?do_widen@?$ctype@D@std@@MEBAPEBDPEBD0PEAD@Z 0000000180013b00 f i addon.obj
 0001:00012b20       ?do_narrow@?$ctype@D@std@@MEBAPEBDPEBD0DPEAD@Z 0000000180013b20 f i addon.obj
 0001:00012b40       ??_E?$ctype@D@std@@MEAAPEAXI@Z 0000000180013b40 f i * CIL library *:* CIL module *
 0001:00012b40       ??_G?$ctype@D@std@@MEAAPEAXI@Z 0000000180013b40 f i addon.obj
 0001:00012bb0       ??_Gerror_category@std@@UEAAPEAXI@Z 0000000180013bb0 f i addon.obj
 0001:00012bb0       ??_Eerror_category@std@@UEAAPEAXI@Z 0000000180013bb0 f i * CIL library *:* CIL module *
 0001:00012bb0       ??_G_Iostream_error_category@std@@UEAAPEAXI@Z 0000000180013bb0 f i addon.obj
 0001:00012bb0       ??_E_Generic_error_category@std@@UEAAPEAXI@Z 0000000180013bb0 f i * CIL library *:* CIL module *
 0001:00012bb0       ??_E_Iostream_error_category@std@@UEAAPEAXI@Z 0000000180013bb0 f i * CIL library *:* CIL module *
 0001:00012bb0       ??_G_Generic_error_category@std@@UEAAPEAXI@Z 0000000180013bb0 f i addon.obj
 0001:00012be0       ?default_error_condition@error_category@std@@UEBA?AVerror_condition@2@H@Z 0000000180013be0 f i addon.obj
 0001:00012bf0       ?equivalent@error_category@std@@UEBA_NHAEBVerror_condition@2@@Z 0000000180013bf0 f i addon.obj
 0001:00012c50       ?equivalent@error_category@std@@UEBA_NAEBVerror_code@2@H@Z 0000000180013c50 f i addon.obj
 0001:00012c70       ??0_System_error@std@@IEAA@Verror_code@1@AEBV?$basic_string@DU?$char_traits@D@std@@V?$allocator@D@2@@1@@Z 0000000180013c70 f i addon.obj
 0001:00012e00       ??_Gfailure@ios_base@std@@UEAAPEAXI@Z 0000000180013e00 f i addon.obj
 0001:00012e00       ??_G_System_error@std@@UEAAPEAXI@Z 0000000180013e00 f i addon.obj
 0001:00012e00       ??_E_System_error@std@@UEAAPEAXI@Z 0000000180013e00 f i * CIL library *:* CIL module *
 0001:00012e00       ??_Esystem_error@std@@UEAAPEAXI@Z 0000000180013e00 f i * CIL library *:* CIL module *
 0001:00012e00       ??_Gsystem_error@std@@UEAAPEAXI@Z 0000000180013e00 f i addon.obj
 0001:00012e00       ??_Efailure@ios_base@std@@UEAAPEAXI@Z 0000000180013e00 f i * CIL library *:* CIL module *
 0001:00012e30       ??1system_error@std@@UEAA@XZ 0000000180013e30 f i addon.obj
 0001:00012e40       ?name@_Generic_error_category@std@@UEBAPEBDXZ 0000000180013e40 f i addon.obj
 0001:00012e50       ?message@_Generic_error_category@std@@UEBA?AV?$basic_string@DU?$char_traits@D@std@@V?$allocator@D@2@@2@H@Z 0000000180013e50 f i addon.obj
 0001:00012ea0       ?name@_Iostream_error_category@std@@UEBAPEBDXZ 0000000180013ea0 f i addon.obj
 0001:00012eb0       ?message@_Iostream_error_category@std@@UEBA?AV?$basic_string@DU?$char_traits@D@std@@V?$allocator@D@2@@2@H@Z 0000000180013eb0 f i addon.obj
 0001:00012f30       ?clear@ios_base@std@@QEAAXH_N@Z 0000000180013f30 f i addon.obj
 0001:000131c0       ?end@HttpResponse@uWS@@QEAAXPEBD_KP6AXPEAX2_N2@Z2@Z 00000001800141c0 f i addon.obj
 0001:00013360       ?NODE_SET_METHOD@node@@YAXV?$Local@VObject@v8@@@v8@@PEBDP6AXAEBV?$FunctionCallbackInfo@VValue@v8@@@3@@Z@Z 0000000180014360 f i addon.obj
 0001:000134e0       ??0NativeString@@QEAA@AEBV?$Local@VValue@v8@@@v8@@@Z 00000001800144e0 f i addon.obj
 0001:00013650       ?connect@@YAXAEBV?$FunctionCallbackInfo@VValue@v8@@@v8@@@Z 0000000180014650 f   addon.obj
 0001:000137e0       ?upgrade@@YAXAEBV?$FunctionCallbackInfo@VValue@v8@@@v8@@@Z 00000001800147e0 f   addon.obj
 0001:000139c0       ?transfer@@YAXAEBV?$FunctionCallbackInfo@VValue@v8@@@v8@@@Z 00000001800149c0 f   addon.obj
 0001:00013b70       ?onError@@YAXAEBV?$FunctionCallbackInfo@VValue@v8@@@v8@@@Z 0000000180014b70 f   addon.obj
 0001:00013d50       ?forEach@@YAXAEBV?$FunctionCallbackInfo@VValue@v8@@@v8@@@Z 0000000180014d50 f   addon.obj
 0001:00013dd0       ?getSize@@YAXAEBV?$FunctionCallbackInfo@VValue@v8@@@v8@@@Z 0000000180014dd0 f   addon.obj
 0001:00013e40       ?startAutoPing@@YAXAEBV?$FunctionCallbackInfo@VValue@v8@@@v8@@@Z 0000000180014e40 f   addon.obj
 0001:00013f40       ?setNoop@@YAXAEBV?$FunctionCallbackInfo@VValue@v8@@@v8@@@Z 0000000180014f40 f   addon.obj
 0001:00013fb0       ?listen@@YAXAEBV?$FunctionCallbackInfo@VValue@v8@@@v8@@@Z 0000000180014fb0 f   addon.obj
 0001:00014060       ?on@Request@HttpServer@@SAXAEBV?$FunctionCallbackInfo@VValue@v8@@@v8@@@Z 0000000180015060 f i addon.obj
 0001:00014340       ?headers@Request@HttpServer@@SAXV?$Local@VString@v8@@@v8@@AEBV?$PropertyCallbackInfo@VValue@v8@@@4@@Z 0000000180015340 f i addon.obj
 0001:000144c0       ?url@Request@HttpServer@@SAXV?$Local@VString@v8@@@v8@@AEBV?$PropertyCallbackInfo@VValue@v8@@@4@@Z 00000001800154c0 f i addon.obj
 0001:00014530       ?method@Request@HttpServer@@SAXV?$Local@VString@v8@@@v8@@AEBV?$PropertyCallbackInfo@VValue@v8@@@4@@Z 0000000180015530 f i addon.obj
 0001:00014670       ?socket@Request@HttpServer@@SAXAEBV?$FunctionCallbackInfo@VValue@v8@@@v8@@@Z 0000000180015670 f i addon.obj
 0001:000146b0       ?getTemplateObject@Request@HttpServer@@SA?AV?$Local@VObject@v8@@@v8@@PEAVIsolate@4@@Z 00000001800156b0 f i addon.obj
 0001:00014a20       ?on@Response@HttpServer@@SAXAEBV?$FunctionCallbackInfo@VValue@v8@@@v8@@@Z 0000000180015a20 f i addon.obj
 0001:00014c30       ?end@Response@HttpServer@@SAXAEBV?$FunctionCallbackInfo@VValue@v8@@@v8@@@Z 0000000180015c30 f i addon.obj
 0001:00014d10       ?writeHead@Response@HttpServer@@SAXAEBV?$FunctionCallbackInfo@VValue@v8@@@v8@@@Z 0000000180015d10 f i addon.obj
 0001:00015150       ?write@Response@HttpServer@@SAXAEBV?$FunctionCallbackInfo@VValue@v8@@@v8@@@Z 0000000180016150 f i addon.obj
 0001:00015210       ?getTemplateObject@Response@HttpServer@@SA?AV?$Local@VObject@v8@@@v8@@PEAVIsolate@4@@Z 0000000180016210 f i addon.obj
 0001:00015520       ?createServer@HttpServer@@SAXAEBV?$FunctionCallbackInfo@VValue@v8@@@v8@@@Z 0000000180016520 f i addon.obj
 0001:00015dd0       ?on@HttpServer@@SAXAEBV?$FunctionCallbackInfo@VValue@v8@@@v8@@@Z 0000000180016dd0 f i addon.obj
 0001:00015ee0       ?listen@HttpServer@@SAXAEBV?$FunctionCallbackInfo@VValue@v8@@@v8@@@Z 0000000180016ee0 f i addon.obj
 0001:00016060       ?getExpressApp@HttpServer@@SAXAEBV?$FunctionCallbackInfo@VValue@v8@@@v8@@@Z 0000000180017060 f i addon.obj
 0001:00016220       ?getResponsePrototype@HttpServer@@SAXAEBV?$FunctionCallbackInfo@VValue@v8@@@v8@@@Z 0000000180017220 f i addon.obj
 0001:00016280       ?getRequestPrototype@HttpServer@@SAXAEBV?$FunctionCallbackInfo@VValue@v8@@@v8@@@Z 0000000180017280 f i addon.obj
 0001:000162e0       ?getHttpServer@HttpServer@@SA?AV?$Local@VFunction@v8@@@v8@@PEAVIsolate@3@@Z 00000001800172e0 f i addon.obj
 0001:00016630       ?Main@@YAXV?$Local@VObject@v8@@@v8@@@Z 0000000180017630 f   addon.obj
 0001:00016be0       ??0?$Namespace@$0A@@@QEAA@PEAVIsolate@v8@@@Z 0000000180017be0 f i addon.obj
 0001:00016df0       ??0?$Namespace@$00@@QEAA@PEAVIsolate@v8@@@Z 0000000180017df0 f i addon.obj
 0001:00017050       ??6?$basic_ostream@DU?$char_traits@D@std@@@std@@QEAAAEAV01@_N@Z 0000000180018050 f i addon.obj
 0001:000171f0       ??0sentry@?$basic_ostream@DU?$char_traits@D@std@@@std@@QEAA@AEAV12@@Z 00000001800181f0 f i addon.obj
 0001:00017260       ?do_put@?$num_put@DV?$ostreambuf_iterator@DU?$char_traits@D@std@@@std@@@std@@MEBA?AV?$ostreambuf_iterator@DU?$char_traits@D@std@@@2@V32@AEAVios_base@2@DPEBX@Z 0000000180018260 f i addon.obj
 0001:00017300       ?do_put@?$num_put@DV?$ostreambuf_iterator@DU?$char_traits@D@std@@@std@@@std@@MEBA?AV?$ostreambuf_iterator@DU?$char_traits@D@std@@@2@V32@AEAVios_base@2@DO@Z 0000000180018300 f i addon.obj
 0001:00017540       ?do_put@?$num_put@DV?$ostreambuf_iterator@DU?$char_traits@D@std@@@std@@@std@@MEBA?AV?$ostreambuf_iterator@DU?$char_traits@D@std@@@2@V32@AEAVios_base@2@DN@Z 0000000180018540 f i addon.obj
 0001:00017780       ?do_put@?$num_put@DV?$ostreambuf_iterator@DU?$char_traits@D@std@@@std@@@std@@MEBA?AV?$ostreambuf_iterator@DU?$char_traits@D@std@@@2@V32@AEAVios_base@2@D_K@Z 0000000180018780 f i addon.obj
 0001:00017880       ?do_put@?$num_put@DV?$ostreambuf_iterator@DU?$char_traits@D@std@@@std@@@std@@MEBA?AV?$ostreambuf_iterator@DU?$char_traits@D@std@@@2@V32@AEAVios_base@2@D_J@Z 0000000180018880 f i addon.obj
 0001:00017980       ?do_put@?$num_put@DV?$ostreambuf_iterator@DU?$char_traits@D@std@@@std@@@std@@MEBA?AV?$ostreambuf_iterator@DU?$char_traits@D@std@@@2@V32@AEAVios_base@2@DK@Z 0000000180018980 f i addon.obj
 0001:00017a80       ?do_put@?$num_put@DV?$ostreambuf_iterator@DU?$char_traits@D@std@@@std@@@std@@MEBA?AV?$ostreambuf_iterator@DU?$char_traits@D@std@@@2@V32@AEAVios_base@2@DJ@Z 0000000180018a80 f i addon.obj
 0001:00017b80       ?do_put@?$num_put@DV?$ostreambuf_iterator@DU?$char_traits@D@std@@@std@@@std@@MEBA?AV?$ostreambuf_iterator@DU?$char_traits@D@std@@@2@V32@AEAVios_base@2@D_N@Z 0000000180018b80 f i addon.obj
 0001:00017f40       ?assign@?$basic_string@DU?$char_traits@D@std@@V?$allocator@D@2@@std@@QEAAAEAV12@_KD@Z 0000000180018f40 f i addon.obj
 0001:00018050       ??_G?$codecvt@DDU_Mbstatet@@@std@@MEAAPEAXI@Z 0000000180019050 f i libcpmt:cout.obj
 0001:00018050       ??_G?$num_put@DV?$ostreambuf_iterator@DU?$char_traits@D@std@@@std@@@std@@MEAAPEAXI@Z 0000000180019050 f i addon.obj
 0001:00018050       ??_E?$num_put@DV?$ostreambuf_iterator@DU?$char_traits@D@std@@@std@@@std@@MEAAPEAXI@Z 0000000180019050 f i * CIL library *:* CIL module *
 0001:00018050       ??_E?$codecvt@DDU_Mbstatet@@@std@@MEAAPEAXI@Z 0000000180019050 f i libcpmt:cout.obj
 0001:00018080       ?do_truename@?$numpunct@D@std@@MEBA?AV?$basic_string@DU?$char_traits@D@std@@V?$allocator@D@2@@2@XZ 0000000180019080 f i addon.obj
 0001:000180d0       ?do_falsename@?$numpunct@D@std@@MEBA?AV?$basic_string@DU?$char_traits@D@std@@V?$allocator@D@2@@2@XZ 00000001800190d0 f i addon.obj
 0001:00018120       ?do_grouping@?$numpunct@D@std@@MEBA?AV?$basic_string@DU?$char_traits@D@std@@V?$allocator@D@2@@2@XZ 0000000180019120 f i addon.obj
 0001:00018170       ?do_thousands_sep@?$numpunct@D@std@@MEBADXZ 0000000180019170 f i addon.obj
 0001:00018180       ?do_decimal_point@?$numpunct@D@std@@MEBADXZ 0000000180019180 f i addon.obj
 0001:00018190       ?_Iput@?$num_put@DV?$ostreambuf_iterator@DU?$char_traits@D@std@@@std@@@std@@AEBA?AV?$ostreambuf_iterator@DU?$char_traits@D@std@@@2@V32@AEAVios_base@2@DPEAD_K@Z 0000000180019190 f i addon.obj
 0001:000187d0       ?_Fput@?$num_put@DV?$ostreambuf_iterator@DU?$char_traits@D@std@@@std@@@std@@AEBA?AV?$ostreambuf_iterator@DU?$char_traits@D@std@@@2@V32@AEAVios_base@2@DPEBD_K@Z 00000001800197d0 f i addon.obj
 0001:00018fa0       ?flush@?$basic_ostream@DU?$char_traits@D@std@@@std@@QEAAAEAV12@XZ 0000000180019fa0 f i addon.obj
 0001:00019090       ??_G?$numpunct@D@std@@MEAAPEAXI@Z 000000018001a090 f i addon.obj
 0001:00019090       ??_E?$numpunct@D@std@@MEAAPEAXI@Z 000000018001a090 f i * CIL library *:* CIL module *
 0001:000190f0       ?insert@?$basic_string@DU?$char_traits@D@std@@V?$allocator@D@2@@std@@QEAAAEAV12@_K0D@Z 000000018001a0f0 f i addon.obj
 0001:00019260       ??$use_facet@V?$ctype@D@std@@@std@@YAAEBV?$ctype@D@0@AEBVlocale@0@@Z 000000018001a260 f i addon.obj
 0001:00019390       ??$_Immortalize@V_Iostream_error_category@std@@@std@@YAAEAV_Iostream_error_category@0@XZ 000000018001a390 f i addon.obj
 0001:00019410       ??$_Integral_to_string@D_J@std@@YA?AV?$basic_string@DU?$char_traits@D@std@@V?$allocator@D@2@@0@_J@Z 000000018001a410 f i addon.obj
 0001:00019500       ??$sendTransformed@UNoopTransformer@?1??write@HttpResponse@uWS@@QEAAXPEBD_KP6AXPEAX2_N2@Z2@Z@H@Socket@uS@@IEAAXPEBD_KP6AXPEAX2_N2@Z2H@Z 000000018001a500 f i addon.obj
 0001:000196b0       ??$sendTransformed@UHttpTransformer@?1??end@HttpResponse@uWS@@QEAAXPEBD_KP6AXPEAX2_N2@Z2@Z@UTransformData@?1??234@QEAAX0142@Z@@Socket@uS@@IEAAXPEBD_KP6AXPEAX2_N2@Z2UTransformData@?1??end@HttpResponse@uWS@@QEAAX0142@Z@@Z 000000018001a6b0 f i addon.obj
 0001:000198f0       ??$forEach@V<lambda_f579d7c9d7b81c3c99776603c828d8de>@@@?$Group@$00@uWS@@QEAAXAEBV<lambda_f579d7c9d7b81c3c99776603c828d8de>@@@Z 000000018001a8f0 f i addon.obj
 0001:00019a80       ??$?6U?$char_traits@D@std@@@std@@YAAEAV?$basic_ostream@DU?$char_traits@D@std@@@0@AEAV10@PEBD@Z 000000018001aa80 f i addon.obj
 0001:00019cd0       ??$?6DU?$char_traits@D@std@@V?$allocator@D@1@@std@@YAAEAV?$basic_ostream@DU?$char_traits@D@std@@@0@AEAV10@AEBV?$basic_string@DU?$char_traits@D@std@@V?$allocator@D@2@@0@@Z 000000018001acd0 f i addon.obj
 0001:00019f10       ??$setUserData@$00@@YAXAEBV?$FunctionCallbackInfo@VValue@v8@@@v8@@@Z 000000018001af10 f i addon.obj
 0001:0001a000       ??$getUserData@$00@@YAXAEBV?$FunctionCallbackInfo@VValue@v8@@@v8@@@Z 000000018001b000 f i addon.obj
 0001:0001a090       ??$clearUserData@$00@@YAXAEBV?$FunctionCallbackInfo@VValue@v8@@@v8@@@Z 000000018001b090 f i addon.obj
 0001:0001a100       ??$getAddress@$00@@YAXAEBV?$FunctionCallbackInfo@VValue@v8@@@v8@@@Z 000000018001b100 f i addon.obj
 0001:0001a210       ??$send@$0A@@@YAXAEBV?$FunctionCallbackInfo@VValue@v8@@@v8@@@Z 000000018001b210 f i addon.obj
 0001:0001a390       ??$closeSocket@$0A@@@YAXAEBV?$FunctionCallbackInfo@VValue@v8@@@v8@@@Z 000000018001b390 f i addon.obj
 0001:0001a480       ??$terminateSocket@$0A@@@YAXAEBV?$FunctionCallbackInfo@VValue@v8@@@v8@@@Z 000000018001b480 f i addon.obj
 0001:0001a4c0       ??$prepareMessage@$0A@@@YAXAEBV?$FunctionCallbackInfo@VValue@v8@@@v8@@@Z 000000018001b4c0 f i addon.obj
 0001:0001a5c0       ??$sendPrepared@$00@@YAXAEBV?$FunctionCallbackInfo@VValue@v8@@@v8@@@Z 000000018001b5c0 f i addon.obj
 0001:0001a5c0       ??$sendPrepared@$0A@@@YAXAEBV?$FunctionCallbackInfo@VValue@v8@@@v8@@@Z 000000018001b5c0 f i addon.obj
 0001:0001a630       ??$finalizeMessage@$00@@YAXAEBV?$FunctionCallbackInfo@VValue@v8@@@v8@@@Z 000000018001b630 f i addon.obj
 0001:0001a630       ??$finalizeMessage@$0A@@@YAXAEBV?$FunctionCallbackInfo@VValue@v8@@@v8@@@Z 000000018001b630 f i addon.obj
 0001:0001a680       ??$onConnection@$0A@@@YAXAEBV?$FunctionCallbackInfo@VValue@v8@@@v8@@@Z 000000018001b680 f i addon.obj
 0001:0001a850       ??$onMessage@$0A@@@YAXAEBV?$FunctionCallbackInfo@VValue@v8@@@v8@@@Z 000000018001b850 f i addon.obj
 0001:0001aa70       ??$onDisconnection@$0A@@@YAXAEBV?$FunctionCallbackInfo@VValue@v8@@@v8@@@Z 000000018001ba70 f i addon.obj
 0001:0001acf0       ??$onPing@$0A@@@YAXAEBV?$FunctionCallbackInfo@VValue@v8@@@v8@@@Z 000000018001bcf0 f i addon.obj
 0001:0001aef0       ??$onPong@$0A@@@YAXAEBV?$FunctionCallbackInfo@VValue@v8@@@v8@@@Z 000000018001bef0 f i addon.obj
 0001:0001aff0       ??$createGroup@$0A@@@YAXAEBV?$FunctionCallbackInfo@VValue@v8@@@v8@@@Z 000000018001bff0 f i addon.obj
 0001:0001b100       ??$deleteGroup@$0A@@@YAXAEBV?$FunctionCallbackInfo@VValue@v8@@@v8@@@Z 000000018001c100 f i addon.obj
 0001:0001b160       ??$closeGroup@$0A@@@YAXAEBV?$FunctionCallbackInfo@VValue@v8@@@v8@@@Z 000000018001c160 f i addon.obj
 0001:0001b290       ??$terminateGroup@$0A@@@YAXAEBV?$FunctionCallbackInfo@VValue@v8@@@v8@@@Z 000000018001c290 f i addon.obj
 0001:0001b2e0       ??$broadcast@$0A@@@YAXAEBV?$FunctionCallbackInfo@VValue@v8@@@v8@@@Z 000000018001c2e0 f i addon.obj
 0001:0001b400       ??$send@$00@@YAXAEBV?$FunctionCallbackInfo@VValue@v8@@@v8@@@Z 000000018001c400 f i addon.obj
 0001:0001b580       ??$closeSocket@$00@@YAXAEBV?$FunctionCallbackInfo@VValue@v8@@@v8@@@Z 000000018001c580 f i addon.obj
 0001:0001b670       ??$terminateSocket@$00@@YAXAEBV?$FunctionCallbackInfo@VValue@v8@@@v8@@@Z 000000018001c670 f i addon.obj
 0001:0001b6b0       ??$prepareMessage@$00@@YAXAEBV?$FunctionCallbackInfo@VValue@v8@@@v8@@@Z 000000018001c6b0 f i addon.obj
 0001:0001b7b0       ??$onConnection@$00@@YAXAEBV?$FunctionCallbackInfo@VValue@v8@@@v8@@@Z 000000018001c7b0 f i addon.obj
 0001:0001b8c0       ??$onMessage@$00@@YAXAEBV?$FunctionCallbackInfo@VValue@v8@@@v8@@@Z 000000018001c8c0 f i addon.obj
 0001:0001b9c0       ??$onDisconnection@$00@@YAXAEBV?$FunctionCallbackInfo@VValue@v8@@@v8@@@Z 000000018001c9c0 f i addon.obj
 0001:0001bae0       ??$onPing@$00@@YAXAEBV?$FunctionCallbackInfo@VValue@v8@@@v8@@@Z 000000018001cae0 f i addon.obj
 0001:0001bbe0       ??$onPong@$00@@YAXAEBV?$FunctionCallbackInfo@VValue@v8@@@v8@@@Z 000000018001cbe0 f i addon.obj
 0001:0001bce0       ??$createGroup@$00@@YAXAEBV?$FunctionCallbackInfo@VValue@v8@@@v8@@@Z 000000018001cce0 f i addon.obj
 0001:0001bdf0       ??$deleteGroup@$00@@YAXAEBV?$FunctionCallbackInfo@VValue@v8@@@v8@@@Z 000000018001cdf0 f i addon.obj
 0001:0001be50       ??$closeGroup@$00@@YAXAEBV?$FunctionCallbackInfo@VValue@v8@@@v8@@@Z 000000018001ce50 f i addon.obj
 0001:0001bf40       ??$terminateGroup@$00@@YAXAEBV?$FunctionCallbackInfo@VValue@v8@@@v8@@@Z 000000018001cf40 f i addon.obj
 0001:0001bf80       ??$broadcast@$00@@YAXAEBV?$FunctionCallbackInfo@VValue@v8@@@v8@@@Z 000000018001cf80 f i addon.obj
 0001:0001c0a0       ??$use_facet@V?$num_put@DV?$ostreambuf_iterator@DU?$char_traits@D@std@@@std@@@std@@@std@@YAAEBV?$num_put@DV?$ostreambuf_iterator@DU?$char_traits@D@std@@@std@@@0@AEBVlocale@0@@Z 000000018001d0a0 f i addon.obj
 0001:0001c1d0       ??$use_facet@V?$numpunct@D@std@@@std@@YAAEBV?$numpunct@D@0@AEBVlocale@0@@Z 000000018001d1d0 f i addon.obj
 0001:0001c300       ?_Getcat@?$numpunct@D@std@@SA_KPEAPEBVfacet@locale@2@PEBV42@@Z 000000018001d300 f i addon.obj
 0001:0001c3c0       ?_Getcat@?$num_put@DV?$ostreambuf_iterator@DU?$char_traits@D@std@@@std@@@std@@SA_KPEAPEBVfacet@locale@2@PEBV42@@Z 000000018001d3c0 f i addon.obj
 0001:0001c470       ?put@?$basic_ostream@DU?$char_traits@D@std@@@std@@QEAAAEAV12@D@Z 000000018001d470 f i addon.obj
 0001:0001c5c0       ?widen@?$basic_ios@DU?$char_traits@D@std@@@std@@QEBADD@Z 000000018001d5c0 f i addon.obj
 0001:0001c660       ?insert@?$basic_string@DU?$char_traits@D@std@@V?$allocator@D@2@@std@@QEAAAEAV12@_KPEBD0@Z 000000018001d660 f i addon.obj
 0001:0001c7e0       ?_Init@?$numpunct@D@std@@IEAAXAEBV_Locinfo@2@_N@Z 000000018001d7e0 f i addon.obj
 0001:0001c960       ?insert@?$basic_string@DU?$char_traits@D@std@@V?$allocator@D@2@@std@@QEAAAEAV12@_KAEBV12@00@Z 000000018001d960 f i addon.obj
 0001:0001cb00       ??$sendCallback@$00@@YAXPEAU?$WebSocket@$00@uWS@@PEAX_N1@Z 000000018001db00 f i addon.obj
 0001:0001cb00       ??$sendCallback@$0A@@@YAXPEAU?$WebSocket@$0A@@uWS@@PEAX_N1@Z 000000018001db00 f i addon.obj
 0001:0001cbc0       ?_Target_type@?$_Func_impl@V<lambda_2348f224942daab74e5fd550b84d90ff>@@V?$allocator@H@std@@XPEAUHttpResponse@uWS@@PEAD_K_K@std@@EEBAAEBVtype_info@@XZ 000000018001dbc0 f i addon.obj
 0001:0001cbd0       ?_Do_call@?$_Func_impl@V<lambda_2348f224942daab74e5fd550b84d90ff>@@V?$allocator@H@std@@XPEAUHttpResponse@uWS@@PEAD_K_K@std@@EEAAX$$QEAPEAUHttpResponse@uWS@@$$QEAPEAD$$QEA_K2@Z 000000018001dbd0 f i addon.obj
 0001:0001cbf0       ?_Copy@?$_Func_impl@V<lambda_2348f224942daab74e5fd550b84d90ff>@@V?$allocator@H@std@@XPEAUHttpResponse@uWS@@PEAD_K_K@std@@EEBAPEAV?$_Func_base@XPEAUHttpResponse@uWS@@PEAD_K_K@2@PEAX@Z 000000018001dbf0 f i addon.obj
 0001:0001cbf0       ?_Move@?$_Func_impl@V<lambda_2348f224942daab74e5fd550b84d90ff>@@V?$allocator@H@std@@XPEAUHttpResponse@uWS@@PEAD_K_K@std@@EEAAPEAV?$_Func_base@XPEAUHttpResponse@uWS@@PEAD_K_K@2@PEAX@Z 000000018001dbf0 f i addon.obj
 0001:0001cc10       ?_Target_type@?$_Func_impl@V<lambda_627f71350547a88590b856e4dc8f03a3>@@V?$allocator@H@std@@XPEAUHttpResponse@uWS@@@std@@EEBAAEBVtype_info@@XZ 000000018001dc10 f i addon.obj
 0001:0001cc20       ?_Do_call@?$_Func_impl@V<lambda_627f71350547a88590b856e4dc8f03a3>@@V?$allocator@H@std@@XPEAUHttpResponse@uWS@@@std@@EEAAX$$QEAPEAUHttpResponse@uWS@@@Z 000000018001dc20 f i addon.obj
 0001:0001cc30       ?_Copy@?$_Func_impl@V<lambda_627f71350547a88590b856e4dc8f03a3>@@V?$allocator@H@std@@XPEAUHttpResponse@uWS@@@std@@EEBAPEAV?$_Func_base@XPEAUHttpResponse@uWS@@@2@PEAX@Z 000000018001dc30 f i addon.obj
 0001:0001cc30       ?_Move@?$_Func_impl@V<lambda_627f71350547a88590b856e4dc8f03a3>@@V?$allocator@H@std@@XPEAUHttpResponse@uWS@@@std@@EEAAPEAV?$_Func_base@XPEAUHttpResponse@uWS@@@2@PEAX@Z 000000018001dc30 f i addon.obj
 0001:0001cc50       ?_Target_type@?$_Func_impl@V<lambda_adbdade2acdb425a95e1d65016bf1258>@@V?$allocator@H@std@@XPEAUHttpResponse@uWS@@UHttpRequest@5@PEAD_K_K@std@@EEBAAEBVtype_info@@XZ 000000018001dc50 f i addon.obj
 0001:0001cc60       ?_Do_call@?$_Func_impl@V<lambda_adbdade2acdb425a95e1d65016bf1258>@@V?$allocator@H@std@@XPEAUHttpResponse@uWS@@UHttpRequest@5@PEAD_K_K@std@@EEAAX$$QEAPEAUHttpResponse@uWS@@$$QEAUHttpRequest@4@$$QEAPEAD$$QEA_K3@Z 000000018001dc60 f i addon.obj
 0001:0001cc90       ?_Move@?$_Func_impl@V<lambda_adbdade2acdb425a95e1d65016bf1258>@@V?$allocator@H@std@@XPEAUHttpResponse@uWS@@UHttpRequest@5@PEAD_K_K@std@@EEAAPEAV?$_Func_base@XPEAUHttpResponse@uWS@@UHttpRequest@2@PEAD_K_K@2@PEAX@Z 000000018001dc90 f i addon.obj
 0001:0001cc90       ?_Copy@?$_Func_impl@V<lambda_adbdade2acdb425a95e1d65016bf1258>@@V?$allocator@H@std@@XPEAUHttpResponse@uWS@@UHttpRequest@5@PEAD_K_K@std@@EEBAPEAV?$_Func_base@XPEAUHttpResponse@uWS@@UHttpRequest@2@PEAD_K_K@2@PEAX@Z 000000018001dc90 f i addon.obj
 0001:0001ccb0       ?_Target_type@?$_Func_impl@V<lambda_2084e076f6151854c0db1be6acabce48>@@V?$allocator@H@std@@XPEAX@std@@EEBAAEBVtype_info@@XZ 000000018001dcb0 f i addon.obj
 0001:0001ccc0       ?_Do_call@?$_Func_impl@V<lambda_2084e076f6151854c0db1be6acabce48>@@V?$allocator@H@std@@XPEAX@std@@EEAAX$$QEAPEAX@Z 000000018001dcc0 f i addon.obj
 0001:0001ccd0       ?_Move@?$_Func_impl@V<lambda_2084e076f6151854c0db1be6acabce48>@@V?$allocator@H@std@@XPEAX@std@@EEAAPEAV?$_Func_base@XPEAX@2@PEAX@Z 000000018001dcd0 f i addon.obj
 0001:0001ccd0       ?_Copy@?$_Func_impl@V<lambda_2084e076f6151854c0db1be6acabce48>@@V?$allocator@H@std@@XPEAX@std@@EEBAPEAV?$_Func_base@XPEAX@2@PEAX@Z 000000018001dcd0 f i addon.obj
 0001:0001ccf0       ?_Target_type@?$_Func_impl@V<lambda_06b3790a6438be8c984e27831cd7ebe1>@@V?$allocator@H@std@@XPEAU?$WebSocket@$00@uWS@@PEAD_K@std@@EEBAAEBVtype_info@@XZ 000000018001dcf0 f i addon.obj
 0001:0001cd00       ?_Do_call@?$_Func_impl@V<lambda_2ba66bc05ba93ca83268b0bf8e7eaaf7>@@V?$allocator@H@std@@XPEAU?$WebSocket@$00@uWS@@PEAD_K@std@@EEAAX$$QEAPEAU?$WebSocket@$00@uWS@@$$QEAPEAD$$QEA_K@Z 000000018001dd00 f i addon.obj
 0001:0001cd00       ?_Do_call@?$_Func_impl@V<lambda_5203bc642fa96e6a4d3687e7b4a8a1dd>@@V?$allocator@H@std@@XPEAU?$WebSocket@$0A@@uWS@@PEAD_K@std@@EEAAX$$QEAPEAU?$WebSocket@$0A@@uWS@@$$QEAPEAD$$QEA_K@Z 000000018001dd00 f i addon.obj
 0001:0001cd00       ?_Do_call@?$_Func_impl@V<lambda_06b3790a6438be8c984e27831cd7ebe1>@@V?$allocator@H@std@@XPEAU?$WebSocket@$00@uWS@@PEAD_K@std@@EEAAX$$QEAPEAU?$WebSocket@$00@uWS@@$$QEAPEAD$$QEA_K@Z 000000018001dd00 f i addon.obj
 0001:0001cd00       ?_Do_call@?$_Func_impl@V<lambda_47e56f5e9252a482bd9c0aa7befe2a4e>@@V?$allocator@H@std@@XPEAU?$WebSocket@$0A@@uWS@@PEAD_K@std@@EEAAX$$QEAPEAU?$WebSocket@$0A@@uWS@@$$QEAPEAD$$QEA_K@Z 000000018001dd00 f i addon.obj
 0001:0001cd20       ?_Move@?$_Func_impl@V<lambda_06b3790a6438be8c984e27831cd7ebe1>@@V?$allocator@H@std@@XPEAU?$WebSocket@$00@uWS@@PEAD_K@std@@EEAAPEAV?$_Func_base@XPEAU?$WebSocket@$00@uWS@@PEAD_K@2@PEAX@Z 000000018001dd20 f i addon.obj
 0001:0001cd20       ?_Copy@?$_Func_impl@V<lambda_06b3790a6438be8c984e27831cd7ebe1>@@V?$allocator@H@std@@XPEAU?$WebSocket@$00@uWS@@PEAD_K@std@@EEBAPEAV?$_Func_base@XPEAU?$WebSocket@$00@uWS@@PEAD_K@2@PEAX@Z 000000018001dd20 f i addon.obj
 0001:0001cd40       ?_Target_type@?$_Func_impl@V<lambda_2ba66bc05ba93ca83268b0bf8e7eaaf7>@@V?$allocator@H@std@@XPEAU?$WebSocket@$00@uWS@@PEAD_K@std@@EEBAAEBVtype_info@@XZ 000000018001dd40 f i addon.obj
 0001:0001cd50       ?_Move@?$_Func_impl@V<lambda_2ba66bc05ba93ca83268b0bf8e7eaaf7>@@V?$allocator@H@std@@XPEAU?$WebSocket@$00@uWS@@PEAD_K@std@@EEAAPEAV?$_Func_base@XPEAU?$WebSocket@$00@uWS@@PEAD_K@2@PEAX@Z 000000018001dd50 f i addon.obj
 0001:0001cd50       ?_Copy@?$_Func_impl@V<lambda_2ba66bc05ba93ca83268b0bf8e7eaaf7>@@V?$allocator@H@std@@XPEAU?$WebSocket@$00@uWS@@PEAD_K@std@@EEBAPEAV?$_Func_base@XPEAU?$WebSocket@$00@uWS@@PEAD_K@2@PEAX@Z 000000018001dd50 f i addon.obj
 0001:0001cd70       ?_Target_type@?$_Func_impl@V<lambda_b966d8f42a0351f524477ccae8980970>@@V?$allocator@H@std@@XPEAU?$WebSocket@$00@uWS@@HPEAD_K@std@@EEBAAEBVtype_info@@XZ 000000018001dd70 f i addon.obj
 0001:0001cd80       ?_Do_call@?$_Func_impl@V<lambda_c75e75b8ce235a770095cf5e3315fdec>@@V?$allocator@H@std@@XPEAU?$WebSocket@$0A@@uWS@@HPEAD_K@std@@EEAAX$$QEAPEAU?$WebSocket@$0A@@uWS@@$$QEAH$$QEAPEAD$$QEA_K@Z 000000018001dd80 f i addon.obj
 0001:0001cd80       ?_Do_call@?$_Func_impl@V<lambda_b966d8f42a0351f524477ccae8980970>@@V?$allocator@H@std@@XPEAU?$WebSocket@$00@uWS@@HPEAD_K@std@@EEAAX$$QEAPEAU?$WebSocket@$00@uWS@@$$QEAH$$QEAPEAD$$QEA_K@Z 000000018001dd80 f i addon.obj
 0001:0001cda0       ?_Copy@?$_Func_impl@V<lambda_b966d8f42a0351f524477ccae8980970>@@V?$allocator@H@std@@XPEAU?$WebSocket@$00@uWS@@HPEAD_K@std@@EEBAPEAV?$_Func_base@XPEAU?$WebSocket@$00@uWS@@HPEAD_K@2@PEAX@Z 000000018001dda0 f i addon.obj
 0001:0001cda0       ?_Move@?$_Func_impl@V<lambda_b966d8f42a0351f524477ccae8980970>@@V?$allocator@H@std@@XPEAU?$WebSocket@$00@uWS@@HPEAD_K@std@@EEAAPEAV?$_Func_base@XPEAU?$WebSocket@$00@uWS@@HPEAD_K@2@PEAX@Z 000000018001dda0 f i addon.obj
 0001:0001cdd0       ?_Target_type@?$_Func_impl@V<lambda_4acf657190c75d6154df1f8279f608b3>@@V?$allocator@H@std@@XPEAU?$WebSocket@$00@uWS@@PEAD_KW4OpCode@5@@std@@EEBAAEBVtype_info@@XZ 000000018001ddd0 f i addon.obj
 0001:0001cde0       ?_Do_call@?$_Func_impl@V<lambda_4acf657190c75d6154df1f8279f608b3>@@V?$allocator@H@std@@XPEAU?$WebSocket@$00@uWS@@PEAD_KW4OpCode@5@@std@@EEAAX$$QEAPEAU?$WebSocket@$00@uWS@@$$QEAPEAD$$QEA_K$$QEAW4OpCode@4@@Z 000000018001dde0 f i addon.obj
 0001:0001cde0       ?_Do_call@?$_Func_impl@V<lambda_1ea449dbbe6c4a9ff2706a11ec691fab>@@V?$allocator@H@std@@XPEAU?$WebSocket@$0A@@uWS@@PEAD_KW4OpCode@5@@std@@EEAAX$$QEAPEAU?$WebSocket@$0A@@uWS@@$$QEAPEAD$$QEA_K$$QEAW4OpCode@4@@Z 000000018001dde0 f i addon.obj
 0001:0001ce00       ?_Move@?$_Func_impl@V<lambda_4acf657190c75d6154df1f8279f608b3>@@V?$allocator@H@std@@XPEAU?$WebSocket@$00@uWS@@PEAD_KW4OpCode@5@@std@@EEAAPEAV?$_Func_base@XPEAU?$WebSocket@$00@uWS@@PEAD_KW4OpCode@2@@2@PEAX@Z 000000018001de00 f i addon.obj
 0001:0001ce00       ?_Copy@?$_Func_impl@V<lambda_4acf657190c75d6154df1f8279f608b3>@@V?$allocator@H@std@@XPEAU?$WebSocket@$00@uWS@@PEAD_KW4OpCode@5@@std@@EEBAPEAV?$_Func_base@XPEAU?$WebSocket@$00@uWS@@PEAD_KW4OpCode@2@@2@PEAX@Z 000000018001de00 f i addon.obj
 0001:0001ce20       ?_Target_type@?$_Func_impl@V<lambda_faaa5f5890ff3be9fbce2836205fee3b>@@V?$allocator@H@std@@XPEAU?$WebSocket@$00@uWS@@UHttpRequest@5@@std@@EEBAAEBVtype_info@@XZ 000000018001de20 f i addon.obj
 0001:0001ce30       ?_Do_call@?$_Func_impl@V<lambda_fadd044f7e86bc60b9387df73115f306>@@V?$allocator@H@std@@XPEAU?$WebSocket@$0A@@uWS@@UHttpRequest@5@@std@@EEAAX$$QEAPEAU?$WebSocket@$0A@@uWS@@$$QEAUHttpRequest@4@@Z 000000018001de30 f i addon.obj
 0001:0001ce30       ?_Do_call@?$_Func_impl@V<lambda_faaa5f5890ff3be9fbce2836205fee3b>@@V?$allocator@H@std@@XPEAU?$WebSocket@$00@uWS@@UHttpRequest@5@@std@@EEAAX$$QEAPEAU?$WebSocket@$00@uWS@@$$QEAUHttpRequest@4@@Z 000000018001de30 f i addon.obj
 0001:0001ce40       ?_Move@?$_Func_impl@V<lambda_faaa5f5890ff3be9fbce2836205fee3b>@@V?$allocator@H@std@@XPEAU?$WebSocket@$00@uWS@@UHttpRequest@5@@std@@EEAAPEAV?$_Func_base@XPEAU?$WebSocket@$00@uWS@@UHttpRequest@2@@2@PEAX@Z 000000018001de40 f i addon.obj
 0001:0001ce40       ?_Copy@?$_Func_impl@V<lambda_faaa5f5890ff3be9fbce2836205fee3b>@@V?$allocator@H@std@@XPEAU?$WebSocket@$00@uWS@@UHttpRequest@5@@std@@EEBAPEAV?$_Func_base@XPEAU?$WebSocket@$00@uWS@@UHttpRequest@2@@2@PEAX@Z 000000018001de40 f i addon.obj
 0001:0001ce70       ?_Target_type@?$_Func_impl@V<lambda_5203bc642fa96e6a4d3687e7b4a8a1dd>@@V?$allocator@H@std@@XPEAU?$WebSocket@$0A@@uWS@@PEAD_K@std@@EEBAAEBVtype_info@@XZ 000000018001de70 f i addon.obj
 0001:0001ce80       ?_Copy@?$_Func_impl@V<lambda_5203bc642fa96e6a4d3687e7b4a8a1dd>@@V?$allocator@H@std@@XPEAU?$WebSocket@$0A@@uWS@@PEAD_K@std@@EEBAPEAV?$_Func_base@XPEAU?$WebSocket@$0A@@uWS@@PEAD_K@2@PEAX@Z 000000018001de80 f i addon.obj
 0001:0001ce80       ?_Move@?$_Func_impl@V<lambda_5203bc642fa96e6a4d3687e7b4a8a1dd>@@V?$allocator@H@std@@XPEAU?$WebSocket@$0A@@uWS@@PEAD_K@std@@EEAAPEAV?$_Func_base@XPEAU?$WebSocket@$0A@@uWS@@PEAD_K@2@PEAX@Z 000000018001de80 f i addon.obj
 0001:0001cea0       ?_Target_type@?$_Func_impl@V<lambda_47e56f5e9252a482bd9c0aa7befe2a4e>@@V?$allocator@H@std@@XPEAU?$WebSocket@$0A@@uWS@@PEAD_K@std@@EEBAAEBVtype_info@@XZ 000000018001dea0 f i addon.obj
 0001:0001ceb0       ?_Move@?$_Func_impl@V<lambda_47e56f5e9252a482bd9c0aa7befe2a4e>@@V?$allocator@H@std@@XPEAU?$WebSocket@$0A@@uWS@@PEAD_K@std@@EEAAPEAV?$_Func_base@XPEAU?$WebSocket@$0A@@uWS@@PEAD_K@2@PEAX@Z 000000018001deb0 f i addon.obj
 0001:0001ceb0       ?_Copy@?$_Func_impl@V<lambda_47e56f5e9252a482bd9c0aa7befe2a4e>@@V?$allocator@H@std@@XPEAU?$WebSocket@$0A@@uWS@@PEAD_K@std@@EEBAPEAV?$_Func_base@XPEAU?$WebSocket@$0A@@uWS@@PEAD_K@2@PEAX@Z 000000018001deb0 f i addon.obj
 0001:0001ced0       ?_Target_type@?$_Func_impl@V<lambda_c75e75b8ce235a770095cf5e3315fdec>@@V?$allocator@H@std@@XPEAU?$WebSocket@$0A@@uWS@@HPEAD_K@std@@EEBAAEBVtype_info@@XZ 000000018001ded0 f i addon.obj
 0001:0001cee0       ?_Copy@?$_Func_impl@V<lambda_c75e75b8ce235a770095cf5e3315fdec>@@V?$allocator@H@std@@XPEAU?$WebSocket@$0A@@uWS@@HPEAD_K@std@@EEBAPEAV?$_Func_base@XPEAU?$WebSocket@$0A@@uWS@@HPEAD_K@2@PEAX@Z 000000018001dee0 f i addon.obj
 0001:0001cee0       ?_Move@?$_Func_impl@V<lambda_c75e75b8ce235a770095cf5e3315fdec>@@V?$allocator@H@std@@XPEAU?$WebSocket@$0A@@uWS@@HPEAD_K@std@@EEAAPEAV?$_Func_base@XPEAU?$WebSocket@$0A@@uWS@@HPEAD_K@2@PEAX@Z 000000018001dee0 f i addon.obj
 0001:0001cf10       ?_Target_type@?$_Func_impl@V<lambda_1ea449dbbe6c4a9ff2706a11ec691fab>@@V?$allocator@H@std@@XPEAU?$WebSocket@$0A@@uWS@@PEAD_KW4OpCode@5@@std@@EEBAAEBVtype_info@@XZ 000000018001df10 f i addon.obj
 0001:0001cf20       ?_Move@?$_Func_impl@V<lambda_1ea449dbbe6c4a9ff2706a11ec691fab>@@V?$allocator@H@std@@XPEAU?$WebSocket@$0A@@uWS@@PEAD_KW4OpCode@5@@std@@EEAAPEAV?$_Func_base@XPEAU?$WebSocket@$0A@@uWS@@PEAD_KW4OpCode@2@@2@PEAX@Z 000000018001df20 f i addon.obj
 0001:0001cf20       ?_Copy@?$_Func_impl@V<lambda_1ea449dbbe6c4a9ff2706a11ec691fab>@@V?$allocator@H@std@@XPEAU?$WebSocket@$0A@@uWS@@PEAD_KW4OpCode@5@@std@@EEBAPEAV?$_Func_base@XPEAU?$WebSocket@$0A@@uWS@@PEAD_KW4OpCode@2@@2@PEAX@Z 000000018001df20 f i addon.obj
 0001:0001cf40       ?_Target_type@?$_Func_impl@V<lambda_fadd044f7e86bc60b9387df73115f306>@@V?$allocator@H@std@@XPEAU?$WebSocket@$0A@@uWS@@UHttpRequest@5@@std@@EEBAAEBVtype_info@@XZ 000000018001df40 f i addon.obj
 0001:0001cf50       ?_Copy@?$_Func_impl@V<lambda_fadd044f7e86bc60b9387df73115f306>@@V?$allocator@H@std@@XPEAU?$WebSocket@$0A@@uWS@@UHttpRequest@5@@std@@EEBAPEAV?$_Func_base@XPEAU?$WebSocket@$0A@@uWS@@UHttpRequest@2@@2@PEAX@Z 000000018001df50 f i addon.obj
 0001:0001cf50       ?_Move@?$_Func_impl@V<lambda_fadd044f7e86bc60b9387df73115f306>@@V?$allocator@H@std@@XPEAU?$WebSocket@$0A@@uWS@@UHttpRequest@5@@std@@EEAAPEAV?$_Func_base@XPEAU?$WebSocket@$0A@@uWS@@UHttpRequest@2@@2@PEAX@Z 000000018001df50 f i addon.obj
 0001:0001cfcc       __imp_load_uv_close        000000018001dfcc f   node:node.exe
 0001:0001cfd8       __tailMerge_node_exe       000000018001dfd8 f i node:node.exe
 0001:0001d051       __imp_load_SSL_free        000000018001e051 f   node:node.exe
 0001:0001d05d       __imp_load_uv_poll_stop    000000018001e05d f   node:node.exe
 0001:0001d069       __imp_load_uv_timer_init   000000018001e069 f   node:node.exe
 0001:0001d075       __imp_load_uv_timer_stop   000000018001e075 f   node:node.exe
 0001:0001d081       __imp_load_inflateEnd      000000018001e081 f   node:node.exe
 0001:0001d08d       __imp_load_SSL_set_fd      000000018001e08d f   node:node.exe
 0001:0001d099       __imp_load_uv_fileno       000000018001e099 f   node:node.exe
 0001:0001d0a5       __imp_load_inflateInit2_   000000018001e0a5 f   node:node.exe
 0001:0001d0b1       __imp_load_uv_timer_start  000000018001e0b1 f   node:node.exe
 0001:0001d0bd       __imp_load_uv_poll_init_socket 000000018001e0bd f   node:node.exe
 0001:0001d0c9       __imp_load_SSL_write       000000018001e0c9 f   node:node.exe
 0001:0001d0d5       __imp_load_SSL_ctrl        000000018001e0d5 f   node:node.exe
 0001:0001d0e1       __imp_load_uv_async_send   000000018001e0e1 f   node:node.exe
 0001:0001d0ed       __imp_load_uv_poll_start   000000018001e0ed f   node:node.exe
 0001:0001d0f9       __imp_load_uv_async_init   000000018001e0f9 f   node:node.exe
 0001:0001d105       __imp_load_SSL_shutdown    000000018001e105 f   node:node.exe
 0001:0001d111       __imp_load_SSL_get_error   000000018001e111 f   node:node.exe
 0001:0001d11d       __imp_load_SSL_CTX_set_default_passwd_cb 000000018001e11d f   node:node.exe
 0001:0001d129       __imp_load_SSL_CTX_free    000000018001e129 f   node:node.exe
 0001:0001d135       __imp_load_SSL_CTX_ctrl    000000018001e135 f   node:node.exe
 0001:0001d141       __imp_load_SSL_library_init 000000018001e141 f   node:node.exe
 0001:0001d14d       __imp_load_SSL_CTX_use_PrivateKey_file 000000018001e14d f   node:node.exe
 0001:0001d159       __imp_load_SSL_CTX_new     000000018001e159 f   node:node.exe
 0001:0001d165       __imp_load_SSL_CTX_set_default_passwd_cb_userdata 000000018001e165 f   node:node.exe
 0001:0001d171       __imp_load_SSLv23_server_method 000000018001e171 f   node:node.exe
 0001:0001d17d       __imp_load_SSL_CTX_use_certificate_chain_file 000000018001e17d f   node:node.exe
 0001:0001d189       __imp_load_SSL_new         000000018001e189 f   node:node.exe
 0001:0001d195       __imp_load_SSL_want        000000018001e195 f   node:node.exe
 0001:0001d1a1       __imp_load_uv_is_closing   000000018001e1a1 f   node:node.exe
 0001:0001d1ad       __imp_load_inflate         000000018001e1ad f   node:node.exe
 0001:0001d1b9       __imp_load_SSL_pending     000000018001e1b9 f   node:node.exe
 0001:0001d1c5       __imp_load_SSL_read        000000018001e1c5 f   node:node.exe
 0001:0001d1d1       __imp_load_SSL_set_accept_state 000000018001e1d1 f   node:node.exe
 0001:0001d1dd       __imp_load_inflateReset    000000018001e1dd f   node:node.exe
 0001:0001d1e9       __imp_load_SSL_set_connect_state 000000018001e1e9 f   node:node.exe
 0001:0001d1f5       __imp_load_uv_run          000000018001e1f5 f   node:node.exe
 0001:0001d201       __imp_load_uv_loop_new     000000018001e201 f   node:node.exe
 0001:0001d20d       __imp_load_SSLv23_client_method 000000018001e20d f   node:node.exe
 0001:0001d219       __imp_load_uv_loop_delete  000000018001e219 f   node:node.exe
 0001:0001d225       __imp_load_uv_default_loop 000000018001e225 f   node:node.exe
 0001:0001d231       __imp_load_SHA1            000000018001e231 f   node:node.exe
 0001:0001d23d       __imp_load_uv_unref        000000018001e23d f   node:node.exe
 0001:0001d249       __imp_load_?Global@Context@v8@@QEAA?AV?$Local@VObject@v8@@@2@XZ 000000018001e249 f   node:node.exe
 0001:0001d255       __imp_load_?Value@External@v8@@QEBAPEAXXZ 000000018001e255 f   node:node.exe
 0001:0001d261       __imp_load_?New@External@v8@@SA?AV?$Local@VExternal@v8@@@2@PEAVIsolate@2@PEAX@Z 000000018001e261 f   node:node.exe
 0001:0001d26d       __imp_load_?New@Integer@v8@@SA?AV?$Local@VInteger@v8@@@2@PEAVIsolate@2@H@Z 000000018001e26d f   node:node.exe
 0001:0001d279       __imp_load_?GetCurrentContext@Isolate@v8@@QEAA?AV?$Local@VContext@v8@@@2@XZ 000000018001e279 f   node:node.exe
 0001:0001d285       __imp_load_?GetCurrent@Isolate@v8@@SAPEAV12@XZ 000000018001e285 f   node:node.exe
 0001:0001d291       __imp_load_?CreateHandle@HandleScope@v8@@KAPEAPEAVObject@internal@2@PEAVIsolate@42@PEAV342@@Z 000000018001e291 f   node:node.exe
 0001:0001d29d       __imp_load_?CreateHandle@HandleScope@v8@@CAPEAPEAVObject@internal@2@PEAVHeapObject@42@PEAV342@@Z 000000018001e29d f   node:node.exe
 0001:0001d2a9       __imp_load_??1HandleScope@v8@@QEAA@XZ 000000018001e2a9 f   node:node.exe
 0001:0001d2b5       __imp_load_??0HandleScope@v8@@QEAA@PEAVIsolate@1@@Z 000000018001e2b5 f   node:node.exe
 0001:0001d2c1       __imp_load_?Set@Template@v8@@QEAAXV?$Local@VName@v8@@@2@V?$Local@VData@v8@@@2@W4PropertyAttribute@2@@Z 000000018001e2c1 f   node:node.exe
 0001:0001d2cd       __imp_load_?Buffer@ArrayBufferView@v8@@QEAA?AV?$Local@VArrayBuffer@v8@@@2@XZ 000000018001e2cd f   node:node.exe
 0001:0001d2d9       __imp_load_?New@Array@v8@@SA?AV?$Local@VArray@v8@@@2@PEAVIsolate@2@H@Z 000000018001e2d9 f   node:node.exe
 0001:0001d2e5       __imp_load_?Length@Array@v8@@QEBAIXZ 000000018001e2e5 f   node:node.exe
 0001:0001d2f1       __imp_load_?SetClassName@FunctionTemplate@v8@@QEAAXV?$Local@VString@v8@@@2@@Z 000000018001e2f1 f   node:node.exe
 0001:0001d2fd       __imp_load_?PrototypeTemplate@FunctionTemplate@v8@@QEAA?AV?$Local@VObjectTemplate@v8@@@2@XZ 000000018001e2fd f   node:node.exe
 0001:0001d309       __imp_load_?InstanceTemplate@FunctionTemplate@v8@@QEAA?AV?$Local@VObjectTemplate@v8@@@2@XZ 000000018001e309 f   node:node.exe
 0001:0001d315       __imp_load_?GetFunction@FunctionTemplate@v8@@QEAA?AV?$Local@VFunction@v8@@@2@XZ 000000018001e315 f   node:node.exe
 0001:0001d321       __imp_load_?New@FunctionTemplate@v8@@SA?AV?$Local@VFunctionTemplate@v8@@@2@PEAVIsolate@2@P6AXAEBV?$FunctionCallbackInfo@VValue@v8@@@2@@ZV?$Local@VValue@v8@@@2@V?$Local@VSignature@v8@@@2@H@Z 000000018001e321 f   node:node.exe
 0001:0001d32d       __imp_load_?GetContents@ArrayBuffer@v8@@QEAA?AVContents@12@XZ 000000018001e32d f   node:node.exe
 0001:0001d339       __imp_load_?New@ArrayBuffer@v8@@SA?AV?$Local@VArrayBuffer@v8@@@2@PEAVIsolate@2@PEAX_KW4ArrayBufferCreationMode@2@@Z 000000018001e339 f   node:node.exe
 0001:0001d345       __imp_load_?DisposeGlobal@V8@v8@@CAXPEAPEAVObject@internal@2@@Z 000000018001e345 f   node:node.exe
 0001:0001d351       __imp_load_?GlobalizeReference@V8@v8@@CAPEAPEAVObject@internal@2@PEAVIsolate@42@PEAPEAV342@@Z 000000018001e351 f   node:node.exe
 0001:0001d35d       __imp_load_?IntegerValue@Value@v8@@QEBA_JXZ 000000018001e35d f   node:node.exe
 0001:0001d369       __imp_load_?BooleanValue@Value@v8@@QEBA_NXZ 000000018001e369 f   node:node.exe
 0001:0001d375       __imp_load_?IsTypedArray@Value@v8@@QEBA_NXZ 000000018001e375 f   node:node.exe
 0001:0001d381       __imp_load_?IsArrayBuffer@Value@v8@@QEBA_NXZ 000000018001e381 f   node:node.exe
 0001:0001d38d       __imp_load_?IsExternal@Value@v8@@QEBA_NXZ 000000018001e38d f   node:node.exe
 0001:0001d399       __imp_load_?IsObject@Value@v8@@QEBA_NXZ 000000018001e399 f   node:node.exe
 0001:0001d3a5       __imp_load_?IsFunction@Value@v8@@QEBA_NXZ 000000018001e3a5 f   node:node.exe
 0001:0001d3b1       __imp_load_??1Utf8Value@String@v8@@QEAA@XZ 000000018001e3b1 f   node:node.exe
 0001:0001d3bd       __imp_load_??0Utf8Value@String@v8@@QEAA@V?$Local@VValue@v8@@@2@@Z 000000018001e3bd f   node:node.exe
 0001:0001d3c9       __imp_load_?NewFromOneByte@String@v8@@SA?AV?$Local@VString@v8@@@2@PEAVIsolate@2@PEBEW4NewStringType@12@H@Z 000000018001e3c9 f   node:node.exe
 0001:0001d3d5       __imp_load_?NewFromUtf8@String@v8@@SA?AV?$Local@VString@v8@@@2@PEAVIsolate@2@PEBDW4NewStringType@12@H@Z 000000018001e3d5 f   node:node.exe
 0001:0001d3e1       __imp_load_?SlowGetAlignedPointerFromInternalField@Object@v8@@AEAAPEAXH@Z 000000018001e3e1 f   node:node.exe
 0001:0001d3ed       __imp_load_?SlowGetInternalField@Object@v8@@AEAA?AV?$Local@VValue@v8@@@2@H@Z 000000018001e3ed f   node:node.exe
 0001:0001d3f9       __imp_load_?New@Object@v8@@SA?AV?$Local@VObject@v8@@@2@PEAVIsolate@2@@Z 000000018001e3f9 f   node:node.exe
 0001:0001d405       __imp_load_?GetIsolate@Object@v8@@QEAAPEAVIsolate@2@XZ 000000018001e405 f   node:node.exe
 0001:0001d411       __imp_load_?Clone@Object@v8@@QEAA?AV?$Local@VObject@v8@@@2@XZ 000000018001e411 f   node:node.exe
 0001:0001d41d       __imp_load_?SetAlignedPointerInInternalField@Object@v8@@QEAAXHPEAX@Z 000000018001e41d f   node:node.exe
 0001:0001d429       __imp_load_?SetInternalField@Object@v8@@QEAAXHV?$Local@VValue@v8@@@2@@Z 000000018001e429 f   node:node.exe
 0001:0001d435       __imp_load_?SetPrototype@Object@v8@@QEAA_NV?$Local@VValue@v8@@@2@@Z 000000018001e435 f   node:node.exe
 0001:0001d441       __imp_load_?GetPrototype@Object@v8@@QEAA?AV?$Local@VValue@v8@@@2@XZ 000000018001e441 f   node:node.exe
 0001:0001d44d       __imp_load_?GetOwnPropertyNames@Object@v8@@QEAA?AV?$Local@VArray@v8@@@2@XZ 000000018001e44d f   node:node.exe
 0001:0001d459       __imp_load_?Get@Object@v8@@QEAA?AV?$Local@VValue@v8@@@2@V32@@Z 000000018001e459 f   node:node.exe
 0001:0001d465       __imp_load_?Get@Object@v8@@QEAA?AV?$Local@VValue@v8@@@2@I@Z 000000018001e465 f   node:node.exe
 0001:0001d471       __imp_load_?Set@Object@v8@@QEAA_NV?$Local@VValue@v8@@@2@0@Z 000000018001e471 f   node:node.exe
 0001:0001d47d       __imp_load_?Set@Object@v8@@QEAA_NIV?$Local@VValue@v8@@@2@@Z 000000018001e47d f   node:node.exe
 0001:0001d489       __imp_load_?SetName@Function@v8@@QEAAXV?$Local@VString@v8@@@2@@Z 000000018001e489 f   node:node.exe
 0001:0001d495       __imp_load_?Call@Function@v8@@QEAA?AV?$Local@VValue@v8@@@2@V32@HQEAV32@@Z 000000018001e495 f   node:node.exe
 0001:0001d4a1       __imp_load_?NewInstance@Function@v8@@QEBA?AV?$Local@VObject@v8@@@2@XZ 000000018001e4a1 f   node:node.exe
 0001:0001d4ad       __imp_load_?SetInternalFieldCount@ObjectTemplate@v8@@QEAAXH@Z 000000018001e4ad f   node:node.exe
 0001:0001d4b9       __imp_load_?SetNamedPropertyHandler@ObjectTemplate@v8@@QEAAXP6AXV?$Local@VString@v8@@@2@AEBV?$PropertyCallbackInfo@VValue@v8@@@2@@ZP6AX0V?$Local@VValue@v8@@@2@1@ZP6AX0AEBV?$PropertyCallbackInfo@VInteger@v8@@@2@@ZP6AX0AEBV?$PropertyCallbackInfo@VBoolean@v8@@@2@@ZP6AXAEBV?$PropertyCallbackInfo@VArray@v8@@@2@@Z3@Z 000000018001e4b9 f   node:node.exe
 0001:0001d4c5       __imp_load_?SetAccessor@ObjectTemplate@v8@@QEAAXV?$Local@VString@v8@@@2@P6AX0AEBV?$PropertyCallbackInfo@VValue@v8@@@2@@ZP6AX0V?$Local@VValue@v8@@@2@AEBV?$PropertyCallbackInfo@X@2@@Z3W4AccessControl@2@W4PropertyAttribute@2@V?$Local@VAccessorSignature@v8@@@2@@Z 000000018001e4c5 f   node:node.exe
 0001:0001d4d1       __imp_load_?NewInstance@ObjectTemplate@v8@@QEAA?AV?$Local@VObject@v8@@@2@XZ 000000018001e4d1 f   node:node.exe
 0001:0001d4dd       __imp_load_?New@ObjectTemplate@v8@@SA?AV?$Local@VObjectTemplate@v8@@@2@PEAVIsolate@2@V?$Local@VFunctionTemplate@v8@@@2@@Z 000000018001e4dd f   node:node.exe
 0001:0001d4e9       __imp_load_node_module_register 000000018001e4e9 f   node:node.exe
 0001:0001d4f5       __imp_load_?HasInstance@Buffer@node@@YA_NV?$Local@VValue@v8@@@v8@@@Z 000000018001e4f5 f   node:node.exe
 0001:0001d501       __imp_load_?Data@Buffer@node@@YAPEADV?$Local@VValue@v8@@@v8@@@Z 000000018001e501 f   node:node.exe
 0001:0001d50d       __imp_load_?Length@Buffer@node@@YA_KV?$Local@VValue@v8@@@v8@@@Z 000000018001e50d f   node:node.exe
 0001:0001d519       __imp_load_?MakeCallback@node@@YA?AV?$Local@VValue@v8@@@v8@@PEAVIsolate@3@V?$Local@VObject@v8@@@3@V?$Local@VFunction@v8@@@3@HPEAV23@@Z 000000018001e519 f   node:node.exe
 0001:0001d525       __imp_load_uv_check_init   000000018001e525 f   node:node.exe
 0001:0001d531       __imp_load_uv_check_start  000000018001e531 f   node:node.exe
 0001:0001d53d       __imp_load_?ToObject@Value@v8@@QEBA?AV?$Local@VObject@v8@@@2@XZ 000000018001e53d f   node:node.exe
 0001:0001d54c       ??0bad_alloc@std@@QEAA@AEBV01@@Z 000000018001e54c f i libcpmt:xthrow.obj
 0001:0001d58c       ??0bad_alloc@std@@QEAA@XZ  000000018001e58c f i libcpmt:xthrow.obj
 0001:0001d5ac       ??0bad_function_call@std@@QEAA@AEBV01@@Z 000000018001e5ac f i libcpmt:xthrow.obj
 0001:0001d5ec       ??0bad_function_call@std@@QEAA@XZ 000000018001e5ec f i libcpmt:xthrow.obj
 0001:0001d604       ??0exception@std@@QEAA@AEBV01@@Z 000000018001e604 f i libcpmt:xthrow.obj
 0001:0001d63c       ??0invalid_argument@std@@QEAA@AEBV01@@Z 000000018001e63c f i libcpmt:xthrow.obj
 0001:0001d67c       ??0invalid_argument@std@@QEAA@PEBD@Z 000000018001e67c f i libcpmt:xthrow.obj
 0001:0001d6c8       ??0length_error@std@@QEAA@AEBV01@@Z 000000018001e6c8 f i libcpmt:xthrow.obj
 0001:0001d708       ??0length_error@std@@QEAA@PEBD@Z 000000018001e708 f i libcpmt:xthrow.obj
 0001:0001d754       ??0logic_error@std@@QEAA@AEBV01@@Z 000000018001e754 f i libcpmt:xthrow.obj
 0001:0001d794       ??0out_of_range@std@@QEAA@AEBV01@@Z 000000018001e794 f i libcpmt:xthrow.obj
 0001:0001d7d4       ??0out_of_range@std@@QEAA@PEBD@Z 000000018001e7d4 f i libcpmt:xthrow.obj
 0001:0001d820       ??0runtime_error@std@@QEAA@AEBV01@@Z 000000018001e820 f i libcpmt:xthrow.obj
 0001:0001d860       ??_Elogic_error@std@@UEAAPEAXI@Z 000000018001e860 f i libcpmt:xthrow.obj
 0001:0001d860       ??_Gmissing_wait@Concurrency@@UEAAPEAXI@Z 000000018001e860 f i libconcrt:Exceptions.obj
 0001:0001d860       ??_Gbad_array_new_length@std@@UEAAPEAXI@Z 000000018001e860 f i LIBCMT:throw_bad_alloc.obj
 0001:0001d860       ??_Eout_of_range@std@@UEAAPEAXI@Z 000000018001e860 f i libcpmt:xthrow.obj
 0001:0001d860       ??_Eimproper_scheduler_attach@Concurrency@@UEAAPEAXI@Z 000000018001e860 f i libconcrt:Exceptions.obj
 0001:0001d860       ??_Ginvalid_oversubscribe_operation@Concurrency@@UEAAPEAXI@Z 000000018001e860 f i libconcrt:Exceptions.obj
 0001:0001d860       ??_Einvalid_oversubscribe_operation@Concurrency@@UEAAPEAXI@Z 000000018001e860 f i libconcrt:Exceptions.obj
 0001:0001d860       ??_Eexception@std@@UEAAPEAXI@Z 000000018001e860 f i libcpmt:xthrow.obj
 0001:0001d860       ??_Ginvalid_scheduler_policy_thread_specification@Concurrency@@UEAAPEAXI@Z 000000018001e860 f i libconcrt:Exceptions.obj
 0001:0001d860       ??_Eimproper_scheduler_reference@Concurrency@@UEAAPEAXI@Z 000000018001e860 f i libconcrt:Exceptions.obj
 0001:0001d860       ??_Elength_error@std@@UEAAPEAXI@Z 000000018001e860 f i libcpmt:xthrow.obj
 0001:0001d860       ??_Ebad_array_new_length@std@@UEAAPEAXI@Z 000000018001e860 f i LIBCMT:throw_bad_alloc.obj
 0001:0001d860       ??_Glength_error@std@@UEAAPEAXI@Z 000000018001e860 f i libcpmt:xthrow.obj
 0001:0001d860       ??_Einvalid_argument@std@@UEAAPEAXI@Z 000000018001e860 f i libcpmt:xthrow.obj
 0001:0001d860       ??_G__non_rtti_object@std@@UEAAPEAXI@Z 000000018001e860 f i libvcruntime:rtti.obj
 0001:0001d860       ??_Econtext_self_unblock@Concurrency@@UEAAPEAXI@Z 000000018001e860 f i libconcrt:Exceptions.obj
 0001:0001d860       ??_Ebad_typeid@std@@UEAAPEAXI@Z 000000018001e860 f i libvcruntime:rtti.obj
 0001:0001d860       ??_Einvalid_scheduler_policy_value@Concurrency@@UEAAPEAXI@Z 000000018001e860 f i libconcrt:Exceptions.obj
 0001:0001d860       ??_Ginvalid_scheduler_policy_value@Concurrency@@UEAAPEAXI@Z 000000018001e860 f i libconcrt:Exceptions.obj
 0001:0001d860       ??_Econtext_unblock_unbalanced@Concurrency@@UEAAPEAXI@Z 000000018001e860 f i libconcrt:Exceptions.obj
 0001:0001d860       ??_Emissing_wait@Concurrency@@UEAAPEAXI@Z 000000018001e860 f i libconcrt:Exceptions.obj
 0001:0001d860       ??_Ginvalid_argument@std@@UEAAPEAXI@Z 000000018001e860 f i libcpmt:xthrow.obj
 0001:0001d860       ??_Enested_scheduler_missing_detach@Concurrency@@UEAAPEAXI@Z 000000018001e860 f i libconcrt:Exceptions.obj
 0001:0001d860       ??_Gimproper_scheduler_reference@Concurrency@@UEAAPEAXI@Z 000000018001e860 f i libconcrt:Exceptions.obj
 0001:0001d860       ??_Eimproper_lock@Concurrency@@UEAAPEAXI@Z 000000018001e860 f i libconcrt:rtlocks.obj
 0001:0001d860       ??_Glogic_error@std@@UEAAPEAXI@Z 000000018001e860 f i libcpmt:xthrow.obj
 0001:0001d860       ??_Gbad_alloc@std@@UEAAPEAXI@Z 000000018001e860 f i libcpmt:xthrow.obj
 0001:0001d860       ??_Einvalid_operation@Concurrency@@UEAAPEAXI@Z 000000018001e860 f i libconcrt:ResourceManager.obj
 0001:0001d860       ??_Ginvalid_scheduler_policy_key@Concurrency@@UEAAPEAXI@Z 000000018001e860 f i libconcrt:Exceptions.obj
 0001:0001d860       ??_Einvalid_scheduler_policy_key@Concurrency@@UEAAPEAXI@Z 000000018001e860 f i libconcrt:Exceptions.obj
 0001:0001d860       ??_Ebad_exception@std@@UEAAPEAXI@Z 000000018001e860 f i libvcruntime:frame.obj
 0001:0001d860       ??_Ginvalid_operation@Concurrency@@UEAAPEAXI@Z 000000018001e860 f i libconcrt:ResourceManager.obj
 0001:0001d860       ??_Eunsupported_os@Concurrency@@UEAAPEAXI@Z 000000018001e860 f i libconcrt:Exceptions.obj
 0001:0001d860       ??_Gimproper_scheduler_attach@Concurrency@@UEAAPEAXI@Z 000000018001e860 f i libconcrt:Exceptions.obj
 0001:0001d860       ??_Ebad_function_call@std@@UEAAPEAXI@Z 000000018001e860 f i libcpmt:xthrow.obj
 0001:0001d860       ??_G_Interruption_exception@details@Concurrency@@UEAAPEAXI@Z 000000018001e860 f i libconcrt:TaskCollection.obj
 0001:0001d860       ??_Gbad_exception@std@@UEAAPEAXI@Z 000000018001e860 f i libvcruntime:frame.obj
 0001:0001d860       ??_Gimproper_lock@Concurrency@@UEAAPEAXI@Z 000000018001e860 f i libconcrt:rtlocks.obj
 0001:0001d860       ??_Gunsupported_os@Concurrency@@UEAAPEAXI@Z 000000018001e860 f i libconcrt:Exceptions.obj
 0001:0001d860       ??_Gnested_scheduler_missing_detach@Concurrency@@UEAAPEAXI@Z 000000018001e860 f i libconcrt:Exceptions.obj
 0001:0001d860       ??_Gbad_typeid@std@@UEAAPEAXI@Z 000000018001e860 f i libvcruntime:rtti.obj
 0001:0001d860       ??_E_Interruption_exception@details@Concurrency@@UEAAPEAXI@Z 000000018001e860 f i libconcrt:TaskCollection.obj
 0001:0001d860       ??_Gexception@std@@UEAAPEAXI@Z 000000018001e860 f i libcpmt:xthrow.obj
 0001:0001d860       ??_Einvalid_scheduler_policy_thread_specification@Concurrency@@UEAAPEAXI@Z 000000018001e860 f i libconcrt:Exceptions.obj
 0001:0001d860       ??_Gcontext_self_unblock@Concurrency@@UEAAPEAXI@Z 000000018001e860 f i libconcrt:Exceptions.obj
 0001:0001d860       ??_E__non_rtti_object@std@@UEAAPEAXI@Z 000000018001e860 f i libvcruntime:rtti.obj
 0001:0001d860       ??_Gcontext_unblock_unbalanced@Concurrency@@UEAAPEAXI@Z 000000018001e860 f i libconcrt:Exceptions.obj
 0001:0001d860       ??_Gbad_function_call@std@@UEAAPEAXI@Z 000000018001e860 f i libcpmt:xthrow.obj
 0001:0001d860       ??_Ebad_alloc@std@@UEAAPEAXI@Z 000000018001e860 f i libcpmt:xthrow.obj
 0001:0001d860       ??_Gout_of_range@std@@UEAAPEAXI@Z 000000018001e860 f i libcpmt:xthrow.obj
 0001:0001d860       ??_Ebad_cast@std@@UEAAPEAXI@Z 000000018001e860 f i libcpmt:cout.obj
 0001:0001d860       ??_Gbad_cast@std@@UEAAPEAXI@Z 000000018001e860 f i libcpmt:cout.obj
 0001:0001d8a4       ?_Xbad_alloc@std@@YAXXZ    000000018001e8a4 f   libcpmt:xthrow.obj
 0001:0001d8a4       ?__scrt_throw_std_bad_alloc@@YAXXZ 000000018001e8a4 f   LIBCMT:throw_bad_alloc.obj
 0001:0001d8c4       ?_Xbad_function_call@std@@YAXXZ 000000018001e8c4 f   libcpmt:xthrow.obj
 0001:0001d8e4       ?_Xinvalid_argument@std@@YAXPEBD@Z 000000018001e8e4 f   libcpmt:xthrow.obj
 0001:0001d908       ?_Xlength_error@std@@YAXPEBD@Z 000000018001e908 f   libcpmt:xthrow.obj
 0001:0001d92c       ?_Xout_of_range@std@@YAXPEBD@Z 000000018001e92c f   libcpmt:xthrow.obj
 0001:0001d950       ?what@bad_function_call@std@@UEBAPEBDXZ 000000018001e950 f i libcpmt:xthrow.obj
 0001:0001d958       ?what@exception@std@@UEBAPEBDXZ 000000018001e958 f i libcpmt:xthrow.obj
 0001:0001d96c       ??0_System_error@std@@QEAA@AEBV01@@Z 000000018001e96c f i libcpmt:thread0.obj
 0001:0001d9c0       ??0system_error@std@@QEAA@AEBV01@@Z 000000018001e9c0 f i libcpmt:thread0.obj
 0001:0001da1c       ??0system_error@std@@QEAA@HAEBVerror_category@1@PEBD@Z 000000018001ea1c f i libcpmt:thread0.obj
 0001:0001dae8       ?_Throw_C_error@std@@YAXH@Z 000000018001eae8 f   libcpmt:thread0.obj
 0001:0001db24       ?_Throw_Cpp_error@std@@YAXH@Z 000000018001eb24 f   libcpmt:thread0.obj
 0001:0001db6c       ?generic_category@std@@YAAEBVerror_category@1@XZ 000000018001eb6c f i libcpmt:thread0.obj
 0001:0001dbb4       ??1GlobalCore@details@Concurrency@@QEAA@XZ 000000018001ebb4 f i libcpmt:mutex.obj
 0001:0001dbc4       ?create_stl_critical_section@details@Concurrency@@YAXPEAVstl_critical_section_interface@12@@Z 000000018001ebc4 f i libcpmt:mutex.obj
 0001:0001dc6c       ?destroy@stl_critical_section_concrt@details@Concurrency@@UEAAXXZ 000000018001ec6c f i libcpmt:mutex.obj
 0001:0001dc78       ?destroy@stl_critical_section_vista@details@Concurrency@@UEAAXXZ 000000018001ec78 f i libcpmt:mutex.obj
 0001:0001dc84       ?lock@stl_critical_section_concrt@details@Concurrency@@UEAAXXZ 000000018001ec84 f i libcpmt:mutex.obj
 0001:0001dc90       ?lock@stl_critical_section_vista@details@Concurrency@@UEAAXXZ 000000018001ec90 f i libcpmt:mutex.obj
 0001:0001dc9c       ?lock@stl_critical_section_win7@details@Concurrency@@UEAAXXZ 000000018001ec9c f i libcpmt:mutex.obj
 0001:0001de3c       ?try_lock@stl_critical_section_concrt@details@Concurrency@@UEAA_NXZ 000000018001ee3c f i libcpmt:mutex.obj
 0001:0001de48       ?try_lock_for@stl_critical_section_vista@details@Concurrency@@UEAA_NI@Z 000000018001ee48 f i libcpmt:mutex.obj
 0001:0001de48       ?try_lock@stl_critical_section_vista@details@Concurrency@@UEAA_NXZ 000000018001ee48 f i libcpmt:mutex.obj
 0001:0001de60       ?try_lock@stl_critical_section_win7@details@Concurrency@@UEAA_NXZ 000000018001ee60 f i libcpmt:mutex.obj
 0001:0001de60       ?try_lock_for@stl_critical_section_win7@details@Concurrency@@UEAA_NI@Z 000000018001ee60 f i libcpmt:mutex.obj
 0001:0001de78       ?try_lock_for@stl_critical_section_concrt@details@Concurrency@@UEAA_NI@Z 000000018001ee78 f i libcpmt:mutex.obj
 0001:0001de84       ?unlock@stl_critical_section_concrt@details@Concurrency@@UEAAXXZ 000000018001ee84 f i libcpmt:mutex.obj
 0001:0001de90       ?unlock@stl_critical_section_vista@details@Concurrency@@UEAAXXZ 000000018001ee90 f i libcpmt:mutex.obj
 0001:0001de9c       ?unlock@stl_critical_section_win7@details@Concurrency@@UEAAXXZ 000000018001ee9c f i libcpmt:mutex.obj
 0001:0001dea8       _Mtx_clear_owner           000000018001eea8 f   libcpmt:mutex.obj
 0001:0001deb0       _Mtx_destroy_in_situ       000000018001eeb0 f   libcpmt:mutex.obj
 0001:0001dee0       _Mtx_init_in_situ          000000018001eee0 f   libcpmt:mutex.obj
 0001:0001df10       _Mtx_lock                  000000018001ef10 f   libcpmt:mutex.obj
 0001:0001df18       _Mtx_reset_owner           000000018001ef18 f   libcpmt:mutex.obj
 0001:0001df34       _Mtx_unlock                000000018001ef34 f   libcpmt:mutex.obj
 0001:0001df70       ??0_Init_locks@std@@QEAA@XZ 000000018001ef70 f   libcpmt:xlock.obj
 0001:0001dfbc       ??0_Lockit@std@@QEAA@H@Z   000000018001efbc f   libcpmt:xlock.obj
 0001:0001dff8       ??1_Init_locks@std@@QEAA@XZ 000000018001eff8 f   libcpmt:xlock.obj
 0001:0001e03c       ??1_Lockit@std@@QEAA@XZ    000000018001f03c f   libcpmt:xlock.obj
 0001:0001e070       ??$use_facet@V?$codecvt@DDU_Mbstatet@@@std@@@std@@YAAEBV?$codecvt@DDU_Mbstatet@@@0@AEBVlocale@0@@Z 000000018001f070 f i libcpmt:cout.obj
 0001:0001e1a8       ??0?$basic_ostream@DU?$char_traits@D@std@@@std@@QEAA@PEAV?$basic_streambuf@DU?$char_traits@D@std@@@1@_N@Z 000000018001f1a8 f i libcpmt:cout.obj
 0001:0001e270       ??0?$basic_streambuf@DU?$char_traits@D@std@@@std@@IEAA@XZ 000000018001f270 f i libcpmt:cout.obj
 0001:0001e320       ??0_Init_cout@std@@QEAA@XZ 000000018001f320 f i libcpmt:cout.obj
 0001:0001e38c       ??0bad_cast@std@@QEAA@AEBV01@@Z 000000018001f38c f i libcpmt:cout.obj
 0001:0001e3cc       ??0bad_cast@std@@QEAA@XZ   000000018001f3cc f i libcpmt:cout.obj
 0001:0001e3ec       ??1?$basic_filebuf@DU?$char_traits@D@std@@@std@@UEAA@XZ 000000018001f3ec f i libcpmt:cout.obj
 0001:0001e498       ??1?$basic_ios@DU?$char_traits@D@std@@@std@@UEAA@XZ 000000018001f498 f i libcpmt:cout.obj
 0001:0001e4bc       ??_E?$basic_ostream@DU?$char_traits@D@std@@@std@@$4PPPPPPPM@A@EAAPEAXI@Z 000000018001f4bc f i libcpmt:cout.obj
 0001:0001e4c8       ??_E?$basic_filebuf@DU?$char_traits@D@std@@@std@@UEAAPEAXI@Z 000000018001f4c8 f i libcpmt:cout.obj
 0001:0001e4c8       ??_G?$basic_filebuf@DU?$char_traits@D@std@@@std@@UEAAPEAXI@Z 000000018001f4c8 f i libcpmt:cout.obj
 0001:0001e4fc       ??_E?$basic_ios@DU?$char_traits@D@std@@@std@@UEAAPEAXI@Z 000000018001f4fc f i libcpmt:cout.obj
 0001:0001e4fc       ??_G?$basic_ios@DU?$char_traits@D@std@@@std@@UEAAPEAXI@Z 000000018001f4fc f i libcpmt:cout.obj
 0001:0001e548       ??_E?$basic_ostream@DU?$char_traits@D@std@@@std@@UEAAPEAXI@Z 000000018001f548 f i libcpmt:cout.obj
 0001:0001e548       ??_G?$basic_ostream@DU?$char_traits@D@std@@@std@@UEAAPEAXI@Z 000000018001f548 f i libcpmt:cout.obj
 0001:0001e5bc       ??_G?$basic_streambuf@DU?$char_traits@D@std@@@std@@UEAAPEAXI@Z 000000018001f5bc f i libcpmt:cout.obj
 0001:0001e5bc       ??_E?$basic_streambuf@DU?$char_traits@D@std@@@std@@UEAAPEAXI@Z 000000018001f5bc f i libcpmt:cout.obj
 0001:0001e60c       ??_Eios_base@std@@UEAAPEAXI@Z 000000018001f60c f i libcpmt:cout.obj
 0001:0001e60c       ??_Gios_base@std@@UEAAPEAXI@Z 000000018001f60c f i libcpmt:cout.obj
 0001:0001e658       ??_Glocale@std@@QEAAPEAXI@Z 000000018001f658 f i libcpmt:cout.obj
 0001:0001e6e8       ?_Endwrite@?$basic_filebuf@DU?$char_traits@D@std@@@std@@IEAA_NXZ 000000018001f6e8 f i libcpmt:cout.obj
 0001:0001e89c       ?_Getcat@?$codecvt@DDU_Mbstatet@@@std@@SA_KPEAPEBVfacet@locale@2@PEBV42@@Z 000000018001f89c f i libcpmt:cout.obj
 0001:0001e960       ?_Init@?$basic_filebuf@DU?$char_traits@D@std@@@std@@IEAAXPEAU_iobuf@@W4_Initfl@12@@Z 000000018001f960 f i libcpmt:cout.obj
 0001:0001ea4c       ?_Init@ios_base@std@@IEAAXXZ 000000018001fa4c f i libcpmt:cout.obj
 0001:0001eacc       ?_Initcvt@?$basic_filebuf@DU?$char_traits@D@std@@@std@@IEAAXPEBV?$codecvt@DDU_Mbstatet@@@2@@Z 000000018001facc f i libcpmt:cout.obj
 0001:0001eb6c       ?_Lock@?$basic_filebuf@DU?$char_traits@D@std@@@std@@UEAAXXZ 000000018001fb6c f i libcpmt:cout.obj
 0001:0001eb88       ?_Unlock@?$basic_filebuf@DU?$char_traits@D@std@@@std@@UEAAXXZ 000000018001fb88 f i libcpmt:cout.obj
 0001:0001eba4       ?do_encoding@codecvt_base@std@@MEBAHXZ 000000018001fba4 f i libcpmt:cout.obj
 0001:0001eba4       DllMain                    000000018001fba4 f i LIBCMT:dll_dllmain_stub.obj
 0001:0001eba4       ?GetContextKind@ThreadInternalContext@details@Concurrency@@UEBA?AW4ContextKind@ContextBase@23@XZ 000000018001fba4 f i libconcrt:ThreadScheduler.obj
 0001:0001eba4       _get_startup_argv_mode     000000018001fba4 f i LIBCMT:argv_mode.obj
 0001:0001eba4       ?do_max_length@codecvt_base@std@@MEBAHXZ 000000018001fba4 f i libcpmt:cout.obj
 0001:0001ebac       ?do_out@?$codecvt@DDU_Mbstatet@@@std@@MEBAHAEAU_Mbstatet@@PEBD1AEAPEBDPEAD3AEAPEAD@Z 000000018001fbac f i libcpmt:cout.obj
 0001:0001ebac       ?do_in@?$codecvt@DDU_Mbstatet@@@std@@MEBAHAEAU_Mbstatet@@PEBD1AEAPEBDPEAD3AEAPEAD@Z 000000018001fbac f i libcpmt:cout.obj
 0001:0001ebc8       ?do_length@?$codecvt@DDU_Mbstatet@@@std@@MEBAHAEAU_Mbstatet@@PEBD1_K@Z 000000018001fbc8 f i libcpmt:cout.obj
 0001:0001ebdc       ?do_unshift@?$codecvt@DDU_Mbstatet@@@std@@MEBAHAEAU_Mbstatet@@PEAD1AEAPEAD@Z 000000018001fbdc f i libcpmt:cout.obj
 0001:0001ebe8       ?imbue@?$basic_filebuf@DU?$char_traits@D@std@@@std@@MEAAXAEBVlocale@2@@Z 000000018001fbe8 f i libcpmt:cout.obj
 0001:0001ec0c       ?overflow@?$basic_filebuf@DU?$char_traits@D@std@@@std@@MEAAHH@Z 000000018001fc0c f i libcpmt:cout.obj
 0001:0001ee64       ?pbackfail@?$basic_filebuf@DU?$char_traits@D@std@@@std@@MEAAHH@Z 000000018001fe64 f i libcpmt:cout.obj
 0001:0001ef34       ?seekoff@?$basic_filebuf@DU?$char_traits@D@std@@@std@@MEAA?AV?$fpos@U_Mbstatet@@@2@_JHH@Z 000000018001ff34 f i libcpmt:cout.obj
 0001:0001f020       ?seekpos@?$basic_filebuf@DU?$char_traits@D@std@@@std@@MEAA?AV?$fpos@U_Mbstatet@@@2@V32@H@Z 0000000180020020 f i libcpmt:cout.obj
 0001:0001f120       ?seekoff@?$basic_streambuf@DU?$char_traits@D@std@@@std@@MEAA?AV?$fpos@U_Mbstatet@@@2@_JHH@Z 0000000180020120 f i libcpmt:cout.obj
 0001:0001f120       ?seekpos@?$basic_streambuf@DU?$char_traits@D@std@@@std@@MEAA?AV?$fpos@U_Mbstatet@@@2@V32@H@Z 0000000180020120 f i libcpmt:cout.obj
 0001:0001f13c       ?setbuf@?$basic_filebuf@DU?$char_traits@D@std@@@std@@MEAAPEAV?$basic_streambuf@DU?$char_traits@D@std@@@2@PEAD_J@Z 000000018002013c f i libcpmt:cout.obj
 0001:0001f190       ?sync@?$basic_filebuf@DU?$char_traits@D@std@@@std@@MEAAHXZ 0000000180020190 f i libcpmt:cout.obj
 0001:0001f1f0       ?uflow@?$basic_filebuf@DU?$char_traits@D@std@@@std@@MEAAHXZ 00000001800201f0 f i libcpmt:cout.obj
 0001:0001f488       ?uflow@?$basic_streambuf@DU?$char_traits@D@std@@@std@@MEAAHXZ 0000000180020488 f i libcpmt:cout.obj
 0001:0001f4d4       ?underflow@?$basic_filebuf@DU?$char_traits@D@std@@@std@@MEAAHXZ 00000001800204d4 f i libcpmt:cout.obj
 0001:0001f54c       ?xsgetn@?$basic_streambuf@DU?$char_traits@D@std@@@std@@MEAA_JPEAD_J@Z 000000018002054c f i libcpmt:cout.obj
 0001:0001f60c       ?xsputn@?$basic_streambuf@DU?$char_traits@D@std@@@std@@MEAA_JPEBD_J@Z 000000018002060c f i libcpmt:cout.obj
 0001:0001f6d0       ??4?$_Yarn@D@std@@QEAAAEAV01@PEBD@Z 00000001800206d0 f i libcpmt:locale0.obj
 0001:0001f748       ??_G_Fac_node@std@@QEAAPEAXI@Z 0000000180020748 f i libcpmt:locale0.obj
 0001:0001f7d4       ??_E_Locimp@locale@std@@MEAAPEAXI@Z 00000001800207d4 f i libcpmt:locale0.obj
 0001:0001f7d4       ??_G_Locimp@locale@std@@MEAAPEAXI@Z 00000001800207d4 f i libcpmt:locale0.obj
 0001:0001f840       ?_Facet_Register@std@@YAXPEAV_Facet_base@1@@Z 0000000180020840 f   libcpmt:locale0.obj
 0001:0001f878       ?_Getgloballocale@locale@std@@CAPEAV_Locimp@12@XZ 0000000180020878 f   libcpmt:locale0.obj
 0001:0001f880       ?_Init@locale@std@@CAPEAV_Locimp@12@_N@Z 0000000180020880 f   libcpmt:locale0.obj
 0001:0001f93c       ?_Locimp_dtor@_Locimp@locale@std@@CAXPEAV123@@Z 000000018002093c f   libcpmt:locale0.obj
 0001:0001f9e4       ?_Locinfo_ctor@_Locinfo@std@@SAXPEAV12@PEBD@Z 00000001800209e4 f   libcpmt:locale0.obj
 0001:0001fa50       ?_Locinfo_dtor@_Locinfo@std@@SAXPEAV12@@Z 0000000180020a50 f   libcpmt:locale0.obj
 0001:0001fa74       ?_New_Locimp@_Locimp@locale@std@@CAPEAV123@_N@Z 0000000180020a74 f   libcpmt:locale0.obj
 0001:0001fae4       ?_Setgloballocale@locale@std@@CAXPEAX@Z 0000000180020ae4 f   libcpmt:locale0.obj
 0001:0001fb18       _Deletegloballocale        0000000180020b18 f   libcpmt:locale0.obj
 0001:0001fba0       ?_Syserror_map@std@@YAPEBDH@Z 0000000180020ba0 f   libcpmt:syserror.obj
 0001:0001fbc8       _Getctype                  0000000180020bc8 f   libcpmt:_tolower.obj
 0001:0001fc88       _Tolower                   0000000180020c88 f   libcpmt:_tolower.obj
 0001:0001fdb0       _Getcvt                    0000000180020db0 f   libcpmt:xwctomb.obj
 0001:0001fe40       _Toupper                   0000000180020e40 f   libcpmt:_toupper.obj
 0001:0001ff78       _Xtime_diff_to_millis2     0000000180020f78 f   libcpmt:xtime.obj
 0001:00020044       _Xtime_get_ticks           0000000180021044 f   libcpmt:xtime.obj
 0001:00020074       xtime_get                  0000000180021074 f   libcpmt:xtime.obj
 0001:0002059c       __crtAcquireSRWLockExclusive 000000018002159c f   libcpmt:winapisupp.obj
 0001:000205d4       __crtCloseThreadpoolTimer  00000001800215d4 f   libcpmt:winapisupp.obj
 0001:0002060c       __crtCloseThreadpoolWait   000000018002160c f   libcpmt:winapisupp.obj
 0001:00020644       __crtCreateEventExW        0000000180021644 f   libcpmt:winapisupp.obj
 0001:000206c0       __crtCreateSemaphoreExW    00000001800216c0 f   libcpmt:winapisupp.obj
 0001:00020760       __crtCreateThreadpoolTimer 0000000180021760 f   libcpmt:winapisupp.obj
 0001:000207bc       __crtCreateThreadpoolWait  00000001800217bc f   libcpmt:winapisupp.obj
 0001:00020818       __crtFlushProcessWriteBuffers 0000000180021818 f   libcpmt:winapisupp.obj
 0001:00020840       __crtFreeLibraryWhenCallbackReturns 0000000180021840 f   libcpmt:winapisupp.obj
 0001:00020888       __crtGetCurrentProcessorNumber 0000000180021888 f   libcpmt:winapisupp.obj
 0001:000208bc       __crtGetSystemTimePreciseAsFileTime 00000001800218bc f   libcpmt:winapisupp.obj
 0001:000208fc       __crtGetTickCount64        00000001800218fc f   libcpmt:winapisupp.obj
 0001:00020934       __crtInitializeConditionVariable 0000000180021934 f   libcpmt:winapisupp.obj
 0001:0002096c       __crtInitializeCriticalSectionEx 000000018002196c f   libcpmt:winapisupp.obj
 0001:000209cc       __crtInitializeSRWLock     00000001800219cc f   libcpmt:winapisupp.obj
 0001:00020a04       __crtReleaseSRWLockExclusive 0000000180021a04 f   libcpmt:winapisupp.obj
 0001:00020a3c       __crtSetThreadpoolTimer    0000000180021a3c f   libcpmt:winapisupp.obj
 0001:00020aa4       __crtSetThreadpoolWait     0000000180021aa4 f   libcpmt:winapisupp.obj
 0001:00020afc       __crtSleepConditionVariableCS 0000000180021afc f   libcpmt:winapisupp.obj
 0001:00020b54       __crtSleepConditionVariableSRW 0000000180021b54 f   libcpmt:winapisupp.obj
 0001:00020bbc       __crtTryAcquireSRWLockExclusive 0000000180021bbc f   libcpmt:winapisupp.obj
 0001:00020bf4       __crtWaitForThreadpoolTimerCallbacks 0000000180021bf4 f   libcpmt:winapisupp.obj
 0001:00020c38       __crtWakeAllConditionVariable 0000000180021c38 f   libcpmt:winapisupp.obj
 0001:00020c70       __crtWakeConditionVariable 0000000180021c70 f   libcpmt:winapisupp.obj
 0001:00020ca8       _Mtxinit                   0000000180021ca8 f   libcpmt:xmtx.obj
 0001:00020cb8       ?_Addstd@ios_base@std@@SAXPEAV12@@Z 0000000180021cb8 f   libcpmt:ios.obj
 0001:00020d28       ?_Ios_base_dtor@ios_base@std@@CAXPEAV12@@Z 0000000180021d28 f   libcpmt:ios.obj
 0001:00020d6c       ?_Tidy@ios_base@std@@AEAAXXZ 0000000180021d6c f i libcpmt:ios.obj
 0001:00020dfc       ?_Atexit@@YAXP6AXXZ@Z      0000000180021dfc f   libcpmt:iosptrs.obj
 0001:00020e3c       __crtLCMapStringA          0000000180021e3c f   libcpmt:StlLCMapStringA.obj
 0001:00021130       GetTableIndexFromLocaleName 0000000180022130 f   libcpmt:winapinls.obj
 0001:000211bc       __crtDownlevelLocaleNameToLCID 00000001800221bc f   libcpmt:winapinls.obj
 0001:000211f0       __crtLCMapStringEx         00000001800221f0 f   libcpmt:winapinls.obj
 0001:000212ac       __wcsnicmp_ascii           00000001800222ac f   libcpmt:winapinls.obj
 0001:00021320       __security_check_cookie    0000000180022320 f   LIBCMT:_amdsecgs_.obj
 0001:00021344       ??2@YAPEAX_K@Z             0000000180022344 f   LIBCMT:new_scalar.obj
 0001:00021380       ??3@YAXPEAX@Z              0000000180022380 f   LIBCMT:delete_scalar.obj
 0001:00021388       ??_V@YAXPEAX@Z             0000000180022388 f   LIBCMT:delete_array.obj
 0001:00021388       ??3@YAXPEAX_K@Z            0000000180022388 f   LIBCMT:delete_scalar_size.obj
 0001:00021390       ??_U@YAPEAX_K@Z            0000000180022390 f   LIBCMT:new_array.obj
 0001:00021398       ??_Etype_info@@UEAAPEAXI@Z 0000000180022398 f i LIBCMT:std_type_info_static.obj
 0001:00021398       ??_Gtype_info@@UEAAPEAXI@Z 0000000180022398 f i LIBCMT:std_type_info_static.obj
 0001:000213c4       __scrt_acquire_startup_lock 00000001800223c4 f   LIBCMT:utility.obj
 0001:00021400       __scrt_dllmain_after_initialize_c 0000000180022400 f   LIBCMT:utility.obj
 0001:00021434       __scrt_dllmain_before_initialize_c 0000000180022434 f   LIBCMT:utility.obj
 0001:0002144c       __scrt_dllmain_crt_thread_attach 000000018002244c f   LIBCMT:utility.obj
 0001:00021474       __scrt_dllmain_crt_thread_detach 0000000180022474 f   LIBCMT:utility.obj
 0001:0002148c       __scrt_dllmain_exception_filter 000000018002248c f   LIBCMT:utility.obj
 0001:000214f0       __scrt_dllmain_uninitialize_c 00000001800224f0 f   LIBCMT:utility.obj
 0001:00021520       __scrt_dllmain_uninitialize_critical 0000000180022520 f   LIBCMT:utility.obj
 0001:00021534       __scrt_initialize_crt      0000000180022534 f   LIBCMT:utility.obj
 0001:00021580       __scrt_initialize_onexit_tables 0000000180022580 f   LIBCMT:utility.obj
 0001:0002164c       __scrt_is_nonwritable_in_current_image 000000018002264c f   LIBCMT:utility.obj
 0001:000216e8       __scrt_release_startup_lock 00000001800226e8 f   LIBCMT:utility.obj
 0001:0002170c       __scrt_uninitialize_crt    000000018002270c f   LIBCMT:utility.obj
 0001:00021738       _onexit                    0000000180022738 f   LIBCMT:utility.obj
 0001:00021788       atexit                     0000000180022788 f   LIBCMT:utility.obj
 0001:000218e8       _Init_thread_footer        00000001800228e8 f   LIBCMT:thread_safe_statics.obj
 0001:00021948       _Init_thread_header        0000000180022948 f   LIBCMT:thread_safe_statics.obj
 0001:000219b0       _Init_thread_notify        00000001800229b0 f   LIBCMT:thread_safe_statics.obj
 0001:00021a0c       _Init_thread_wait          0000000180022a0c f   LIBCMT:thread_safe_statics.obj
 0001:00021e14       _DllMainCRTStartup         0000000180022e14 f   LIBCMT:dll_dllmain.obj
 0001:00021e54       __GSHandlerCheck           0000000180022e54 f   LIBCMT:_gshandler_.obj
 0001:00021e74       __GSHandlerCheckCommon     0000000180022e74 f   LIBCMT:_gshandler_.obj
 0001:00021ed0       __GSHandlerCheck_EH        0000000180022ed0 f   LIBCMT:gshandlereh.obj
 0001:00021f60       _guard_check_icall         0000000180022f60 f i LIBCMT:checkcfg.obj
 0001:00021f68       ??_M@YAXPEAX_K1P6AX0@Z@Z   0000000180022f68 f   LIBCMT:ehvecdtr.obj
 0001:00021fd4       ?__ArrayUnwind@@YAXPEAX_K1P6AX0@Z@Z 0000000180022fd4 f   LIBCMT:ehvecdtr.obj
 0001:00022038       ??_V@YAXPEAX_K@Z           0000000180023038 f   LIBCMT:delete_array_size.obj
 0001:00022050       __chkstk                   0000000180023050 f   LIBCMT:_chkstk_.obj
 0001:00022050       _alloca_probe              0000000180023050 f   LIBCMT:_chkstk_.obj
 0001:000220a4       __raise_securityfailure    00000001800230a4 f   LIBCMT:gs_report.obj
 0001:000220d8       __report_gsfailure         00000001800230d8 f   LIBCMT:gs_report.obj
 0001:000221ac       __report_rangecheckfailure 00000001800231ac f   LIBCMT:gs_report.obj
 0001:000221c0       __report_securityfailure   00000001800231c0 f   LIBCMT:gs_report.obj
 0001:00022340       ??0bad_array_new_length@std@@QEAA@AEBV01@@Z 0000000180023340 f i LIBCMT:throw_bad_alloc.obj
 0001:00022380       ??0bad_array_new_length@std@@QEAA@XZ 0000000180023380 f i LIBCMT:throw_bad_alloc.obj
 0001:000223a0       ?__scrt_throw_std_bad_array_new_length@@YAXXZ 00000001800233a0 f   LIBCMT:throw_bad_alloc.obj
 0001:000223c0       __isa_available_init       00000001800233c0 f   LIBCMT:_cpu_disp_.obj
 0001:00022584       __scrt_is_ucrt_dll_in_use  0000000180023584 f   LIBCMT:ucrt_detection.obj
 0001:00022590       __crt_debugger_hook        0000000180023590 f   LIBCMT:utility_desktop.obj
 0001:00022598       __scrt_fastfail            0000000180023598 f   LIBCMT:utility_desktop.obj
 0001:000226e0       __security_init_cookie     00000001800236e0 f   LIBCMT:gs_support.obj
 0001:0002278c       ?__scrt_initialize_type_info@@YAXXZ 000000018002378c f   LIBCMT:tncleanup.obj
 0001:0002279c       ?__scrt_uninitialize_type_info@@YAXXZ 000000018002379c f   LIBCMT:tncleanup.obj
 0001:000227a8       __local_stdio_scanf_options 00000001800237a8 f i LIBCMT:default_local_stdio_options.obj
 0001:000227b0       __scrt_initialize_default_local_stdio_options 00000001800237b0 f   LIBCMT:default_local_stdio_options.obj
 0001:000227cc       __scrt_get_dyn_tls_init_callback 00000001800237cc f   LIBCMT:dyn_tls_init.obj
 0001:000227d4       _RTC_Initialize            00000001800237d4 f   LIBCMT:_initsect_.obj
 0001:00022820       _RTC_Terminate             0000000180023820 f   LIBCMT:_initsect_.obj
 0001:00022870       ??0LockQueueNode@details@Concurrency@@QEAA@I@Z 0000000180023870 f i libconcrt:rtlocks.obj
 0001:00022978       ??0_NonReentrantBlockingLock@details@Concurrency@@QEAA@XZ 0000000180023978 f   libconcrt:rtlocks.obj
 0001:00022978       ??0_ReentrantBlockingLock@details@Concurrency@@QEAA@XZ 0000000180023978 f   libconcrt:rtlocks.obj
 0001:00022998       ??0_ReaderWriterLock@details@Concurrency@@QEAA@XZ 0000000180023998 f   libconcrt:rtlocks.obj
 0001:000229ac       ??0critical_section@Concurrency@@QEAA@XZ 00000001800239ac f   libconcrt:rtlocks.obj
 0001:000229d4       ??0improper_lock@Concurrency@@QEAA@AEBV01@@Z 00000001800239d4 f i libconcrt:rtlocks.obj
 0001:00022a14       ??0scoped_lock@critical_section@Concurrency@@QEAA@AEAV12@@Z 0000000180023a14 f   libconcrt:rtlocks.obj
 0001:00022a68       ??1_NonReentrantBlockingLock@details@Concurrency@@QEAA@XZ 0000000180023a68 f   libconcrt:rtlocks.obj
 0001:00022a68       ??1_ReentrantBlockingLock@details@Concurrency@@QEAA@XZ 0000000180023a68 f   libconcrt:rtlocks.obj
 0001:00022a68       _Mtxdst                    0000000180023a68 f   libcpmt:xmtx.obj
 0001:00022a70       ??1scoped_lock@critical_section@Concurrency@@QEAA@XZ 0000000180023a70 f   libconcrt:rtlocks.obj
 0001:00022a8c       ?Block@LockQueueNode@details@Concurrency@@QEAAXI@Z 0000000180023a8c f i libconcrt:rtlocks.obj
 0001:00022b3c       ?DispatchNodeTimeoutTimer@LockQueueNode@details@Concurrency@@SAXPEAU_TP_CALLBACK_INSTANCE@@PEAXPEAU_TP_TIMER@@@Z 0000000180023b3c f i libconcrt:rtlocks.obj
 0001:00022bc4       ?DispatchNodeTimeoutTimerXP@LockQueueNode@details@Concurrency@@SAXPEAXE@Z 0000000180023bc4 f i libconcrt:rtlocks.obj
 0001:00022c3c       ?UpdateQueuePosition@LockQueueNode@details@Concurrency@@QEAAXPEAV123@@Z 0000000180023c3c f i libconcrt:rtlocks.obj
 0001:00022cc0       ?_Acquire@_ReentrantBlockingLock@details@Concurrency@@QEAAXXZ 0000000180023cc0 f   libconcrt:rtlocks.obj
 0001:00022cc0       ?_Acquire@_NonReentrantBlockingLock@details@Concurrency@@QEAAXXZ 0000000180023cc0 f   libconcrt:rtlocks.obj
 0001:00022cc0       _Mtxlock                   0000000180023cc0 f   libcpmt:xmtx.obj
 0001:00022cc8       ?_AcquireRead@_ReaderWriterLock@details@Concurrency@@QEAAXXZ 0000000180023cc8 f   libconcrt:rtlocks.obj
 0001:00022d08       ?_AcquireWrite@_ReaderWriterLock@details@Concurrency@@QEAAXXZ 0000000180023d08 f   libconcrt:rtlocks.obj
 0001:00022d44       ?_Acquire_lock@critical_section@Concurrency@@QEAA_NPEAX_N@Z 0000000180023d44 f   libconcrt:rtlocks.obj
 0001:00022e60       ?_FlushWriteOwners@_ReaderWriterLock@details@Concurrency@@QEAAXXZ 0000000180023e60 f   libconcrt:rtlocks.obj
 0001:00022e80       ?_Flush_current_owner@critical_section@Concurrency@@QEAAXXZ 0000000180023e80 f   libconcrt:rtlocks.obj
 0001:00022ea8       ?_Initialize@_SpinCount@details@Concurrency@@SAXXZ 0000000180023ea8 f   libconcrt:rtlocks.obj
 0001:00022ecc       ?_Release@_NonReentrantBlockingLock@details@Concurrency@@QEAAXXZ 0000000180023ecc f   libconcrt:rtlocks.obj
 0001:00022ecc       _Mtxunlock                 0000000180023ecc f   libcpmt:xmtx.obj
 0001:00022ecc       ?_Release@_ReentrantBlockingLock@details@Concurrency@@QEAAXXZ 0000000180023ecc f   libconcrt:rtlocks.obj
 0001:00022ed4       ?_ReleaseRead@_ReaderWriterLock@details@Concurrency@@QEAAXXZ 0000000180023ed4 f   libconcrt:rtlocks.obj
 0001:00022ed8       ?_ReleaseWrite@_ReaderWriterLock@details@Concurrency@@QEAAXXZ 0000000180023ed8 f   libconcrt:rtlocks.obj
 0001:00022ee4       ?_SpinOnce@?$_SpinWait@$00@details@Concurrency@@QEAA_NXZ 0000000180023ee4 f i libconcrt:rtlocks.obj
 0001:00022fa4       ?_SpinOnce@?$_SpinWait@$0A@@details@Concurrency@@QEAA_NXZ 0000000180023fa4 f i libconcrt:rtlocks.obj
 0001:00023044       ?_Switch_to_active@critical_section@Concurrency@@AEAAXPEAX@Z 0000000180024044 f   libconcrt:rtlocks.obj
 0001:000230cc       ?_TryAcquireWrite@_ReaderWriterLock@details@Concurrency@@QEAA_NXZ 00000001800240cc f   libconcrt:rtlocks.obj
 0001:000230e4       ?_WaitEquals@_ReaderWriterLock@details@Concurrency@@CAXAEDJJJ@Z 00000001800240e4 f   libconcrt:rtlocks.obj
 0001:00023158       ?lock@critical_section@Concurrency@@QEAAXXZ 0000000180024158 f   libconcrt:rtlocks.obj
 0001:00023194       ?try_lock@critical_section@Concurrency@@QEAA_NXZ 0000000180024194 f   libconcrt:rtlocks.obj
 0001:000231f0       ?try_lock_for@critical_section@Concurrency@@QEAA_NI@Z 00000001800241f0 f   libconcrt:rtlocks.obj
 0001:000232b0       ?unlock@critical_section@Concurrency@@QEAAXXZ 00000001800242b0 f   libconcrt:rtlocks.obj
 0001:000233d8       ??0scheduler_resource_allocation_error@Concurrency@@QEAA@AEBV01@@Z 00000001800243d8 f i libconcrt:Platform.obj
 0001:00023428       ??1DefaultWaiterPool@platform@details@Concurrency@@QEAA@XZ 0000000180024428 f i libconcrt:Platform.obj
 0001:00023490       ??_Gscheduler_worker_creation_error@Concurrency@@UEAAPEAXI@Z 0000000180024490 f i libconcrt:Exceptions.obj
 0001:00023490       ??_Escheduler_resource_allocation_error@Concurrency@@UEAAPEAXI@Z 0000000180024490 f i libconcrt:Platform.obj
 0001:00023490       ??_Escheduler_worker_creation_error@Concurrency@@UEAAPEAXI@Z 0000000180024490 f i libconcrt:Exceptions.obj
 0001:00023490       ??_Gscheduler_resource_allocation_error@Concurrency@@UEAAPEAXI@Z 0000000180024490 f i libconcrt:Platform.obj
 0001:000234d4       ?InitializeSystemFunctionPointers@platform@details@Concurrency@@YAXXZ 00000001800244d4 f   libconcrt:Platform.obj
 0001:000235e0       ?__ChangeTimerQueueTimer@platform@details@Concurrency@@YAHPEAX0KK@Z 00000001800245e0 f   libconcrt:Platform.obj
 0001:000235e8       ?__CloseThreadHandle@platform@details@Concurrency@@YAXPEAX@Z 00000001800245e8 f   libconcrt:Platform.obj
 0001:000235f0       ?__CreateAutoResetEvent@platform@details@Concurrency@@YAPEAX_N@Z 00000001800245f0 f   libconcrt:Platform.obj
 0001:0002364c       ?__CreateThread@platform@details@Concurrency@@YAPEAXPEAU_SECURITY_ATTRIBUTES@@_KP6AKPEAX@Z2KPEAK@Z 000000018002464c f   libconcrt:Platform.obj
 0001:00023654       ?__CreateTimerQueueTimer@platform@details@Concurrency@@YAHPEAPEAXPEAXP6AX1E@Z1KKK@Z 0000000180024654 f   libconcrt:Platform.obj
 0001:0002365c       ?__DeleteTimerQueueTimer@platform@details@Concurrency@@YAXPEAX00@Z 000000018002465c f   libconcrt:Platform.obj
 0001:000236bc       ?__GetCurrentProcessorNumberEx@platform@details@Concurrency@@YAXPEAU_PROCESSOR_NUMBER@@@Z 00000001800246bc f   libconcrt:Platform.obj
 0001:000236f4       ?__GetLogicalProcessorInformation@platform@details@Concurrency@@YAPEAU_SYSTEM_LOGICAL_PROCESSOR_INFORMATION@@PEAK@Z 00000001800246f4 f   libconcrt:Platform.obj
 0001:000237c0       ?__GetLogicalProcessorInformationEx@platform@details@Concurrency@@YAPEAU_SYSTEM_LOGICAL_PROCESSOR_INFORMATION_EX@@W4_LOGICAL_PROCESSOR_RELATIONSHIP@@PEAK@Z 00000001800247c0 f   libconcrt:Platform.obj
 0001:0002390c       ?__GetNumaHighestNodeNumber@platform@details@Concurrency@@YAKXZ 000000018002490c f   libconcrt:Platform.obj
 0001:00023958       ?__GetThreadGroupAffinity@platform@details@Concurrency@@YAHPEAXPEAU_GROUP_AFFINITY@@@Z 0000000180024958 f   libconcrt:Platform.obj
 0001:000239d4       ?__GetThreadPriority@platform@details@Concurrency@@YAHPEAX@Z 00000001800249d4 f   libconcrt:Platform.obj
 0001:000239dc       ?__GetTickCount64@platform@details@Concurrency@@YA_KXZ 00000001800249dc f   libconcrt:Platform.obj
 0001:000239e4       ?__InitializeCriticalSectionEx@platform@details@Concurrency@@YAHPEAU_RTL_CRITICAL_SECTION@@K@Z 00000001800249e4 f   libconcrt:Platform.obj
 0001:000239ec       ?__RegisterWaitForSingleObject@platform@details@Concurrency@@YAPEAXPEAXP6AX0E@Z0@Z 00000001800249ec f   libconcrt:Platform.obj
 0001:00023a50       ?__SetThreadGroupAffinity@platform@details@Concurrency@@YAHPEAXPEBU_GROUP_AFFINITY@@@Z 0000000180024a50 f   libconcrt:Platform.obj
 0001:00023ab4       ?__SetThreadPriority@platform@details@Concurrency@@YAXPEAXH@Z 0000000180024ab4 f   libconcrt:Platform.obj
 0001:00023af8       ?__SignalObjectAndWait@platform@details@Concurrency@@YAKPEAX0KH@Z 0000000180024af8 f   libconcrt:Platform.obj
 0001:00023b00       ?__Sleep@platform@details@Concurrency@@YAXK@Z 0000000180024b00 f   libconcrt:Platform.obj
 0001:00023b08       ?__SwitchToThread@platform@details@Concurrency@@YAXXZ 0000000180024b08 f   libconcrt:Platform.obj
 0001:00023b10       ?__TlsAlloc@platform@details@Concurrency@@YAKXZ 0000000180024b10 f   libconcrt:Platform.obj
 0001:00023b54       ?__TlsFree@platform@details@Concurrency@@YAXK@Z 0000000180024b54 f   libconcrt:Platform.obj
 0001:00023b5c       ?__TlsGetValue@platform@details@Concurrency@@YAPEAXK@Z 0000000180024b5c f   libconcrt:Platform.obj
 0001:00023b64       ?__TlsSetValue@platform@details@Concurrency@@YAXKPEAX@Z 0000000180024b64 f   libconcrt:Platform.obj
 0001:00023ba8       ?__UnregisterWait@platform@details@Concurrency@@YAXPEAX@Z 0000000180024ba8 f   libconcrt:Platform.obj
 0001:00023bb0       ?__WaitForThread@platform@details@Concurrency@@YAKPEAXK@Z 0000000180024bb0 f   libconcrt:Platform.obj
 0001:00023bbc       _concrt_static_cleanup     0000000180024bbc f   libconcrt:utils.obj
 0001:00023bd4       ?DecodePointer@Security@details@Concurrency@@SAPEAXPEAX@Z 0000000180024bd4 f   libconcrt:utils.obj
 0001:00023bd4       ?EncodePointer@Security@details@Concurrency@@SAPEAXPEAX@Z 0000000180024bd4 f   libconcrt:utils.obj
 0001:00023be0       ?DeleteAsyncTimerAndUnloadLibrary@details@Concurrency@@YAXPEAU_TP_TIMER@@@Z 0000000180024be0 f   libconcrt:utils.obj
 0001:00023c28       ?FreeLibraryAndDestroyThread@details@Concurrency@@YAXK@Z 0000000180024c28 f   libconcrt:utils.obj
 0001:00023c60       ?InitializeCookie@Security@details@Concurrency@@SA_KXZ 0000000180024c60 f   libconcrt:utils.obj
 0001:00023cc4       ?LoadLibraryAndCreateThread@details@Concurrency@@YAPEAXPEAU_SECURITY_ATTRIBUTES@@_KP6AKPEAX@Z2KPEAK@Z 0000000180024cc4 f   libconcrt:utils.obj
 0001:00023d14       ?ReferenceLoadLibrary@details@Concurrency@@YAXXZ 0000000180024d14 f   libconcrt:utils.obj
 0001:00023dbc       ?RegisterAsyncTimerAndLoadLibrary@details@Concurrency@@YAPEAU_TP_TIMER@@KP6AXPEAU_TP_CALLBACK_INSTANCE@@PEAXPEAU3@@Z1_N@Z 0000000180024dbc f   libconcrt:utils.obj
 0001:00023e30       ?RegisterAsyncWaitAndLoadLibrary@details@Concurrency@@YAPEAU_TP_WAIT@@PEAXP6AXPEAU_TP_CALLBACK_INSTANCE@@0PEAU3@K@Z0@Z 0000000180024e30 f   libconcrt:utils.obj
 0001:00023e84       ?UnRegisterAsyncTimerAndUnloadLibrary@details@Concurrency@@YAXPEAU_TP_CALLBACK_INSTANCE@@PEAU_TP_TIMER@@@Z 0000000180024e84 f   libconcrt:utils.obj
 0001:00023ed0       ?UnRegisterAsyncWaitAndUnloadLibrary@details@Concurrency@@YAXPEAU_TP_CALLBACK_INSTANCE@@PEAU_TP_WAIT@@@Z 0000000180024ed0 f   libconcrt:utils.obj
 0001:00023f1c       ?_Acquire@_CriticalNonReentrantLock@details@Concurrency@@QEAAXXZ 0000000180024f1c f   libconcrt:utils.obj
 0001:00023f64       ?_Acquire@_HyperNonReentrantLock@details@Concurrency@@QEAAXXZ 0000000180024f64 f   libconcrt:utils.obj
 0001:00023fac       ?_Release@_CriticalNonReentrantLock@details@Concurrency@@QEAAXXZ 0000000180024fac f   libconcrt:utils.obj
 0001:00023fac       ?_Release@_HyperNonReentrantLock@details@Concurrency@@QEAAXXZ 0000000180024fac f   libconcrt:utils.obj
 0001:00023fb8       ?_Sleep0@details@Concurrency@@YAXXZ 0000000180024fb8 f   libconcrt:utils.obj
 0001:00023fc0       ?_TryAcquire@_CriticalNonReentrantLock@details@Concurrency@@QEAA_NXZ 0000000180024fc0 f   libconcrt:utils.obj
 0001:00023ff8       ?_UnderlyingYield@details@Concurrency@@YAXXZ 0000000180024ff8 f   libconcrt:utils.obj
 0001:00024038       ??0context_self_unblock@Concurrency@@QEAA@XZ 0000000180025038 f   libconcrt:Exceptions.obj
 0001:00024050       ??0context_unblock_unbalanced@Concurrency@@QEAA@XZ 0000000180025050 f   libconcrt:Exceptions.obj
 0001:00024068       ??0improper_lock@Concurrency@@QEAA@PEBD@Z 0000000180025068 f   libconcrt:Exceptions.obj
 0001:000240b4       ??0improper_scheduler_attach@Concurrency@@QEAA@XZ 00000001800250b4 f   libconcrt:Exceptions.obj
 0001:000240cc       ??0improper_scheduler_reference@Concurrency@@QEAA@XZ 00000001800250cc f   libconcrt:Exceptions.obj
 0001:000240e4       ??0invalid_oversubscribe_operation@Concurrency@@QEAA@XZ 00000001800250e4 f   libconcrt:Exceptions.obj
 0001:000240fc       ??0invalid_scheduler_policy_key@Concurrency@@QEAA@PEBD@Z 00000001800250fc f   libconcrt:Exceptions.obj
 0001:00024148       ??0invalid_scheduler_policy_thread_specification@Concurrency@@QEAA@XZ 0000000180025148 f   libconcrt:Exceptions.obj
 0001:00024160       ??0invalid_scheduler_policy_value@Concurrency@@QEAA@PEBD@Z 0000000180025160 f   libconcrt:Exceptions.obj
 0001:000241ac       ??0missing_wait@Concurrency@@QEAA@XZ 00000001800251ac f   libconcrt:Exceptions.obj
 0001:000241c4       ??0nested_scheduler_missing_detach@Concurrency@@QEAA@XZ 00000001800251c4 f   libconcrt:Exceptions.obj
 0001:000241dc       ??0scheduler_resource_allocation_error@Concurrency@@QEAA@J@Z 00000001800251dc f   libconcrt:Exceptions.obj
 0001:000241f8       ??0scheduler_worker_creation_error@Concurrency@@QEAA@J@Z 00000001800251f8 f   libconcrt:Exceptions.obj
 0001:00024214       ??0unsupported_os@Concurrency@@QEAA@XZ 0000000180025214 f   libconcrt:Exceptions.obj
 0001:0002422c       ??1scheduler_worker_creation_error@Concurrency@@UEAA@XZ 000000018002522c f i libconcrt:Exceptions.obj
 0001:0002422c       ??1invalid_scheduler_policy_key@Concurrency@@UEAA@XZ 000000018002522c f i libconcrt:Exceptions.obj
 0001:0002422c       ??1missing_wait@Concurrency@@UEAA@XZ 000000018002522c f i libconcrt:Exceptions.obj
 0001:0002422c       ??1invalid_scheduler_policy_value@Concurrency@@UEAA@XZ 000000018002522c f i libconcrt:Exceptions.obj
 0001:0002422c       ??1bad_function_call@std@@UEAA@XZ 000000018002522c f i libcpmt:xthrow.obj
 0001:0002422c       ??1bad_exception@std@@UEAA@XZ 000000018002522c f i libvcruntime:frame.obj
 0001:0002422c       ??1scheduler_resource_allocation_error@Concurrency@@UEAA@XZ 000000018002522c f i libconcrt:Platform.obj
 0001:0002422c       ??1length_error@std@@UEAA@XZ 000000018002522c f i libcpmt:xthrow.obj
 0001:0002422c       ??1invalid_scheduler_policy_thread_specification@Concurrency@@UEAA@XZ 000000018002522c f i libconcrt:Exceptions.obj
 0001:0002422c       ??1invalid_argument@std@@UEAA@XZ 000000018002522c f i libcpmt:xthrow.obj
 0001:0002422c       ??1invalid_oversubscribe_operation@Concurrency@@UEAA@XZ 000000018002522c f i libconcrt:Exceptions.obj
 0001:0002422c       ??1_Interruption_exception@details@Concurrency@@UEAA@XZ 000000018002522c f i libconcrt:TaskCollection.obj
 0001:0002422c       ??1context_self_unblock@Concurrency@@UEAA@XZ 000000018002522c f i libconcrt:Exceptions.obj
 0001:0002422c       ??1out_of_range@std@@UEAA@XZ 000000018002522c f i libcpmt:xthrow.obj
 0001:0002422c       ??1__non_rtti_object@std@@UEAA@XZ 000000018002522c f i libvcruntime:rtti.obj
 0001:0002422c       ??1improper_scheduler_attach@Concurrency@@UEAA@XZ 000000018002522c f i libconcrt:Exceptions.obj
 0001:0002422c       ??1improper_scheduler_reference@Concurrency@@UEAA@XZ 000000018002522c f i libconcrt:Exceptions.obj
 0001:0002422c       ??1nested_scheduler_missing_detach@Concurrency@@UEAA@XZ 000000018002522c f i libconcrt:Exceptions.obj
 0001:0002422c       ??1unsupported_os@Concurrency@@UEAA@XZ 000000018002522c f i libconcrt:Exceptions.obj
 0001:0002422c       ??1invalid_operation@Concurrency@@UEAA@XZ 000000018002522c f i libconcrt:ResourceManager.obj
 0001:0002422c       ??1improper_lock@Concurrency@@UEAA@XZ 000000018002522c f i libconcrt:rtlocks.obj
 0001:0002422c       ??1bad_cast@std@@UEAA@XZ   000000018002522c f i libcpmt:cout.obj
 0001:0002422c       ??1bad_array_new_length@std@@UEAA@XZ 000000018002522c f i LIBCMT:throw_bad_alloc.obj
 0001:0002422c       ??1context_unblock_unbalanced@Concurrency@@UEAA@XZ 000000018002522c f i libconcrt:Exceptions.obj
 0001:0002422c       ??1bad_alloc@std@@UEAA@XZ  000000018002522c f i libcpmt:xthrow.obj
 0001:00024240       ?Block@Context@Concurrency@@SAXXZ 0000000180025240 f   libconcrt:Context.obj
 0001:00024294       ?CurrentContext@Context@Concurrency@@SAPEAV12@XZ 0000000180025294 f   libconcrt:Context.obj
 0001:000242c0       ??0HardwareAffinity@details@Concurrency@@QEAA@PEAX@Z 00000001800252c0 f   libconcrt:ResourceManager.obj
 0001:000242ec       ??0ResourceManager@details@Concurrency@@AEAA@XZ 00000001800252ec f   libconcrt:ResourceManager.obj
 0001:0002440c       ??0invalid_operation@Concurrency@@QEAA@AEBV01@@Z 000000018002540c f i libconcrt:ResourceManager.obj
 0001:0002444c       ??0invalid_operation@Concurrency@@QEAA@XZ 000000018002544c f i libconcrt:ResourceManager.obj
 0001:00024464       ??0unsupported_os@Concurrency@@QEAA@AEBV01@@Z 0000000180025464 f i libconcrt:ResourceManager.obj
 0001:000244a4       ??1GlobalNode@details@Concurrency@@QEAA@XZ 00000001800254a4 f i libconcrt:ResourceManager.obj
 0001:000244b4       ??1ResourceManager@details@Concurrency@@AEAA@XZ 00000001800254b4 f   libconcrt:ResourceManager.obj
 0001:000245ec       ??1_Scoped_lock@_NonReentrantBlockingLock@details@Concurrency@@QEAA@XZ 00000001800255ec f i libconcrt:ResourceManager.obj
 0001:00024608       ??1_Scoped_lock@_NonReentrantLock@details@Concurrency@@QEAA@XZ 0000000180025608 f i libconcrt:ResourceManager.obj
 0001:00024614       ?AdjustDynamicAllocation@ResourceManager@details@Concurrency@@AEAAIIII@Z 0000000180025614 f   libconcrt:ResourceManager.obj
 0001:000246e8       ?ApplyAffinityRestrictions@ResourceManager@details@Concurrency@@CAXPEAU_GROUP_AFFINITY@@@Z 00000001800256e8 f   libconcrt:ResourceManager.obj
 0001:000247bc       ?ApplyAffinityRestrictions@ResourceManager@details@Concurrency@@CAXPEA_K@Z 00000001800257bc f   libconcrt:ResourceManager.obj
 0001:000247f4       ?ApplyTo@HardwareAffinity@details@Concurrency@@QEAAXPEAX@Z 00000001800257f4 f   libconcrt:ResourceManager.obj
 0001:00024804       ?CaptureProcessAffinity@ResourceManager@details@Concurrency@@CAXXZ 0000000180025804 f   libconcrt:ResourceManager.obj
 0001:0002498c       ?CleanupTopologyInformation@ResourceManager@details@Concurrency@@CAXXZ 000000018002598c f   libconcrt:ResourceManager.obj
 0001:000249b0       ?CommitStolenCores@ResourceManager@details@Concurrency@@AEAAXPEAVSchedulerProxy@23@@Z 00000001800259b0 f   libconcrt:ResourceManager.obj
 0001:00024ad4       ?CreateAllocatedNodeData@ResourceManager@details@Concurrency@@QEAAPEAUSchedulerNode@23@XZ 0000000180025ad4 f   libconcrt:ResourceManager.obj
 0001:00024c34       ?CreateDynamicRMWorker@ResourceManager@details@Concurrency@@AEAAXXZ 0000000180025c34 f   libconcrt:ResourceManager.obj
 0001:00024cac       ?CreateResourceManager@Concurrency@@YAPEAUIResourceManager@1@XZ 0000000180025cac f   libconcrt:ResourceManager.obj
 0001:00024cb4       ?CreateSchedulerProxy@ResourceManager@details@Concurrency@@AEAAPEAVSchedulerProxy@23@PEAUIScheduler@3@@Z 0000000180025cb4 f   libconcrt:ResourceManager.obj
 0001:00024d38       ?CreateSingleton@ResourceManager@details@Concurrency@@SAPEAV123@XZ 0000000180025d38 f   libconcrt:ResourceManager.obj
 0001:00024e24       ?CurrentSubscriptionLevel@ResourceManager@details@Concurrency@@QEAAIII@Z 0000000180025e24 f   libconcrt:ResourceManager.obj
 0001:00024ed0       ?DestroyAllocatedNodeData@ResourceManager@details@Concurrency@@QEAAXPEAUSchedulerNode@23@@Z 0000000180025ed0 f   libconcrt:ResourceManager.obj
 0001:00024f1c       ?DetermineTopology@ResourceManager@details@Concurrency@@AEAAXXZ 0000000180025f1c f   libconcrt:ResourceManager.obj
 0001:00025304       ?DiscardExistingSchedulerStatistics@ResourceManager@details@Concurrency@@AEAAXXZ 0000000180026304 f   libconcrt:ResourceManager.obj
 0001:00025388       ?DistributeCoresToSurvivingScheduler@ResourceManager@details@Concurrency@@AEAA_NXZ 0000000180026388 f   libconcrt:ResourceManager.obj
 0001:00025584       ?DistributeExclusiveCores@ResourceManager@details@Concurrency@@AEAAXIIIII@Z 0000000180026584 f   libconcrt:ResourceManager.obj
 0001:0002570c       ?DistributeIdleCores@ResourceManager@details@Concurrency@@AEAAXII@Z 000000018002670c f   libconcrt:ResourceManager.obj
 0001:000258d4       ?DoCoreMigration@ResourceManager@details@Concurrency@@AEAAXXZ 00000001800268d4 f   libconcrt:ResourceManager.obj
 0001:00025b6c       ?DynamicAssignCores@ResourceManager@details@Concurrency@@AEAAXPEAVSchedulerProxy@23@II_N@Z 0000000180026b6c f   libconcrt:ResourceManager.obj
 0001:00025c10       ?DynamicMigrateCores@ResourceManager@details@Concurrency@@AEAAXPEAUDynamicAllocationData@23@PEAVSchedulerProxy@23@II@Z 0000000180026c10 f   libconcrt:ResourceManager.obj
 0001:00025de8       ?DynamicRMThreadProc@ResourceManager@details@Concurrency@@CAKPEAX@Z 0000000180026de8 f   libconcrt:ResourceManager.obj
 0001:00025e00       ?DynamicResourceManager@ResourceManager@details@Concurrency@@AEAAXXZ 0000000180026e00 f   libconcrt:ResourceManager.obj
 0001:00025f1c       ?FindBestFitExclusiveAllocation@ResourceManager@details@Concurrency@@AEAAIAEAI0PEAUDynamicAllocationData@23@II@Z 0000000180026f1c f   libconcrt:ResourceManager.obj
 0001:000262cc       ?FindBestFitIdleAllocation@ResourceManager@details@Concurrency@@AEAAIIPEAUDynamicAllocationData@23@I@Z 00000001800272cc f   libconcrt:ResourceManager.obj
 0001:000263e8       ?FindCoreForPartiallyFilledNode@ResourceManager@details@Concurrency@@AEAA_NAEAI0PEAUDynamicAllocationData@23@I@Z 00000001800273e8 f   libconcrt:ResourceManager.obj
 0001:00026540       ?FlushStoreBuffers@ResourceManager@details@Concurrency@@QEAAXXZ 0000000180027540 f   libconcrt:ResourceManager.obj
 0001:0002657c       ?GetAvailableNodeCount@ResourceManager@details@Concurrency@@UEBAIXZ 000000018002757c f i libconcrt:ResourceManager.obj
 0001:0002657c       ?GetNumberOfVirtualProcessors@SchedulerBase@details@Concurrency@@UEBAIXZ 000000018002757c f i libconcrt:SchedulerBase.obj
 0001:00026580       ?GetCoreCount@ResourceManager@details@Concurrency@@SAIXZ 0000000180027580 f   libconcrt:ResourceManager.obj
 0001:00026604       ?GetCurrentNodeAndCore@ResourceManager@details@Concurrency@@QEAAIPEAI@Z 0000000180027604 f   libconcrt:ResourceManager.obj
 0001:00026744       ?GetExecutionResourceCount@TopologyObject@GlobalNode@details@Concurrency@@UEBAIXZ 0000000180027744 f i libconcrt:ResourceManager.obj
 0001:0002674c       ?GetFirstExecutionResource@TopologyObject@GlobalNode@details@Concurrency@@UEBAPEAUITopologyExecutionResource@4@XZ 000000018002774c f i libconcrt:ResourceManager.obj
 0001:0002675c       ?GetFirstNode@ResourceManager@details@Concurrency@@UEBAPEAUITopologyNode@3@XZ 000000018002775c f i libconcrt:ResourceManager.obj
 0001:00026768       ?GetId@TopologyObject@GlobalCore@details@Concurrency@@UEBAIXZ 0000000180027768 f i libconcrt:ResourceManager.obj
 0001:00026770       ?GetId@TopologyObject@GlobalNode@details@Concurrency@@UEBAIXZ 0000000180027770 f i libconcrt:ResourceManager.obj
 0001:00026778       ?GetNext@TopologyObject@GlobalCore@details@Concurrency@@UEBAPEAUITopologyExecutionResource@4@XZ 0000000180027778 f   libconcrt:ResourceManager.obj
 0001:000267cc       ?GetNext@TopologyObject@GlobalNode@details@Concurrency@@UEBAPEAUITopologyNode@4@XZ 00000001800277cc f   libconcrt:ResourceManager.obj
 0001:00026804       ?GetNodeCount@ResourceManager@details@Concurrency@@SAIXZ 0000000180027804 f   libconcrt:ResourceManager.obj
 0001:00026888       ?GetNumaNode@TopologyObject@GlobalNode@details@Concurrency@@UEBAKXZ 0000000180027888 f i libconcrt:ResourceManager.obj
 0001:00026890       ?GetOSVersion@Concurrency@@YA?AW4OSVersion@IResourceManager@1@XZ 0000000180027890 f   libconcrt:ResourceManager.obj
 0001:00026898       ?GetProcessorCount@Concurrency@@YAIXZ 0000000180027898 f   libconcrt:ResourceManager.obj
 0001:000268a0       ?GetProcessorNodeCount@Concurrency@@YAIXZ 00000001800278a0 f   libconcrt:ResourceManager.obj
 0001:000268a8       ?GetSchedulerId@Concurrency@@YAIXZ 00000001800278a8 f   libconcrt:ResourceManager.obj
 0001:000268b8       ?GetTopologyInformation@ResourceManager@details@Concurrency@@CAXW4_LOGICAL_PROCESSOR_RELATIONSHIP@@@Z 00000001800278b8 f   libconcrt:ResourceManager.obj
 0001:000268ec       ?HandleBorrowedCores@ResourceManager@details@Concurrency@@AEAAXPEAVSchedulerProxy@23@PEAUAllocationData@23@@Z 00000001800278ec f   libconcrt:ResourceManager.obj
 0001:00026a38       ?HandleSharedCores@ResourceManager@details@Concurrency@@AEAAXPEAVSchedulerProxy@23@PEAUDynamicAllocationData@23@@Z 0000000180027a38 f   libconcrt:ResourceManager.obj
 0001:00026b9c       ?IncreaseFullyLoadedSchedulerAllocations@ResourceManager@details@Concurrency@@AEAAXXZ 0000000180027b9c f   libconcrt:ResourceManager.obj
 0001:00026c00       ?Initialize@GlobalNode@details@Concurrency@@QEAAXPEAVResourceManager@23@GG_KII@Z 0000000180027c00 f i libconcrt:ResourceManager.obj
 0001:00026de8       ?InitializeRMBuffers@ResourceManager@details@Concurrency@@AEAAXXZ 0000000180027de8 f   libconcrt:ResourceManager.obj
 0001:00026ee8       ?InitializeSystemInformation@ResourceManager@details@Concurrency@@CAX_N@Z 0000000180027ee8 f   libconcrt:ResourceManager.obj
 0001:000271a8       ?PerformAllocation@ResourceManager@details@Concurrency@@QEAAPEAVExecutionResource@23@PEAVSchedulerProxy@23@_N1@Z 00000001800281a8 f   libconcrt:ResourceManager.obj
 0001:000273c4       ?PopulateCommonAllocationData@ResourceManager@details@Concurrency@@AEAAXIPEAVSchedulerProxy@23@PEAUAllocationData@23@@Z 00000001800283c4 f   libconcrt:ResourceManager.obj
 0001:00027498       ?PopulateDynamicAllocationData@ResourceManager@details@Concurrency@@AEAAXXZ 0000000180028498 f   libconcrt:ResourceManager.obj
 0001:00027608       ?PreProcessDynamicAllocationData@ResourceManager@details@Concurrency@@AEAAXXZ 0000000180028608 f   libconcrt:ResourceManager.obj
 0001:00027720       ?PreProcessStaticAllocationData@ResourceManager@details@Concurrency@@AEAAXXZ 0000000180028720 f   libconcrt:ResourceManager.obj
 0001:00027764       ?PrepareReceiversForCoreTransfer@ResourceManager@details@Concurrency@@AEAAII@Z 0000000180028764 f   libconcrt:ResourceManager.obj
 0001:000279e4       ?RedistributeCoresAmongAll@ResourceManager@details@Concurrency@@AEAAIPEAVSchedulerProxy@23@III@Z 00000001800289e4 f   libconcrt:ResourceManager.obj
 0001:00027dd0       ?Reference@ResourceManager@details@Concurrency@@UEAAIXZ 0000000180028dd0 f   libconcrt:ResourceManager.obj
 0001:00027de0       ?RegisterScheduler@ResourceManager@details@Concurrency@@UEAAPEAUISchedulerProxy@3@PEAUIScheduler@3@I@Z 0000000180028de0 f   libconcrt:ResourceManager.obj
 0001:00027e44       ?Release@ResourceManager@details@Concurrency@@UEAAIXZ 0000000180028e44 f   libconcrt:ResourceManager.obj
 0001:00027f38       ?ReleaseCoresOnExistingSchedulers@ResourceManager@details@Concurrency@@AEAAIPEAVSchedulerProxy@23@II@Z 0000000180028f38 f   libconcrt:ResourceManager.obj
 0001:00027fdc       ?ReleaseSchedulerResources@ResourceManager@details@Concurrency@@AEAA_NPEAVSchedulerProxy@23@0I@Z 0000000180028fdc f   libconcrt:ResourceManager.obj
 0001:00028108       ?RemoveExecutionResource@ResourceManager@details@Concurrency@@QEAAXPEAVExecutionResource@23@@Z 0000000180029108 f   libconcrt:ResourceManager.obj
 0001:000281b0       ?RequestInitialVirtualProcessors@ResourceManager@details@Concurrency@@QEAAPEAUIExecutionResource@3@PEAVSchedulerProxy@23@_N@Z 00000001800291b0 f   libconcrt:ResourceManager.obj
 0001:00028350       ?ReserveAtHigherUseCounts@ResourceManager@details@Concurrency@@AEAAIPEAVSchedulerProxy@23@I@Z 0000000180029350 f   libconcrt:ResourceManager.obj
 0001:000283b4       ?ReserveCores@ResourceManager@details@Concurrency@@AEAAIPEAVSchedulerProxy@23@II@Z 00000001800293b4 f   libconcrt:ResourceManager.obj
 0001:000285b4       ?ResetGlobalAllocationData@ResourceManager@details@Concurrency@@AEAAXXZ 00000001800295b4 f   libconcrt:ResourceManager.obj
 0001:00028608       ?RetrieveSystemVersionInformation@ResourceManager@details@Concurrency@@CAXXZ 0000000180029608 f   libconcrt:ResourceManager.obj
 0001:00028720       ?RoundUpScaledAllocations@ResourceManager@details@Concurrency@@CAXPEAPEAUAllocationData@23@II@Z 0000000180029720 f   libconcrt:ResourceManager.obj
 0001:000288d8       ?SendResourceNotifications@ResourceManager@details@Concurrency@@QEAAXPEAVSchedulerProxy@23@@Z 00000001800298d8 f   libconcrt:ResourceManager.obj
 0001:00028aa0       ?SetupStaticAllocationData@ResourceManager@details@Concurrency@@AEAAXPEAVSchedulerProxy@23@_N@Z 0000000180029aa0 f   libconcrt:ResourceManager.obj
 0001:00028bbc       ?Shutdown@ResourceManager@details@Concurrency@@QEAAXPEAVSchedulerProxy@23@@Z 0000000180029bbc f   libconcrt:ResourceManager.obj
 0001:00028ce4       ?SubscribeCurrentThread@ResourceManager@details@Concurrency@@QEAAPEAVExecutionResource@23@PEAVSchedulerProxy@23@@Z 0000000180029ce4 f   libconcrt:ResourceManager.obj
 0001:00028d5c       ?ToggleRMIdleState@ResourceManager@details@Concurrency@@AEAAXPEAUSchedulerNode@23@PEAUSchedulerCore@23@PEAUGlobalNode@23@PEAUGlobalCore@23@PEAUAllocationData@23@@Z 0000000180029d5c f   libconcrt:ResourceManager.obj
 0001:00028dc4       ?Version@ResourceManager@details@Concurrency@@SA?AW4OSVersion@IResourceManager@3@XZ 0000000180029dc4 f   libconcrt:ResourceManager.obj
 0001:00028e44       ??0?$ListArray@VExternalStatistics@details@Concurrency@@@details@Concurrency@@QEAA@PEAVSchedulerBase@12@HH@Z 0000000180029e44 f i libconcrt:SchedulerBase.obj
 0001:00028e44       ??0?$ListArray@VScheduleGroupBase@details@Concurrency@@@details@Concurrency@@QEAA@PEAVSchedulerBase@12@HH@Z 0000000180029e44 f i libconcrt:SchedulerBase.obj
 0001:00028e44       ??0?$ListArray@U?$ListArrayInlineLink@VWorkQueue@details@Concurrency@@@details@Concurrency@@@details@Concurrency@@QEAA@PEAVSchedulerBase@12@HH@Z 0000000180029e44 f i libconcrt:ScheduleGroupBase.obj
 0001:00028e44       ??0?$ListArray@VScheduleGroupSegmentBase@details@Concurrency@@@details@Concurrency@@QEAA@PEAVSchedulerBase@12@HH@Z 0000000180029e44 f i libconcrt:SchedulingRing.obj
 0001:00028e44       ??0?$ListArray@VVirtualProcessor@details@Concurrency@@@details@Concurrency@@QEAA@PEAVSchedulerBase@12@HH@Z 0000000180029e44 f i libconcrt:SchedulingNode.obj
 0001:00028e44       ??0?$ListArray@VWorkQueue@details@Concurrency@@@details@Concurrency@@QEAA@PEAVSchedulerBase@12@HH@Z 0000000180029e44 f i libconcrt:ScheduleGroupBase.obj
 0001:00028f74       ??0NumaInformation@SchedulerBase@details@Concurrency@@QEAA@XZ 0000000180029f74 f i libconcrt:SchedulerBase.obj
 0001:00028f88       ??0SchedulerBase@details@Concurrency@@QEAA@AEBVSchedulerPolicy@2@@Z 0000000180029f88 f   libconcrt:SchedulerBase.obj
 0001:00029390       ??0improper_scheduler_attach@Concurrency@@QEAA@AEBV01@@Z 000000018002a390 f i libconcrt:SchedulerBase.obj
 0001:000293d0       ??0improper_scheduler_reference@Concurrency@@QEAA@AEBV01@@Z 000000018002a3d0 f i libconcrt:SchedulerBase.obj
 0001:00029410       ??1?$Hash@II@details@Concurrency@@QEAA@XZ 000000018002a410 f i libconcrt:SchedulerBase.obj
 0001:0002942c       ??1?$ListArray@VExternalStatistics@details@Concurrency@@@details@Concurrency@@QEAA@XZ 000000018002a42c f i libconcrt:SchedulerBase.obj
 0001:00029520       ??1?$ListArray@VScheduleGroupBase@details@Concurrency@@@details@Concurrency@@QEAA@XZ 000000018002a520 f i libconcrt:SchedulerBase.obj
 0001:00029664       ??1NumaInformation@SchedulerBase@details@Concurrency@@QEAA@XZ 000000018002a664 f i libconcrt:SchedulerBase.obj
 0001:00029684       ??1QuickBitSet@details@Concurrency@@QEAA@XZ 000000018002a684 f i libconcrt:SchedulerBase.obj
 0001:00029690       ??1ReferenceCountedQuickBitSet@details@Concurrency@@QEAA@XZ 000000018002a690 f i libconcrt:SchedulerBase.obj
 0001:000296b0       ??1ScheduleGroup@Concurrency@@MEAA@XZ 000000018002a6b0 f i libconcrt:SchedulerBase.obj
 0001:000296bc       ??1Scheduler@Concurrency@@MEAA@XZ 000000018002a6bc f i libconcrt:SchedulerBase.obj
 0001:000296c8       ??1SchedulerBase@details@Concurrency@@UEAA@XZ 000000018002a6c8 f   libconcrt:SchedulerBase.obj
 0001:000297b8       ??1_Scoped_lock@_HyperNonReentrantLock@details@Concurrency@@QEAA@XZ 000000018002a7b8 f i libconcrt:SchedulerBase.obj
 0001:000297d4       ??_GScheduleGroupBase@details@Concurrency@@UEAAPEAXI@Z 000000018002a7d4 f i libconcrt:ScheduleGroupBase.obj
 0001:000297d4       ??_GCacheLocalScheduleGroup@details@Concurrency@@UEAAPEAXI@Z 000000018002a7d4 f i libconcrt:SchedulerBase.obj
 0001:000297d4       ??_EScheduleGroupBase@details@Concurrency@@UEAAPEAXI@Z 000000018002a7d4 f i libconcrt:ScheduleGroupBase.obj
 0001:000297d4       ??_ECacheLocalScheduleGroup@details@Concurrency@@UEAAPEAXI@Z 000000018002a7d4 f i libconcrt:SchedulerBase.obj
 0001:00029800       ??_ECacheLocalScheduleGroupSegment@details@Concurrency@@UEAAPEAXI@Z 000000018002a800 f i libconcrt:SchedulerBase.obj
 0001:00029800       ??_GFairScheduleGroupSegment@details@Concurrency@@UEAAPEAXI@Z 000000018002a800 f i libconcrt:SchedulerBase.obj
 0001:00029800       ??_EFairScheduleGroupSegment@details@Concurrency@@UEAAPEAXI@Z 000000018002a800 f i libconcrt:SchedulerBase.obj
 0001:00029800       ??_GCacheLocalScheduleGroupSegment@details@Concurrency@@UEAAPEAXI@Z 000000018002a800 f i libconcrt:SchedulerBase.obj
 0001:00029834       ??_GFairScheduleGroup@details@Concurrency@@UEAAPEAXI@Z 000000018002a834 f i libconcrt:SchedulerBase.obj
 0001:00029834       ??_EFairScheduleGroup@details@Concurrency@@UEAAPEAXI@Z 000000018002a834 f i libconcrt:SchedulerBase.obj
 0001:00029860       ??_GRealizedChore@details@Concurrency@@UEAAPEAXI@Z 000000018002a860 f i libconcrt:SchedulerBase.obj
 0001:00029860       ??_ERealizedChore@details@Concurrency@@UEAAPEAXI@Z 000000018002a860 f i libconcrt:SchedulerBase.obj
 0001:0002988c       ??_EScheduleGroup@Concurrency@@MEAAPEAXI@Z 000000018002a88c f i libconcrt:SchedulerBase.obj
 0001:0002988c       ??_GScheduleGroup@Concurrency@@MEAAPEAXI@Z 000000018002a88c f i libconcrt:SchedulerBase.obj
 0001:000298b8       ??_GScheduler@Concurrency@@MEAAPEAXI@Z 000000018002a8b8 f i libconcrt:SchedulerBase.obj
 0001:000298b8       ??_EScheduler@Concurrency@@MEAAPEAXI@Z 000000018002a8b8 f i libconcrt:SchedulerBase.obj
 0001:000298e4       ??_GSchedulerBase@details@Concurrency@@UEAAPEAXI@Z 000000018002a8e4 f i libconcrt:SchedulerBase.obj
 0001:000298e4       ??_ESchedulerBase@details@Concurrency@@UEAAPEAXI@Z 000000018002a8e4 f i libconcrt:SchedulerBase.obj
 0001:00029918       ??_E_Chore@details@Concurrency@@MEAAPEAXI@Z 000000018002a918 f i libconcrt:SchedulerBase.obj
 0001:00029918       ??_G_Chore@details@Concurrency@@MEAAPEAXI@Z 000000018002a918 f i libconcrt:SchedulerBase.obj
 0001:00029944       ?Add@?$ListArray@VScheduleGroupBase@details@Concurrency@@@details@Concurrency@@QEAAHPEAVScheduleGroupBase@23@@Z 000000018002a944 f i libconcrt:SchedulerBase.obj
 0001:00029ab8       ?AddContext@SchedulerBase@details@Concurrency@@QEAAXPEAVInternalContextBase@23@@Z 000000018002aab8 f   libconcrt:SchedulerBase.obj
 0001:00029b10       ?AddTail@?$SafeRWList@VWaitNode@SchedulerBase@details@Concurrency@@VNoCount@CollectionTypes@34@V_ReaderWriterLock@34@@details@Concurrency@@QEAAXPEAVWaitNode@SchedulerBase@23@@Z 000000018002ab10 f i libconcrt:SchedulerBase.obj
 0001:00029b84       ?AddVirtualProcessors@SchedulerBase@details@Concurrency@@IEAAXPEAPEAUIVirtualProcessorRoot@3@I@Z 000000018002ab84 f   libconcrt:SchedulerBase.obj
 0001:00029c78       ?AllocateSegment@CacheLocalScheduleGroup@details@Concurrency@@MEAAPEAVScheduleGroupSegmentBase@23@PEAVSchedulingRing@23@PEAVlocation@3@@Z 000000018002ac78 f i libconcrt:SchedulerBase.obj
 0001:00029d04       ?AllocateSegment@FairScheduleGroup@details@Concurrency@@MEAAPEAVScheduleGroupSegmentBase@23@PEAVSchedulingRing@23@PEAVlocation@3@@Z 000000018002ad04 f i libconcrt:SchedulerBase.obj
 0001:00029d94       ?Attach@SchedulerBase@details@Concurrency@@UEAAXXZ 000000018002ad94 f   libconcrt:SchedulerBase.obj
 0001:00029dfc       ?AttachExternalContext@SchedulerBase@details@Concurrency@@AEAAPEAVExternalContextBase@23@_N@Z 000000018002adfc f   libconcrt:SchedulerBase.obj
 0001:00029e94       ?AttemptSchedulerSweep@SchedulerBase@details@Concurrency@@IEAAXXZ 000000018002ae94 f   libconcrt:SchedulerBase.obj
 0001:00029eb8       ?CancelAllContexts@SchedulerBase@details@Concurrency@@MEAAXXZ 000000018002aeb8 f   libconcrt:SchedulerBase.obj
 0001:00029f18       ?ChangeThrottlingTimer@SchedulerBase@details@Concurrency@@AEAAXK@Z 000000018002af18 f   libconcrt:SchedulerBase.obj
 0001:00029f7c       ?CheckForDeletion@?$ListArray@VScheduleGroupBase@details@Concurrency@@@details@Concurrency@@AEAAXXZ 000000018002af7c f i libconcrt:SchedulerBase.obj
 0001:0002a004       ?CheckForDeletionBridge@?$ListArray@VExternalStatistics@details@Concurrency@@@details@Concurrency@@CAXPEAV123@@Z 000000018002b004 f i libconcrt:SchedulerBase.obj
 0001:0002a060       ?CheckForDeletionBridge@?$ListArray@VScheduleGroupBase@details@Concurrency@@@details@Concurrency@@CAXPEAV123@@Z 000000018002b060 f i libconcrt:SchedulerBase.obj
 0001:0002a068       ?CheckOneShotStaticDestruction@SchedulerBase@details@Concurrency@@SAXXZ 000000018002b068 f   libconcrt:SchedulerBase.obj
 0001:0002a0a8       ?CheckStaticConstruction@SchedulerBase@details@Concurrency@@CAXXZ 000000018002b0a8 f   libconcrt:SchedulerBase.obj
 0001:0002a158       ?Cleanup@SchedulerBase@details@Concurrency@@AEAAXXZ 000000018002b158 f   libconcrt:SchedulerBase.obj
 0001:0002a278       ?CommitSafePoints@SchedulerBase@details@Concurrency@@QEAAXXZ 000000018002b278 f   libconcrt:SchedulerBase.obj
 0001:0002a2e0       ?CommitToVersion@SchedulerBase@details@Concurrency@@AEAAXK@Z 000000018002b2e0 f   libconcrt:SchedulerBase.obj
 0001:0002a3b8       ?ComputeSafePointCommitVersion@SchedulerBase@details@Concurrency@@AEAAKXZ 000000018002b3b8 f   libconcrt:SchedulerBase.obj
 0001:0002a4e4       ?CopyFrom@QuickBitSet@details@Concurrency@@IEAAXAEBV123@@Z 000000018002b4e4 f i libconcrt:SchedulerBase.obj
 0001:0002a568       ?CreateContextFromDefaultScheduler@SchedulerBase@details@Concurrency@@SAPEAVContextBase@23@XZ 000000018002b568 f   libconcrt:SchedulerBase.obj
 0001:0002a5b4       ?CreateScheduleGroup@SchedulerBase@details@Concurrency@@UEAAPEAVScheduleGroup@3@AEAVlocation@3@@Z 000000018002b5b4 f i libconcrt:SchedulerBase.obj
 0001:0002a5bc       ?CreateScheduleGroup@SchedulerBase@details@Concurrency@@UEAAPEAVScheduleGroup@3@XZ 000000018002b5bc f i libconcrt:SchedulerBase.obj
 0001:0002a5e4       ?CreateWithoutInitializing@SchedulerBase@details@Concurrency@@SAPEAV123@AEBVSchedulerPolicy@3@@Z 000000018002b5e4 f   libconcrt:SchedulerBase.obj
 0001:0002a614       ?DecrementInternalContextCount@SchedulerBase@details@Concurrency@@QEAAXXZ 000000018002b614 f   libconcrt:SchedulerBase.obj
 0001:0002a634       ?DeferredGetInternalContext@SchedulerBase@details@Concurrency@@QEAAXXZ 000000018002b634 f   libconcrt:SchedulerBase.obj
 0001:0002a660       ?Dequeue@?$SafeSQueue@VInternalContextBase@details@Concurrency@@V_HyperNonReentrantLock@23@@details@Concurrency@@QEAAPEAVInternalContextBase@23@XZ 000000018002b660 f i libconcrt:SchedulerBase.obj
 0001:0002a6c4       ?DestroySchedulerEventHandlers@SchedulerBase@details@Concurrency@@MEAAXXZ 000000018002b6c4 f   libconcrt:SchedulerBase.obj
 0001:0002a734       ?DetachExternalContext@SchedulerBase@details@Concurrency@@AEAAXPEAVExternalContextBase@23@_N@Z 000000018002b734 f   libconcrt:SchedulerBase.obj
 0001:0002a798       ?FastCurrentContext@SchedulerBase@details@Concurrency@@SAPEAVContextBase@23@XZ 000000018002b798 f   libconcrt:SchedulerBase.obj
 0001:0002a7a4       ?FastCurrentScheduler@SchedulerBase@details@Concurrency@@SAPEAV123@XZ 000000018002b7a4 f   libconcrt:SchedulerBase.obj
 0001:0002a7c8       ?Fill@QuickBitSet@details@Concurrency@@QEAAXXZ 000000018002b7c8 f i libconcrt:SchedulerBase.obj
 0001:0002a854       ?Finalize@SchedulerBase@details@Concurrency@@AEAAXXZ 000000018002b854 f   libconcrt:SchedulerBase.obj
 0001:0002aa18       ?Find@?$Hash@II@details@Concurrency@@QEAAPEAUListNode@123@AEBIPEAI@Z 000000018002ba18 f i libconcrt:SchedulerBase.obj
 0001:0002aa94       ?FindCurrentNode@SchedulerBase@details@Concurrency@@QEAAPEAVSchedulingNode@23@XZ 000000018002ba94 f   libconcrt:SchedulerBase.obj
 0001:0002aaf8       ?FindNodeByLocation@SchedulerBase@details@Concurrency@@QEAAPEAVSchedulingNode@23@PEAVlocation@3@@Z 000000018002baf8 f   libconcrt:SchedulerBase.obj
 0001:0002ab60       ?FindScheduleGroupSegment@SchedulingRing@details@Concurrency@@AEAAPEAVScheduleGroupSegmentBase@23@HHPEAHPEAV?$ListArray@VScheduleGroupSegmentBase@details@Concurrency@@@23@@Z 000000018002bb60 f i libconcrt:SchedulerBase.obj
 0001:0002abf8       ?FindVirtualProcessor@SchedulingNode@details@Concurrency@@QEAAPEAVVirtualProcessor@23@HHPEAH@Z 000000018002bbf8 f i libconcrt:SchedulerBase.obj
 0001:0002aca4       ?FoundAvailableVirtualProcessor@SchedulerBase@details@Concurrency@@QEAA_NAEAVClaimTicket@VirtualProcessor@23@Vlocation@3@K@Z 000000018002bca4 f   libconcrt:SchedulerBase.obj
 0001:0002ae38       ?FoundBlockedContexts@SchedulerBase@details@Concurrency@@AEAA_NXZ 000000018002be38 f   libconcrt:SchedulerBase.obj
 0001:0002ae6c       ?FoundUnstartedChores@SchedulerBase@details@Concurrency@@AEAA_NXZ 000000018002be6c f   libconcrt:SchedulerBase.obj
 0001:0002b03c       ?GetAnonymousScheduleGroupSegment@SchedulerBase@details@Concurrency@@QEAAPEAVScheduleGroupSegmentBase@23@XZ 000000018002c03c f   libconcrt:SchedulerBase.obj
 0001:0002b050       ?GetBitSet@SchedulerBase@details@Concurrency@@QEAA?AVQuickBitSet@23@PEBVlocation@3@@Z 000000018002c050 f   libconcrt:SchedulerBase.obj
 0001:0002b158       ?GetDefaultScheduler@SchedulerBase@details@Concurrency@@CAPEAV123@XZ 000000018002c158 f   libconcrt:SchedulerBase.obj
 0001:0002b244       ?GetExternalContext@SchedulerBase@details@Concurrency@@AEAAPEAVExternalContextBase@23@_N@Z 000000018002c244 f   libconcrt:SchedulerBase.obj
 0001:0002b2c4       ?GetInternalContext@SchedulerBase@details@Concurrency@@QEAAPEAVInternalContextBase@23@_N@Z 000000018002c2c4 f   libconcrt:SchedulerBase.obj
 0001:0002b414       ?GetNewContextId@SchedulerBase@details@Concurrency@@QEAAIXZ 000000018002c414 f   libconcrt:SchedulerBase.obj
 0001:0002b424       ?GetNewScheduleGroupId@SchedulerBase@details@Concurrency@@QEAAIXZ 000000018002c424 f   libconcrt:SchedulerBase.obj
 0001:0002b434       ?GetNewWorkQueueId@SchedulerBase@details@Concurrency@@SAIXZ 000000018002c434 f   libconcrt:SchedulerBase.obj
 0001:0002b444       ?GetNextPriorityObject@SchedulerBase@details@Concurrency@@QEAAPEAUBoostedObject@23@XZ 000000018002c444 f   libconcrt:SchedulerBase.obj
 0001:0002b4c8       ?GetNextScheduleGroupSegment@SchedulingRing@details@Concurrency@@AEAAPEAVScheduleGroupSegmentBase@23@PEAHHPEAV?$ListArray@VScheduleGroupSegmentBase@details@Concurrency@@@23@@Z 000000018002c4c8 f i libconcrt:SchedulerBase.obj
 0001:0002b540       ?GetNextSchedulingRing@SchedulerBase@details@Concurrency@@QEAAPEAVSchedulingRing@23@PEBV423@PEAV423@@Z 000000018002c540 f   libconcrt:SchedulerBase.obj
 0001:0002b580       ?GetNextSchedulingRing@SchedulerBase@details@Concurrency@@QEAAPEAVSchedulingRing@23@XZ 000000018002c580 f   libconcrt:SchedulerBase.obj
 0001:0002b5bc       ?GetPolicy@SchedulerBase@details@Concurrency@@UEBA?AVSchedulerPolicy@3@XZ 000000018002c5bc f   libconcrt:SchedulerBase.obj
 0001:0002b5e0       ?GetRealizedChore@SchedulerBase@details@Concurrency@@QEAAPEAVRealizedChore@23@P6AXPEAX@Z0@Z 000000018002c5e0 f   libconcrt:SchedulerBase.obj
 0001:0002b644       ?GetRunnableContext@FairScheduleGroupSegment@details@Concurrency@@EEAAPEAVInternalContextBase@23@XZ 000000018002c644 f i libconcrt:SchedulerBase.obj
 0001:0002b644       ?GetRunnableContext@CacheLocalScheduleGroupSegment@details@Concurrency@@EEAAPEAVInternalContextBase@23@XZ 000000018002c644 f i libconcrt:SchedulerBase.obj
 0001:0002b65c       ?GetSubAllocator@SchedulerBase@details@Concurrency@@SAPEAVSubAllocator@23@_N@Z 000000018002c65c f   libconcrt:SchedulerBase.obj
 0001:0002b700       ?GetValidSchedulingRingIndex@SchedulerBase@details@Concurrency@@AEAAHH@Z 000000018002c700 f   libconcrt:SchedulerBase.obj
 0001:0002b738       ?Grow@QuickBitSet@details@Concurrency@@QEAAXI@Z 000000018002c738 f i libconcrt:SchedulerBase.obj
 0001:0002b7e0       ?Grow@ReferenceCountedQuickBitSet@details@Concurrency@@QEAAXI@Z 000000018002c7e0 f i libconcrt:SchedulerBase.obj
 0001:0002b884       ?HasCompletedShutdown@SchedulerBase@details@Concurrency@@QEAA_NXZ 000000018002c884 f   libconcrt:SchedulerBase.obj
 0001:0002b898       ?GetId@InternalContextBase@details@Concurrency@@UEBAIXZ 000000018002c898 f i libconcrt:InternalContextBase.obj
 0001:0002b898       ?Id@ScheduleGroupBase@details@Concurrency@@UEBAIXZ 000000018002c898 f i libconcrt:SchedulerBase.obj
 0001:0002b89c       ?Id@SchedulerBase@details@Concurrency@@UEBAIXZ 000000018002c89c f i libconcrt:SchedulerBase.obj
 0001:0002b8a4       ?Initialize@SchedulerBase@details@Concurrency@@AEAAXXZ 000000018002c8a4 f   libconcrt:SchedulerBase.obj
 0001:0002be68       ?InitializeSchedulerEventHandlers@SchedulerBase@details@Concurrency@@MEAAXXZ 000000018002ce68 f   libconcrt:SchedulerBase.obj
 0001:0002be70       ?Insert@?$Hash@II@details@Concurrency@@QEAAPEAUListNode@123@AEBI0@Z 000000018002ce70 f i libconcrt:SchedulerBase.obj
 0001:0002bf4c       ?InternalCreateScheduleGroup@SchedulerBase@details@Concurrency@@AEAAPEAVScheduleGroup@3@PEAVlocation@3@@Z 000000018002cf4c f   libconcrt:SchedulerBase.obj
 0001:0002c05c       ?InternalRelease@ScheduleGroupBase@details@Concurrency@@IEAAJXZ 000000018002d05c f i libconcrt:SchedulerBase.obj
 0001:0002c0c8       ?InvokeAtNextSafePoint@SafePointInvocation@details@Concurrency@@QEAAXP6AXPEAX@Z0PEAVSchedulerBase@23@@Z 000000018002d0c8 f   libconcrt:SchedulerBase.obj
 0001:0002c114       ?InvokeOnSafePoint@SchedulerBase@details@Concurrency@@AEAAXPEAVSafePointInvocation@23@@Z 000000018002d114 f   libconcrt:SchedulerBase.obj
 0001:0002c18c       ?IsAvailableLocation@SchedulerBase@details@Concurrency@@UEBA_NAEBVlocation@3@@Z 000000018002d18c f   libconcrt:SchedulerBase.obj
 0001:0002c1f0       ?MailChore@FairScheduleGroup@details@Concurrency@@UEAA?AVSlot@?$Mailbox@V_UnrealizedChore@details@Concurrency@@@23@PEAV_UnrealizedChore@23@PEAVlocation@3@PEAPEAVScheduleGroupSegmentBase@23@@Z 000000018002d1f0 f i libconcrt:SchedulerBase.obj
 0001:0002c1fc       ?MarkSafePoint@SchedulerBase@details@Concurrency@@QEAA_NPEAVSafePointMarker@23@@Z 000000018002d1fc f   libconcrt:SchedulerBase.obj
 0001:0002c214       ?NotifyThrottledContext@SchedulerBase@details@Concurrency@@AEAA_NPEAVInternalContextBase@23@@Z 000000018002d214 f   libconcrt:SchedulerBase.obj
 0001:0002c2bc       ?PerformServiceScan@SchedulerBase@details@Concurrency@@AEAAX_K@Z 000000018002d2bc f   libconcrt:SchedulerBase.obj
 0001:0002c594       ?PhaseOneShutdown@SchedulerBase@details@Concurrency@@AEAAXXZ 000000018002d594 f   libconcrt:SchedulerBase.obj
 0001:0002c670       ?PhaseTwoShutdown@SchedulerBase@details@Concurrency@@AEAAXXZ 000000018002d670 f   libconcrt:SchedulerBase.obj
 0001:0002c758       ?PushRunnableToInactive@SchedulerBase@details@Concurrency@@UEAA_NPEAVInternalContextBase@23@Vlocation@3@@Z 000000018002d758 f   libconcrt:SchedulerBase.obj
 0001:0002c81c       ?Reference@ScheduleGroupBase@details@Concurrency@@UEAAIXZ 000000018002d81c f i libconcrt:SchedulerBase.obj
 0001:0002c834       ?Reference@SchedulerBase@details@Concurrency@@UEAAIXZ 000000018002d834 f   libconcrt:SchedulerBase.obj
 0001:0002c8c0       ?ReferenceForAttach@SchedulerBase@details@Concurrency@@IEAAXXZ 000000018002d8c0 f   libconcrt:SchedulerBase.obj
 0001:0002c8f8       ?RegisterShutdownEvent@SchedulerBase@details@Concurrency@@UEAAXPEAX@Z 000000018002d8f8 f   libconcrt:SchedulerBase.obj
 0001:0002c9e4       ?Release@ScheduleGroupBase@details@Concurrency@@UEAAIXZ 000000018002d9e4 f i libconcrt:SchedulerBase.obj
 0001:0002c9ec       ?Release@SchedulerBase@details@Concurrency@@UEAAIXZ 000000018002d9ec f   libconcrt:SchedulerBase.obj
 0001:0002ca10       ?ReleaseExternalContext@SchedulerBase@details@Concurrency@@AEAAXPEAVExternalContextBase@23@@Z 000000018002da10 f   libconcrt:SchedulerBase.obj
 0001:0002ca88       ?ReleaseForDetach@SchedulerBase@details@Concurrency@@IEAAXXZ 000000018002da88 f   libconcrt:SchedulerBase.obj
 0001:0002cac0       ?ReleaseInternalContext@SchedulerBase@details@Concurrency@@QEAAXPEAVInternalContextBase@23@_N@Z 000000018002dac0 f   libconcrt:SchedulerBase.obj
 0001:0002cb2c       ?ReleaseRealizedChore@SchedulerBase@details@Concurrency@@QEAAXPEAVRealizedChore@23@@Z 000000018002db2c f   libconcrt:SchedulerBase.obj
 0001:0002cb9c       ?ReleaseReservedContexts@SchedulerBase@details@Concurrency@@QEAAXXZ 000000018002db9c f   libconcrt:SchedulerBase.obj
 0001:0002cc38       ?Remove@?$ListArray@VExternalStatistics@details@Concurrency@@@details@Concurrency@@QEAA_NPEAVExternalStatistics@23@H_N@Z 000000018002dc38 f i libconcrt:SchedulerBase.obj
 0001:0002cd8c       ?Remove@?$ListArray@VScheduleGroupBase@details@Concurrency@@@details@Concurrency@@QEAA_NPEAVScheduleGroupBase@23@H_N@Z 000000018002dd8c f i libconcrt:SchedulerBase.obj
 0001:0002cee0       ?RemoveHead@?$SafeRWList@VWaitNode@SchedulerBase@details@Concurrency@@VNoCount@CollectionTypes@34@V_ReaderWriterLock@34@@details@Concurrency@@QEAAPEAVWaitNode@SchedulerBase@23@XZ 000000018002dee0 f i libconcrt:SchedulerBase.obj
 0001:0002cf4c       ?RemovePrioritizedObject@SchedulerBase@details@Concurrency@@QEAAXPEAUBoostedObject@23@@Z 000000018002df4c f   libconcrt:SchedulerBase.obj
 0001:0002cfcc       ?RemoveScheduleGroup@SchedulerBase@details@Concurrency@@QEAAXPEAVScheduleGroupBase@23@@Z 000000018002dfcc f   libconcrt:SchedulerBase.obj
 0001:0002cfe0       ?RemoveSegments@FairScheduleGroup@details@Concurrency@@MEAAXXZ 000000018002dfe0 f i libconcrt:SchedulerBase.obj
 0001:0002cffc       ?RemoveVirtualProcessors@SchedulerBase@details@Concurrency@@IEAAXPEAPEAUIVirtualProcessorRoot@3@I@Z 000000018002dffc f   libconcrt:SchedulerBase.obj
 0001:0002d124       ?Resurrect@SchedulerBase@details@Concurrency@@AEAAXXZ 000000018002e124 f   libconcrt:SchedulerBase.obj
 0001:0002d1ac       ?ReturnSubAllocator@SchedulerBase@details@Concurrency@@SAXPEAVSubAllocator@23@@Z 000000018002e1ac f   libconcrt:SchedulerBase.obj
 0001:0002d224       ?SafeFastCurrentContext@SchedulerBase@details@Concurrency@@SAPEAVContextBase@23@XZ 000000018002e224 f   libconcrt:SchedulerBase.obj
 0001:0002d240       ?SafeReference@SchedulerBase@details@Concurrency@@AEAA_NXZ 000000018002e240 f   libconcrt:SchedulerBase.obj
 0001:0002d264       ?ScheduleTask@SchedulerBase@details@Concurrency@@UEAAXP6AXPEAX@Z0@Z 000000018002e264 f   libconcrt:SchedulerBase.obj
 0001:0002d2e8       ?ScheduleTask@SchedulerBase@details@Concurrency@@UEAAXP6AXPEAX@Z0AEAVlocation@3@@Z 000000018002e2e8 f   libconcrt:SchedulerBase.obj
 0001:0002d36c       ?SetNextSchedulingRing@SchedulerBase@details@Concurrency@@QEAAXPEAVSchedulingRing@23@@Z 000000018002e36c f   libconcrt:SchedulerBase.obj
 0001:0002d3a0       ?StartupNewVirtualProcessor@SchedulerBase@details@Concurrency@@UEAAXPEAVScheduleGroupSegmentBase@23@Vlocation@3@@Z 000000018002e3a0 f i libconcrt:SchedulerBase.obj
 0001:0002d3fc       ?StartupVirtualProcessor@SchedulerBase@details@Concurrency@@QEAA_NPEAVScheduleGroupSegmentBase@23@Vlocation@3@K@Z 000000018002e3fc f   libconcrt:SchedulerBase.obj
 0001:0002d4b8       ?StaticDestruction@SchedulerBase@details@Concurrency@@CAXXZ 000000018002e4b8 f   libconcrt:SchedulerBase.obj
 0001:0002d56c       ?Statistics@SchedulerBase@details@Concurrency@@IEAAXPEAI00@Z 000000018002e56c f   libconcrt:SchedulerBase.obj
 0001:0002d7c8       ?SweepSchedulerForFinalize@SchedulerBase@details@Concurrency@@AEAAXXZ 000000018002e7c8 f   libconcrt:SchedulerBase.obj
 0001:0002d8ac       ?ThrottlerDispatch@SchedulerBase@details@Concurrency@@AEAAXXZ 000000018002e8ac f   libconcrt:SchedulerBase.obj
 0001:0002da08       ?ThrottlerDispatchBridge@SchedulerBase@details@Concurrency@@CAXPEAU_TP_CALLBACK_INSTANCE@@PEAXPEAU_TP_TIMER@@@Z 000000018002ea08 f i libconcrt:SchedulerBase.obj
 0001:0002da10       ?ThrottlerDispatchBridgeXP@SchedulerBase@details@Concurrency@@CAXPEAXE@Z 000000018002ea10 f i libconcrt:SchedulerBase.obj
 0001:0002da18       ?ThrottlerTrampoline@SchedulerBase@details@Concurrency@@CAXPEAXE@Z 000000018002ea18 f   libconcrt:SchedulerBase.obj
 0001:0002da60       ?ThrottlingTime@SchedulerBase@details@Concurrency@@QEAAKK@Z 000000018002ea60 f   libconcrt:SchedulerBase.obj
 0001:0002db30       ?ThrowSchedulerEvent@SchedulerBase@details@Concurrency@@CAXW4ConcRT_EventType@3@EI@Z 000000018002eb30 f   libconcrt:SchedulerBase.obj
 0001:0002dbb8       ?TriggerCommitSafePoints@SchedulerBase@details@Concurrency@@QEAAXPEAVSafePointMarker@23@@Z 000000018002ebb8 f   libconcrt:SchedulerBase.obj
 0001:0002dc18       ?TypeOfWorkPending@SchedulerBase@details@Concurrency@@MEAA?AW4PendingWorkType@123@XZ 000000018002ec18 f   libconcrt:SchedulerBase.obj
 0001:0002dc60       ?UpdateCommitVersion@SchedulerBase@details@Concurrency@@AEAAKK@Z 000000018002ec60 f   libconcrt:SchedulerBase.obj
 0001:0002dcac       ?UpdatePendingVersion@SchedulerBase@details@Concurrency@@AEAAKXZ 000000018002ecac f   libconcrt:SchedulerBase.obj
 0001:0002dcf0       ?VirtualProcessorActive@SchedulerBase@details@Concurrency@@QEAA_N_N@Z 000000018002ecf0 f   libconcrt:SchedulerBase.obj
 0001:0002ddf8       ?VirtualProcessorIdle@SchedulerBase@details@Concurrency@@QEAAX_N@Z 000000018002edf8 f   libconcrt:SchedulerBase.obj
 0001:0002de6c       ?Wipe@?$Hash@II@details@Concurrency@@QEAAXXZ 000000018002ee6c f i libconcrt:SchedulerBase.obj
 0001:0002deec       ??0MultiWaitBlock@details@Concurrency@@QEAA@_K_N1@Z 000000018002eeec f i libconcrt:event.obj
 0001:0002df88       ??0MultiWaitBlockHolder@details@Concurrency@@QEAA@_N_K00@Z 000000018002ef88 f   libconcrt:event.obj
 0001:0002e090       ??0_Condition_variable@details@Concurrency@@QEAA@XZ 000000018002f090 f   libconcrt:event.obj
 0001:0002e0b4       ??0event@Concurrency@@QEAA@XZ 000000018002f0b4 f   libconcrt:event.obj
 0001:0002e0dc       ??1?$_MallocaArrayHolder@PEAVContext@Concurrency@@@details@Concurrency@@UEAA@XZ 000000018002f0dc f i libconcrt:event.obj
 0001:0002e10c       ??1MultiWaitBlockHolder@details@Concurrency@@QEAA@XZ 000000018002f10c f   libconcrt:event.obj
 0001:0002e140       ??1_Condition_variable@details@Concurrency@@QEAA@XZ 000000018002f140 f   libconcrt:event.obj
 0001:0002e180       ??1event@Concurrency@@QEAA@XZ 000000018002f180 f   libconcrt:event.obj
 0001:0002e24c       ??_E?$_MallocaArrayHolder@PEAVContext@Concurrency@@@details@Concurrency@@UEAAPEAXI@Z 000000018002f24c f i libconcrt:event.obj
 0001:0002e24c       ??_G?$_MallocaArrayHolder@PEAVContext@Concurrency@@@details@Concurrency@@UEAAPEAXI@Z 000000018002f24c f i libconcrt:event.obj
 0001:0002e2a0       ?Destroy@TimedSingleWaitBlock@details@Concurrency@@UEAAXXZ 000000018002f2a0 f   libconcrt:event.obj
 0001:0002e2c4       ?Destroy@WaitAllBlock@details@Concurrency@@UEAAXXZ 000000018002f2c4 f   libconcrt:event.obj
 0001:0002e2cc       ?DispatchEventTimer@MultiWaitBlock@details@Concurrency@@SAXPEAU_TP_CALLBACK_INSTANCE@@PEAXPEAU_TP_TIMER@@@Z 000000018002f2cc f   libconcrt:event.obj
 0001:0002e35c       ?DispatchEventTimer@TimedSingleWaitBlock@details@Concurrency@@SAXPEAU_TP_CALLBACK_INSTANCE@@PEAXPEAU_TP_TIMER@@@Z 000000018002f35c f   libconcrt:event.obj
 0001:0002e3b8       ?DispatchEventTimerXP@MultiWaitBlock@details@Concurrency@@SAXPEAXE@Z 000000018002f3b8 f   libconcrt:event.obj
 0001:0002e42c       ?DispatchEventTimerXP@TimedSingleWaitBlock@details@Concurrency@@SAXPEAXE@Z 000000018002f42c f   libconcrt:event.obj
 0001:0002e460       ?GetSharedTimerQueue@details@Concurrency@@YAPEAXXZ 000000018002f460 f   libconcrt:event.obj
 0001:0002e514       ?NotifyCompletedNode@MultiWaitBlock@details@Concurrency@@QEAAXXZ 000000018002f514 f   libconcrt:event.obj
 0001:0002e53c       ?Reset@WaitAllBlock@details@Concurrency@@UEAA_NXZ 000000018002f53c f   libconcrt:event.obj
 0001:0002e57c       ?Satisfy@SingleWaitBlock@details@Concurrency@@UEAA_NPEAPEAVContext@3@PEAVEventWaitNode@23@@Z 000000018002f57c f   libconcrt:event.obj
 0001:0002e5e8       ?Satisfy@TimedSingleWaitBlock@details@Concurrency@@UEAA_NPEAPEAVContext@3@PEAVEventWaitNode@23@@Z 000000018002f5e8 f   libconcrt:event.obj
 0001:0002e6a4       ?Satisfy@WaitAllBlock@details@Concurrency@@UEAA_NPEAPEAVContext@3@PEAVEventWaitNode@23@@Z 000000018002f6a4 f   libconcrt:event.obj
 0001:0002e720       ?Satisfy@WaitAnyBlock@details@Concurrency@@UEAA_NPEAPEAVContext@3@PEAVEventWaitNode@23@@Z 000000018002f720 f   libconcrt:event.obj
 0001:0002e798       ?Set@StructuredEvent@details@Concurrency@@QEAAXXZ 000000018002f798 f   libconcrt:event.obj
 0001:0002e804       ?SingleSatisfy@MultiWaitBlock@details@Concurrency@@MEAAXPEAPEAVContext@3@PEAVEventWaitNode@23@@Z 000000018002f804 f   libconcrt:event.obj
 0001:0002e8f0       ?Sweep@details@Concurrency@@YAPEAVEventWaitNode@12@PEAV312@_N@Z 000000018002f8f0 f   libconcrt:event.obj
 0001:0002e96c       ?SweepResetNode@WaitAllBlock@details@Concurrency@@UEAA_NXZ 000000018002f96c f   libconcrt:event.obj
 0001:0002e9bc       ?Reset@SingleWaitBlock@details@Concurrency@@UEAA_NXZ 000000018002f9bc f   libconcrt:event.obj
 0001:0002e9bc       ?Reset@WaitAnyBlock@details@Concurrency@@UEAA_NXZ 000000018002f9bc f   libconcrt:event.obj
 0001:0002e9bc       ?SweepResetNode@SingleWaitBlock@details@Concurrency@@UEAA_NXZ 000000018002f9bc f   libconcrt:event.obj
 0001:0002e9bc       ?Destroy@SingleWaitBlock@details@Concurrency@@UEAAXXZ 000000018002f9bc f   libconcrt:event.obj
 0001:0002e9bc       ?SweepResetNode@WaitAnyBlock@details@Concurrency@@UEAA_NXZ 000000018002f9bc f   libconcrt:event.obj
 0001:0002e9c0       ?SweepWaitNode@TimedSingleWaitBlock@details@Concurrency@@UEAA_NXZ 000000018002f9c0 f   libconcrt:event.obj
 0001:0002e9fc       ?SweepWaitNode@WaitAllBlock@details@Concurrency@@UEAA_NXZ 000000018002f9fc f   libconcrt:event.obj
 0001:0002ea54       ?SweepWaitNode@WaitAnyBlock@details@Concurrency@@UEAA_NXZ 000000018002fa54 f   libconcrt:event.obj
 0001:0002eaa4       ?createTimer@TimedSingleWaitBlock@details@Concurrency@@QEAA_NI@Z 000000018002faa4 f i libconcrt:event.obj
 0001:0002eb30       ?notify_all@_Condition_variable@details@Concurrency@@QEAAXXZ 000000018002fb30 f   libconcrt:event.obj
 0001:0002ebf4       ?notify_one@_Condition_variable@details@Concurrency@@QEAAXXZ 000000018002fbf4 f   libconcrt:event.obj
 0001:0002ecf4       ?set@event@Concurrency@@QEAAXXZ 000000018002fcf4 f   libconcrt:event.obj
 0001:0002ef18       ?wait@_Condition_variable@details@Concurrency@@QEAAXAEAVcritical_section@3@@Z 000000018002ff18 f   libconcrt:event.obj
 0001:0002efe4       ?wait@event@Concurrency@@QEAA_KI@Z 000000018002ffe4 f   libconcrt:event.obj
 0001:0002f110       ?wait_for@_Condition_variable@details@Concurrency@@QEAA_NAEAVcritical_section@3@I@Z 0000000180030110 f   libconcrt:event.obj
 0001:0002f25c       ?wait_for_multiple@event@Concurrency@@SA_KPEAPEAV12@_K_NI@Z 000000018003025c f   libconcrt:event.obj
 0001:0002f5fc       ??0ContextBase@details@Concurrency@@QEAA@PEAVSchedulerBase@12@_N@Z 00000001800305fc f   libconcrt:ContextBase.obj
 0001:0002f764       ??1?$Hash@PEAV_TaskCollection@details@Concurrency@@PEAV123@@details@Concurrency@@QEAA@XZ 0000000180030764 f i libconcrt:ContextBase.obj
 0001:0002f780       ??1?$StructuredWorkStealingQueue@V_UnrealizedChore@details@Concurrency@@V_CriticalNonReentrantLock@23@@details@Concurrency@@QEAA@XZ 0000000180030780 f i libconcrt:ContextBase.obj
 0001:0002f7a0       ??1?$WorkStealingQueue@V_UnrealizedChore@details@Concurrency@@V_CriticalNonReentrantLock@23@@details@Concurrency@@QEAA@XZ 00000001800307a0 f i libconcrt:ContextBase.obj
 0001:0002f7c0       ??1CancellationBeaconStack@ContextBase@details@Concurrency@@QEAA@XZ 00000001800307c0 f i libconcrt:ContextBase.obj
 0001:0002f820       ??1Context@Concurrency@@MEAA@XZ 0000000180030820 f i libconcrt:ContextBase.obj
 0001:0002f82c       ??1ContextBase@details@Concurrency@@UEAA@XZ 000000018003082c f i libconcrt:ContextBase.obj
 0001:0002f8b8       ??1_Scoped_lock@_CriticalNonReentrantLock@details@Concurrency@@QEAA@XZ 00000001800308b8 f i libconcrt:ContextBase.obj
 0001:0002f8d4       ??1_Scoped_lock_read@?$SafeRWList@UListEntry@details@Concurrency@@VNoCount@CollectionTypes@23@V_ReaderWriterLock@23@@details@Concurrency@@QEAA@XZ 00000001800308d4 f i libconcrt:ContextBase.obj
 0001:0002f8f4       ??_EContext@Concurrency@@MEAAPEAXI@Z 00000001800308f4 f i libconcrt:ContextBase.obj
 0001:0002f8f4       ??_GContext@Concurrency@@MEAAPEAXI@Z 00000001800308f4 f i libconcrt:ContextBase.obj
 0001:0002f920       ??_GContextBase@details@Concurrency@@UEAAPEAXI@Z 0000000180030920 f i libconcrt:ContextBase.obj
 0001:0002f920       ??_EContextBase@details@Concurrency@@UEAAPEAXI@Z 0000000180030920 f i libconcrt:ContextBase.obj
 0001:0002f954       ?Add@?$ListArray@VWorkQueue@details@Concurrency@@@details@Concurrency@@QEAAHPEAVWorkQueue@23@@Z 0000000180030954 f i libconcrt:ContextBase.obj
 0001:0002facc       ?AddStealer@ContextBase@details@Concurrency@@QEAAXPEAV123@_N@Z 0000000180030acc f   libconcrt:ContextBase.obj
 0001:0002fb1c       ?AddTail@?$SafeRWList@UListEntry@details@Concurrency@@VNoCount@CollectionTypes@23@V_ReaderWriterLock@23@@details@Concurrency@@QEAAXPEAUListEntry@23@@Z 0000000180030b1c f i libconcrt:ContextBase.obj
 0001:0002fb94       ?CancelCollection@ContextBase@details@Concurrency@@QEAAXH@Z 0000000180030b94 f   libconcrt:ContextBase.obj
 0001:0002fc04       ?CancelCollectionComplete@ContextBase@details@Concurrency@@QEAA_NH@Z 0000000180030c04 f   libconcrt:ContextBase.obj
 0001:0002fc40       ?CancelStealers@ContextBase@details@Concurrency@@QEAAXPEAV_TaskCollectionBase@23@@Z 0000000180030c40 f   libconcrt:ContextBase.obj
 0001:0002fd40       ?CheckForDeletion@?$ListArray@VWorkQueue@details@Concurrency@@@details@Concurrency@@AEAAXXZ 0000000180030d40 f i libconcrt:ContextBase.obj
 0001:0002fdd0       ?CheckForDeletionBridge@?$ListArray@VWorkQueue@details@Concurrency@@@details@Concurrency@@CAXPEAV123@@Z 0000000180030dd0 f i libconcrt:ContextBase.obj
 0001:0002fdd8       ?Claim@Slot@?$Mailbox@V_UnrealizedChore@details@Concurrency@@@details@Concurrency@@QEAA_NPEAPEAV_UnrealizedChore@34@@Z 0000000180030dd8 f i libconcrt:ContextBase.obj
 0001:0002fe48       ?Cleanup@ContextBase@details@Concurrency@@QEAAXXZ 0000000180030e48 f   libconcrt:ContextBase.obj
 0001:0002feb4       ?ClearAliasTable@ContextBase@details@Concurrency@@QEAAXXZ 0000000180030eb4 f   libconcrt:ContextBase.obj
 0001:0002ff7c       ?ClearContextTls@ContextBase@details@Concurrency@@AEAAXXZ 0000000180030f7c f   libconcrt:ContextBase.obj
 0001:0002ff8c       ?CreateWorkQueue@ContextBase@details@Concurrency@@QEAAXXZ 0000000180030f8c f   libconcrt:ContextBase.obj
 0001:00030030       ?DetachStealers@ContextBase@details@Concurrency@@QEAAXXZ 0000000180031030 f   libconcrt:ContextBase.obj
 0001:00030214       ?EnterCriticalRegionHelper@ContextBase@details@Concurrency@@UEAAHXZ 0000000180031214 f i libconcrt:ContextBase.obj
 0001:00030220       ?EnterHyperCriticalRegionHelper@ContextBase@details@Concurrency@@UEAAHXZ 0000000180031220 f i libconcrt:ContextBase.obj
 0001:0003022c       ?ExitCriticalRegionHelper@ContextBase@details@Concurrency@@UEAAHXZ 000000018003122c f i libconcrt:ContextBase.obj
 0001:00030238       ?ExitHyperCriticalRegionHelper@ContextBase@details@Concurrency@@UEAAHXZ 0000000180031238 f i libconcrt:ContextBase.obj
 0001:00030244       ?FindAndDelete@?$Hash@PEAV_TaskCollection@details@Concurrency@@PEAV123@@details@Concurrency@@QEAA_NAEBQEAV_TaskCollection@23@PEAPEAV423@@Z 0000000180031244 f i libconcrt:ContextBase.obj
 0001:000302f0       ?FlagCancellationBeacons@ContextBase@details@Concurrency@@QEAAXH@Z 00000001800312f0 f   libconcrt:ContextBase.obj
 0001:0003036c       ?GetCriticalRegionType@ContextBase@details@Concurrency@@UEBA?AW4CriticalRegionType@3@XZ 000000018003136c f i libconcrt:ContextBase.obj
 0001:00030380       ?GetId@ContextBase@details@Concurrency@@UEBAIXZ 0000000180031380 f   libconcrt:ContextBase.obj
 0001:00030384       ?GetIndirectAlias@ContextBase@details@Concurrency@@QEBAPEAV_TaskCollection@23@XZ 0000000180031384 f   libconcrt:ContextBase.obj
 0001:0003038c       ?GetScheduleGroup@ContextBase@details@Concurrency@@QEBAPEAVScheduleGroupBase@23@XZ 000000018003138c f   libconcrt:ContextBase.obj
 0001:000303a0       ?GetScheduleGroupId@ContextBase@details@Concurrency@@UEBAIXZ 00000001800313a0 f   libconcrt:ContextBase.obj
 0001:000303e0       ?GetScheduleGroupSegment@ContextBase@details@Concurrency@@QEBAPEAVScheduleGroupSegmentBase@23@XZ 00000001800313e0 f   libconcrt:ContextBase.obj
 0001:000303e8       ?GetScheduler@ContextBase@details@Concurrency@@QEBAPEAVSchedulerBase@23@XZ 00000001800313e8 f   libconcrt:ContextBase.obj
 0001:000303f0       ?IsCanceledAtDepth@ContextBase@details@Concurrency@@AEAA_NPEAV_TaskCollectionBase@23@H@Z 00000001800313f0 f   libconcrt:ContextBase.obj
 0001:00030524       ?Pop@?$WorkStealingQueue@V_UnrealizedChore@details@Concurrency@@V_CriticalNonReentrantLock@23@@details@Concurrency@@QEAAPEAV_UnrealizedChore@23@XZ 0000000180031524 f i libconcrt:ContextBase.obj
 0001:000305f0       ?PopContextFromTls@ContextBase@details@Concurrency@@AEAAPEAV123@XZ 00000001800315f0 f   libconcrt:ContextBase.obj
 0001:00030624       ?PushContextToTls@ContextBase@details@Concurrency@@AEAAXPEAV123@@Z 0000000180031624 f   libconcrt:ContextBase.obj
 0001:00030638       ?RecomputeMaximumCancellationDepth@ContextBase@details@Concurrency@@AEAAXXZ 0000000180031638 f   libconcrt:ContextBase.obj
 0001:000306dc       ?ReferenceForCancellation@ContextBase@details@Concurrency@@QEAAXXZ 00000001800316dc f   libconcrt:ContextBase.obj
 0001:000306e4       ?ReleaseWorkQueue@ContextBase@details@Concurrency@@IEAAXXZ 00000001800316e4 f   libconcrt:ContextBase.obj
 0001:000307a4       ?Remove@?$ListArray@VWorkQueue@details@Concurrency@@@details@Concurrency@@QEAA_NPEAVWorkQueue@23@H_N@Z 00000001800317a4 f i libconcrt:ContextBase.obj
 0001:000308e8       ?Remove@?$SafeRWList@UListEntry@details@Concurrency@@VNoCount@CollectionTypes@23@V_ReaderWriterLock@23@@details@Concurrency@@QEAAXPEAUListEntry@23@@Z 00000001800318e8 f i libconcrt:ContextBase.obj
 0001:00030958       ?RemoveStealer@ContextBase@details@Concurrency@@QEAAXPEAV123@@Z 0000000180031958 f   libconcrt:ContextBase.obj
 0001:0003096c       ?SetAsCurrentTls@ContextBase@details@Concurrency@@IEAAXXZ 000000018003196c f   libconcrt:ContextBase.obj
 0001:0003097c       ?StaticEnterCriticalRegion@ContextBase@details@Concurrency@@SAXXZ 000000018003197c f   libconcrt:ContextBase.obj
 0001:0003097c       ?StaticExitCriticalRegion@ContextBase@details@Concurrency@@SAXXZ 000000018003197c f   libconcrt:ContextBase.obj
 0001:0003097c       ?StaticExitHyperCriticalRegion@ContextBase@details@Concurrency@@SAXXZ 000000018003197c f   libconcrt:ContextBase.obj
 0001:0003097c       ?StaticEnterHyperCriticalRegion@ContextBase@details@Concurrency@@SAXXZ 000000018003197c f   libconcrt:ContextBase.obj
 0001:00030984       ?SweepAliasTable@ContextBase@details@Concurrency@@QEAAXXZ 0000000180031984 f   libconcrt:ContextBase.obj
 0001:00030a94       ?SweepUnstructured@ContextBase@details@Concurrency@@QEAAXP6A_NPEAV_UnrealizedChore@23@PEAX@Z12@Z 0000000180031a94 f   libconcrt:ContextBase.obj
 0001:00030aa0       ?SyncPop@?$WorkStealingQueue@V_UnrealizedChore@details@Concurrency@@V_CriticalNonReentrantLock@23@@details@Concurrency@@AEAAPEAV_UnrealizedChore@23@XZ 0000000180031aa0 f i libconcrt:ContextBase.obj
 0001:00030bac       ?ThrowContextEvent@ContextBase@details@Concurrency@@KAXW4ConcRT_EventType@3@EKK@Z 0000000180031bac f   libconcrt:ContextBase.obj
 0001:00030c48       ?TryPop@?$WorkStealingQueue@V_UnrealizedChore@details@Concurrency@@V_CriticalNonReentrantLock@23@@details@Concurrency@@QEAAPEAV_UnrealizedChore@23@H@Z 0000000180031c48 f i libconcrt:ContextBase.obj
 0001:00030d0c       ?TryPopUnstructured@ContextBase@details@Concurrency@@QEAAPEAV_UnrealizedChore@23@H@Z 0000000180031d0c f   libconcrt:ContextBase.obj
 0001:00030d1c       ?Wipe@?$Hash@PEAV_TaskCollection@details@Concurrency@@PEAV123@@details@Concurrency@@QEAAXXZ 0000000180031d1c f i libconcrt:ContextBase.obj
 0001:00030d9c       ??0CancellationTokenRegistration_TaskProc@details@Concurrency@@QEAA@P6AXPEAX@Z0H@Z 0000000180031d9c f i libconcrt:TaskCollection.obj
 0001:00030e24       ??0_Interruption_exception@details@Concurrency@@QEAA@AEBV012@@Z 0000000180031e24 f i libconcrt:TaskCollection.obj
 0001:00030e64       ??0_Interruption_exception@details@Concurrency@@QEAA@XZ 0000000180031e64 f i libconcrt:TaskCollection.obj
 0001:00030e7c       ??0_TaskCollection@details@Concurrency@@AEAA@PEAV012@_N@Z 0000000180031e7c f   libconcrt:TaskCollection.obj
 0001:00030ff0       ??0missing_wait@Concurrency@@QEAA@AEBV01@@Z 0000000180031ff0 f i libconcrt:TaskCollection.obj
 0001:00031030       ??1?$_MallocaArrayHolder@PEAVevent@Concurrency@@@details@Concurrency@@UEAA@XZ 0000000180032030 f i libconcrt:TaskCollection.obj
 0001:00031060       ??1?$lock_guard@Vmutex@std@@@std@@QEAA@XZ 0000000180032060 f i libconcrt:TaskCollection.obj
 0001:00031088       ??1?$unique_lock@Vmutex@std@@@std@@QEAA@XZ 0000000180032088 f i libconcrt:TaskCollection.obj
 0001:000310b8       ??1_TaskCollection@details@Concurrency@@QEAA@XZ 00000001800320b8 f   libconcrt:TaskCollection.obj
 0001:000311e4       ??1exception_ptr@std@@QEAA@XZ 00000001800321e4 f i libconcrt:TaskCollection.obj
 0001:000311ec       ??_G?$_MallocaArrayHolder@PEAVevent@Concurrency@@@details@Concurrency@@UEAAPEAXI@Z 00000001800321ec f i libconcrt:TaskCollection.obj
 0001:000311ec       ??_E?$_MallocaArrayHolder@PEAVevent@Concurrency@@@details@Concurrency@@UEAAPEAXI@Z 00000001800321ec f i libconcrt:TaskCollection.obj
 0001:00031240       ??_ECancellationTokenRegistration_TaskProc@details@Concurrency@@UEAAPEAXI@Z 0000000180032240 f i libconcrt:TaskCollection.obj
 0001:00031240       ??_GCancellationTokenRegistration_TaskProc@details@Concurrency@@UEAAPEAXI@Z 0000000180032240 f i libconcrt:TaskCollection.obj
 0001:00031298       ??_G_CancellationTokenRegistration@details@Concurrency@@MEAAPEAXI@Z 0000000180032298 f i libconcrt:TaskCollection.obj
 0001:00031298       ??_E_CancellationTokenRegistration@details@Concurrency@@MEAAPEAXI@Z 0000000180032298 f i libconcrt:TaskCollection.obj
 0001:000312f0       ??_G_RefCounter@details@Concurrency@@UEAAPEAXI@Z 00000001800322f0 f i libconcrt:TaskCollection.obj
 0001:000312f0       ??_E_RefCounter@details@Concurrency@@UEAAPEAXI@Z 00000001800322f0 f i libconcrt:TaskCollection.obj
 0001:0003131c       ?Find@?$Hash@PEAV_TaskCollection@details@Concurrency@@PEAV123@@details@Concurrency@@QEAAPEAUListNode@123@AEBQEAV_TaskCollection@23@PEAPEAV523@@Z 000000018003231c f i libconcrt:TaskCollection.obj
 0001:00031398       ?GetArbitraryAlias@ContextBase@details@Concurrency@@QEAAPEAV_TaskCollection@23@PEAV423@@Z 0000000180032398 f i libconcrt:TaskCollection.obj
 0001:00031420       ?Insert@?$Hash@PEAV_TaskCollection@details@Concurrency@@PEAV123@@details@Concurrency@@QEAAPEAUListNode@123@AEBQEAV_TaskCollection@23@0@Z 0000000180032420 f i libconcrt:TaskCollection.obj
 0001:000314fc       ?_Abort@_TaskCollection@details@Concurrency@@AEAAX_N@Z 00000001800324fc f   libconcrt:TaskCollection.obj
 0001:000316a0       ?_AbortiveSweep@_TaskCollection@details@Concurrency@@AEAAXPEAX@Z 00000001800326a0 f   libconcrt:TaskCollection.obj
 0001:000316fc       ?_Alias@_TaskCollection@details@Concurrency@@AEAAPEAV123@XZ 00000001800326fc f   libconcrt:TaskCollection.obj
 0001:000317f4       ?_Cancel@_StructuredTaskCollection@details@Concurrency@@QEAAXXZ 00000001800327f4 f   libconcrt:TaskCollection.obj
 0001:0003187c       ?_Cancel@_TaskCollection@details@Concurrency@@AEAAX_NPEAV123@@Z 000000018003287c f   libconcrt:TaskCollection.obj
 0001:00031964       ?_CancelDirectAliases@_TaskCollection@details@Concurrency@@AEAAX_NPEAV123@@Z 0000000180032964 f   libconcrt:TaskCollection.obj
 0001:0003199c       ?_CancelFromArbitraryThread@_TaskCollection@details@Concurrency@@AEAAX_N@Z 000000018003299c f   libconcrt:TaskCollection.obj
 0001:00031a5c       ?_CancelStolenContexts@_TaskCollection@details@Concurrency@@AEAAX_N0@Z 0000000180032a5c f   libconcrt:TaskCollection.obj
 0001:00031b10       ?_CollectionMatchPredicate@_TaskCollection@details@Concurrency@@CA_NPEAV_UnrealizedChore@23@PEAX@Z 0000000180032b10 f   libconcrt:TaskCollection.obj
 0001:00031b1c       ?_CountUp@_StructuredTaskCollection@details@Concurrency@@AEAAXXZ 0000000180032b1c f   libconcrt:TaskCollection.obj
 0001:00031b4c       ?_DeregisterCallback@_CancellationTokenState@details@Concurrency@@QEAAXPEAV_CancellationTokenRegistration@23@@Z 0000000180032b4c f i libconcrt:TaskCollection.obj
 0001:00031ccc       ?_Destroy@_RefCounter@details@Concurrency@@MEAAXXZ 0000000180032ccc f i libconcrt:TaskCollection.obj
 0001:00031d04       ?_Exec@CancellationTokenRegistration_TaskProc@details@Concurrency@@MEAAXXZ 0000000180032d04 f i libconcrt:TaskCollection.obj
 0001:00031d38       ?_FullAliasWait@_TaskCollection@details@Concurrency@@AEAAXPEAV123@@Z 0000000180032d38 f   libconcrt:TaskCollection.obj
 0001:00031ee8       ?_GetStealTrackingList@_TaskCollection@details@Concurrency@@AEBAPEAXXZ 0000000180032ee8 f   libconcrt:TaskCollection.obj
 0001:00031ef0       ?_Initialize@_StructuredTaskCollection@details@Concurrency@@AEAAXXZ 0000000180032ef0 f   libconcrt:TaskCollection.obj
 0001:00031f50       ?_Initialize@_TaskCollection@details@Concurrency@@AEAAXXZ 0000000180032f50 f   libconcrt:TaskCollection.obj
 0001:00031f90       ?_Invoke@_CancellationTokenRegistration@details@Concurrency@@AEAAXXZ 0000000180032f90 f i libconcrt:TaskCollection.obj
 0001:00032080       ?_IsMarkedForAbnormalExit@_TaskCollection@details@Concurrency@@QEBA_NXZ 0000000180033080 f   libconcrt:TaskCollection.obj
 0001:00032090       ?_IsStaleAlias@_TaskCollection@details@Concurrency@@AEBA_NXZ 0000000180033090 f   libconcrt:TaskCollection.obj
 0001:0003209c       ?_NotifyCompletedChoreAndFree@_TaskCollection@details@Concurrency@@AEAAXPEAV_UnrealizedChore@23@@Z 000000018003309c f   libconcrt:TaskCollection.obj
 0001:00032104       ?_OriginalCollection@_TaskCollection@details@Concurrency@@QEBAPEAV123@XZ 0000000180033104 f   libconcrt:TaskCollection.obj
 0001:0003210c       ?_RegisterCallback@_CancellationTokenState@details@Concurrency@@QEAAPEAV_CancellationTokenRegistration@23@P6AXPEAX@Z0H@Z 000000018003310c f i libconcrt:TaskCollection.obj
 0001:00032184       ?_RegisterCallback@_CancellationTokenState@details@Concurrency@@QEAAXPEAV_CancellationTokenRegistration@23@@Z 0000000180033184 f i libconcrt:TaskCollection.obj
 0001:00032250       ?_ReleaseAlias@_TaskCollection@details@Concurrency@@AEAAXXZ 0000000180033250 f   libconcrt:TaskCollection.obj
 0001:0003228c       ?_Reset@_TaskCollection@details@Concurrency@@AEAAXPEAV123@@Z 000000018003328c f   libconcrt:TaskCollection.obj
 0001:000323b8       ?_SetCancelState@_TaskCollection@details@Concurrency@@AEAA_NJ@Z 00000001800333b8 f   libconcrt:TaskCollection.obj
 0001:000323e4       ?_SweepAbortedChore@_TaskCollection@details@Concurrency@@CA_NPEAV_UnrealizedChore@23@PEAX@Z 00000001800333e4 f   libconcrt:TaskCollection.obj
 0001:00032404       ?_TaskCleanup@_TaskCollection@details@Concurrency@@AEAA_N_N@Z 0000000180033404 f   libconcrt:TaskCollection.obj
 0001:000324ac       ?compare_exchange_strong@_Atomic_long@std@@QEAA_NAEAJJW4memory_order@2@@Z 00000001800334ac f i libconcrt:TaskCollection.obj
 0001:00032544       ??0SchedulerPolicy@Concurrency@@QEAA@AEBV01@@Z 0000000180033544 f   libconcrt:SchedulerPolicyBase.obj
 0001:0003258c       ??0SchedulerPolicy@Concurrency@@QEAA@_KZZ 000000018003358c f   libconcrt:SchedulerPolicyBase.obj
 0001:000325c0       ??0invalid_scheduler_policy_key@Concurrency@@QEAA@AEBV01@@Z 00000001800335c0 f i libconcrt:SchedulerPolicyBase.obj
 0001:00032600       ??0invalid_scheduler_policy_thread_specification@Concurrency@@QEAA@AEBV01@@Z 0000000180033600 f i libconcrt:SchedulerPolicyBase.obj
 0001:00032640       ??0invalid_scheduler_policy_value@Concurrency@@QEAA@AEBV01@@Z 0000000180033640 f i libconcrt:SchedulerPolicyBase.obj
 0001:00032680       ??1SchedulerPolicy@Concurrency@@QEAA@XZ 0000000180033680 f   libconcrt:SchedulerPolicyBase.obj
 0001:00032690       ??4SchedulerPolicy@Concurrency@@QEAAAEAV01@AEBV01@@Z 0000000180033690 f   libconcrt:SchedulerPolicyBase.obj
 0001:000326b4       ?GetPolicyValue@SchedulerPolicy@Concurrency@@QEBAIW4PolicyElementKey@2@@Z 00000001800336b4 f   libconcrt:SchedulerPolicyBase.obj
 0001:000326f4       ?_Initialize@SchedulerPolicy@Concurrency@@AEAAX_KPEAPEAD@Z 00000001800336f4 f   libconcrt:SchedulerPolicyBase.obj
 0001:00032830       ?_ResolvePolicyValues@SchedulerPolicy@Concurrency@@AEAAXXZ 0000000180033830 f   libconcrt:SchedulerPolicyBase.obj
 0001:00032894       ?_StringFromPolicyKey@SchedulerPolicy@Concurrency@@CAPEADI@Z 0000000180033894 f   libconcrt:SchedulerPolicyBase.obj
 0001:000328ac       ?_ValidPolicyValue@SchedulerPolicy@Concurrency@@CA_NW4PolicyElementKey@2@I@Z 00000001800338ac f   libconcrt:SchedulerPolicyBase.obj
 0001:00032958       ?_ValidateConcRTPolicy@SchedulerPolicy@Concurrency@@QEBAXXZ 0000000180033958 f   libconcrt:SchedulerPolicyBase.obj
 0001:000329c4       ??0ExecutionResource@details@Concurrency@@QEAA@PEAVSchedulerProxy@12@PEAUSchedulerNode@12@I@Z 00000001800339c4 f   libconcrt:ExecutionResource.obj
 0001:00032a28       ??0ExecutionResource@details@Concurrency@@QEAA@PEAVSchedulerProxy@12@PEAV012@@Z 0000000180033a28 f   libconcrt:ExecutionResource.obj
 0001:00032a78       ?CurrentSubscriptionLevel@ExecutionResource@details@Concurrency@@UEBAIXZ 0000000180033a78 f   libconcrt:ExecutionResource.obj
 0001:00032a8c       ?DecrementUseCounts@ExecutionResource@details@Concurrency@@QEAAXXZ 0000000180033a8c f   libconcrt:ExecutionResource.obj
 0001:00032b1c       ?GetExecutionResourceId@ExecutionResource@details@Concurrency@@UEBAIXZ 0000000180033b1c f i libconcrt:ExecutionResource.obj
 0001:00032b20       ?GetNodeId@ExecutionResource@details@Concurrency@@UEBAIXZ 0000000180033b20 f i libconcrt:ExecutionResource.obj
 0001:00032b24       ?IncrementUseCounts@ExecutionResource@details@Concurrency@@QEAAXXZ 0000000180033b24 f   libconcrt:ExecutionResource.obj
 0001:00032c20       ?Remove@ExecutionResource@details@Concurrency@@UEAAXPEAUIScheduler@3@@Z 0000000180033c20 f   libconcrt:ExecutionResource.obj
 0001:00032cc0       ?ResetCurrent@ExecutionResource@details@Concurrency@@QEAAXXZ 0000000180033cc0 f   libconcrt:ExecutionResource.obj
 0001:00032cec       ?SetAsCurrent@ExecutionResource@details@Concurrency@@QEAAXXZ 0000000180033cec f   libconcrt:ExecutionResource.obj
 0001:00032d28       ??$sign@N@details@Concurrency@@YANN@Z 0000000180033d28 f i libconcrt:HillClimbing.obj
 0001:00032d50       ??0HillClimbing@details@Concurrency@@QEAA@IIPEAVSchedulerProxy@12@@Z 0000000180033d50 f   libconcrt:HillClimbing.obj
 0001:00032dc4       ?CalculateThroughputSlope@HillClimbing@details@Concurrency@@AEAANHH@Z 0000000180033dc4 f   libconcrt:HillClimbing.obj
 0001:00032f24       ?CoefficientOfVariationMean@MeasuredHistory@HillClimbing@details@Concurrency@@QEAANXZ 0000000180033f24 f   libconcrt:HillClimbing.obj
 0001:00032f88       ?EstablishControlSetting@HillClimbing@details@Concurrency@@AEAAXI@Z 0000000180033f88 f   libconcrt:HillClimbing.obj
 0001:00032fec       ?FlushHistories@HillClimbing@details@Concurrency@@AEAAXXZ 0000000180033fec f   libconcrt:HillClimbing.obj
 0001:00033034       ?IsStableHistory@HillClimbing@details@Concurrency@@AEAA_NPEAVMeasuredHistory@123@@Z 0000000180034034 f   libconcrt:HillClimbing.obj
 0001:0003306c       ?RecommendControlSetting@HillClimbing@details@Concurrency@@AEAAII@Z 000000018003406c f   libconcrt:HillClimbing.obj
 0001:000331bc       ?Update@HillClimbing@details@Concurrency@@QEAAIIIII@Z 00000001800341bc f   libconcrt:HillClimbing.obj
 0001:00033420       ?Variance@MeasuredHistory@HillClimbing@details@Concurrency@@QEAANXZ 0000000180034420 f   libconcrt:HillClimbing.obj
 0001:00033474       ??0SchedulerProxy@details@Concurrency@@QEAA@PEAUIScheduler@2@PEAVResourceManager@12@AEBVSchedulerPolicy@2@@Z 0000000180034474 f   libconcrt:SchedulerProxy.obj
 0001:00033714       ??1SchedulerProxy@details@Concurrency@@IEAA@XZ 0000000180034714 f   libconcrt:SchedulerProxy.obj
 0001:00033760       ??1_Scoped_lock@_ReentrantBlockingLock@details@Concurrency@@QEAA@XZ 0000000180034760 f i libconcrt:SchedulerProxy.obj
 0001:0003377c       ?AddCore@SchedulerProxy@details@Concurrency@@QEAAXPEAUSchedulerNode@23@I_N@Z 000000018003477c f   libconcrt:SchedulerProxy.obj
 0001:0003388c       ?AddExecutionResource@SchedulerProxy@details@Concurrency@@QEAAXPEAVExecutionResource@23@@Z 000000018003488c f   libconcrt:SchedulerProxy.obj
 0001:0003392c       ?AddThreadSubscription@SchedulerProxy@details@Concurrency@@QEAAXPEAVExecutionResource@23@@Z 000000018003492c f   libconcrt:SchedulerProxy.obj
 0001:00033984       ?AddVirtualProcessorRoots@SchedulerProxy@details@Concurrency@@QEAAXPEAPEAUIVirtualProcessorRoot@3@I@Z 0000000180034984 f   libconcrt:SchedulerProxy.obj
 0001:00033a9c       ?AdjustAllocationIncrease@SchedulerProxy@details@Concurrency@@QEBAII@Z 0000000180034a9c f   libconcrt:SchedulerProxy.obj
 0001:00033b28       ?BindContext@SchedulerProxy@details@Concurrency@@UEAAXPEAUIExecutionContext@3@@Z 0000000180034b28 f   libconcrt:SchedulerProxy.obj
 0001:00033ba8       ?Cleanup@SchedulerProxy@details@Concurrency@@IEAAXXZ 0000000180034ba8 f   libconcrt:SchedulerProxy.obj
 0001:00033c7c       ?CreateExternalThreadResource@SchedulerProxy@details@Concurrency@@QEAAPEAVExecutionResource@23@PEAUSchedulerNode@23@I@Z 0000000180034c7c f   libconcrt:SchedulerProxy.obj
 0001:00033cec       ?CreateOversubscriber@SchedulerProxy@details@Concurrency@@UEAAPEAUIVirtualProcessorRoot@3@PEAUIExecutionResource@3@@Z 0000000180034cec f   libconcrt:SchedulerProxy.obj
 0001:00033e14       ?CreateVirtualProcessorRoot@SchedulerProxy@details@Concurrency@@UEAAPEAVVirtualProcessorRoot@23@PEAUSchedulerNode@23@I@Z 0000000180034e14 f   libconcrt:SchedulerProxy.obj
 0001:00033e70       ?DecrementCoreSubscription@SchedulerProxy@details@Concurrency@@QEAAXPEAVExecutionResource@23@@Z 0000000180034e70 f   libconcrt:SchedulerProxy.obj
 0001:00033ec8       ?DecrementFixedCoreCount@SchedulerProxy@details@Concurrency@@QEAAXII_N@Z 0000000180034ec8 f   libconcrt:SchedulerProxy.obj
 0001:00033f74       ?DeleteThis@SchedulerProxy@details@Concurrency@@MEAAXXZ 0000000180034f74 f i libconcrt:SchedulerProxy.obj
 0001:00033f9c       ?DestroyExecutionResource@SchedulerProxy@details@Concurrency@@QEAAXPEAVExecutionResource@23@@Z 0000000180034f9c f   libconcrt:SchedulerProxy.obj
 0001:00034098       ?DestroyVirtualProcessorRoot@SchedulerProxy@details@Concurrency@@QEAAXPEAVVirtualProcessorRoot@23@@Z 0000000180035098 f   libconcrt:SchedulerProxy.obj
 0001:00034174       ?FinalShutdown@SchedulerProxy@details@Concurrency@@UEAAXXZ 0000000180035174 f   libconcrt:SchedulerProxy.obj
 0001:000341a8       ?GetCurrentThreadExecutionResource@SchedulerProxy@details@Concurrency@@QEAAPEAVExecutionResource@23@XZ 00000001800351a8 f   libconcrt:SchedulerProxy.obj
 0001:000341d4       ?GetNewThreadProxy@SchedulerProxy@details@Concurrency@@UEAAPEAUIThreadProxy@3@PEAUIExecutionContext@3@@Z 00000001800351d4 f   libconcrt:SchedulerProxy.obj
 0001:00034264       ?GetResourceForNewSubscription@SchedulerProxy@details@Concurrency@@QEAAPEAVExecutionResource@23@PEAV423@@Z 0000000180035264 f   libconcrt:SchedulerProxy.obj
 0001:000342d0       ?GrantAllocation@SchedulerProxy@details@Concurrency@@QEAAPEAVExecutionResource@23@I_N0@Z 00000001800352d0 f   libconcrt:SchedulerProxy.obj
 0001:000346ac       ?IncrementCoreSubscription@SchedulerProxy@details@Concurrency@@QEAAXPEAVExecutionResource@23@@Z 00000001800356ac f   libconcrt:SchedulerProxy.obj
 0001:00034708       ?IncrementFixedCoreCount@SchedulerProxy@details@Concurrency@@QEAAXII_N@Z 0000000180035708 f   libconcrt:SchedulerProxy.obj
 0001:000347b4       ?ReferenceCurrentThreadExecutionResource@SchedulerProxy@details@Concurrency@@QEAAPEAVExecutionResource@23@XZ 00000001800357b4 f   libconcrt:SchedulerProxy.obj
 0001:00034894       ?RemoveCore@SchedulerProxy@details@Concurrency@@QEAAXPEAUSchedulerNode@23@I@Z 0000000180035894 f   libconcrt:SchedulerProxy.obj
 0001:000349a8       ?RemoveThreadSubscription@SchedulerProxy@details@Concurrency@@QEAAXPEAVExecutionResource@23@@Z 00000001800359a8 f   libconcrt:SchedulerProxy.obj
 0001:00034a04       ?RequestInitialVirtualProcessors@SchedulerProxy@details@Concurrency@@UEAAPEAUIExecutionResource@3@_N@Z 0000000180035a04 f   libconcrt:SchedulerProxy.obj
 0001:00034a14       ?SendCoreNotification@SchedulerProxy@details@Concurrency@@QEAAXPEAUSchedulerCore@23@_N@Z 0000000180035a14 f   libconcrt:SchedulerProxy.obj
 0001:00034b30       ?Shutdown@SchedulerProxy@details@Concurrency@@UEAAXXZ 0000000180035b30 f   libconcrt:SchedulerProxy.obj
 0001:00034b3c       ?SubscribeCurrentThread@SchedulerProxy@details@Concurrency@@UEAAPEAUIExecutionResource@3@XZ 0000000180035b3c f   libconcrt:SchedulerProxy.obj
 0001:00034b48       ?ToggleBorrowedState@SchedulerProxy@details@Concurrency@@QEAAXPEAUSchedulerNode@23@I@Z 0000000180035b48 f   libconcrt:SchedulerProxy.obj
 0001:00034b84       ?UnbindContext@SchedulerProxy@details@Concurrency@@UEAAXPEAUIExecutionContext@3@@Z 0000000180035b84 f   libconcrt:SchedulerProxy.obj
 0001:00034be0       ?Initialize@UMS@details@Concurrency@@SAXXZ 0000000180035be0 f   libconcrt:UMSWrapper.obj
 0001:00035294       ?Initialize@WinRT@details@Concurrency@@SAXXZ 0000000180036294 f   libconcrt:WinRTWrapper.obj
 0001:000353cc       ?RoInitialize@WinRT@details@Concurrency@@SAJW4RO_INIT_TYPE@@@Z 00000001800363cc f   libconcrt:WinRTWrapper.obj
 0001:00035404       ?RoUninitialize@WinRT@details@Concurrency@@SAXXZ 0000000180036404 f   libconcrt:WinRTWrapper.obj
 0001:0003542c       ??0ThreadProxyFactoryManager@details@Concurrency@@QEAA@XZ 000000018003642c f   libconcrt:ThreadProxyFactoryManager.obj
 0001:00035468       ??1ThreadProxyFactoryManager@details@Concurrency@@QEAA@XZ 0000000180036468 f   libconcrt:ThreadProxyFactoryManager.obj
 0001:000354e4       ??_G?$ThreadProxyFactory@VFreeThreadProxy@details@Concurrency@@@details@Concurrency@@UEAAPEAXI@Z 00000001800364e4 f i libconcrt:ThreadProxyFactoryManager.obj
 0001:000354e4       ??_E?$ThreadProxyFactory@VFreeThreadProxy@details@Concurrency@@@details@Concurrency@@UEAAPEAXI@Z 00000001800364e4 f i libconcrt:ThreadProxyFactoryManager.obj
 0001:00035510       ??_EFreeThreadProxy@details@Concurrency@@UEAAPEAXI@Z 0000000180036510 f i libconcrt:ThreadProxyFactoryManager.obj
 0001:00035510       ??_GFreeThreadProxy@details@Concurrency@@UEAAPEAXI@Z 0000000180036510 f i libconcrt:ThreadProxyFactoryManager.obj
 0001:00035550       ??_GFreeThreadProxyFactory@details@Concurrency@@UEAAPEAXI@Z 0000000180036550 f i libconcrt:ThreadProxyFactoryManager.obj
 0001:00035550       ??_EFreeThreadProxyFactory@details@Concurrency@@UEAAPEAXI@Z 0000000180036550 f i libconcrt:ThreadProxyFactoryManager.obj
 0001:0003557c       ??_EIThreadProxyFactory@details@Concurrency@@UEAAPEAXI@Z 000000018003657c f i libconcrt:ThreadProxyFactoryManager.obj
 0001:0003557c       ??_GIThreadProxyFactory@details@Concurrency@@UEAAPEAXI@Z 000000018003657c f i libconcrt:ThreadProxyFactoryManager.obj
 0001:000355a8       ?Create@FreeThreadProxyFactory@details@Concurrency@@EEAAPEAVFreeThreadProxy@23@I@Z 00000001800365a8 f i libconcrt:ThreadProxyFactoryManager.obj
 0001:00035628       ?CreateFactory@FreeThreadProxyFactory@details@Concurrency@@SAPEAV123@PEAVThreadProxyFactoryManager@23@@Z 0000000180036628 f i libconcrt:ThreadProxyFactoryManager.obj
 0001:000356c0       ?GetExecutionResourceTls@?$ThreadProxyFactory@VFreeThreadProxy@details@Concurrency@@@details@Concurrency@@UEAAKXZ 00000001800366c0 f i libconcrt:ThreadProxyFactoryManager.obj
 0001:000356c4       ?GetFreeThreadProxyFactory@ThreadProxyFactoryManager@details@Concurrency@@QEAAPEAVFreeThreadProxyFactory@23@XZ 00000001800366c4 f   libconcrt:ThreadProxyFactoryManager.obj
 0001:0003571c       ?Prepare@?$ThreadProxyFactory@VFreeThreadProxy@details@Concurrency@@@details@Concurrency@@MEAAXPEAVFreeThreadProxy@23@H@Z 000000018003671c f i libconcrt:ThreadProxyFactoryManager.obj
 0001:0003573c       ?ReclaimProxy@?$ThreadProxyFactory@VFreeThreadProxy@details@Concurrency@@@details@Concurrency@@UEAAXPEAUIThreadProxy@3@@Z 000000018003673c f i libconcrt:ThreadProxyFactoryManager.obj
 0001:000357d4       ?ReclaimProxy@FreeThreadProxyFactory@details@Concurrency@@UEAAXPEAUIThreadProxy@3@@Z 00000001800367d4 f i libconcrt:ThreadProxyFactoryManager.obj
 0001:000358c8       ?Reference@FreeThreadProxyFactory@details@Concurrency@@UEAAJXZ 00000001800368c8 f i libconcrt:ThreadProxyFactoryManager.obj
 0001:000358d8       ?Release@FreeThreadProxyFactory@details@Concurrency@@UEAAJXZ 00000001800368d8 f i libconcrt:ThreadProxyFactoryManager.obj
 0001:00035928       ?RequestProxy@?$ThreadProxyFactory@VFreeThreadProxy@details@Concurrency@@@details@Concurrency@@UEAAPEAUIThreadProxy@3@IH@Z 0000000180036928 f i libconcrt:ThreadProxyFactoryManager.obj
 0001:000359e4       ?Retire@FreeThreadProxyFactory@details@Concurrency@@EEAAXPEAVFreeThreadProxy@23@@Z 00000001800369e4 f i libconcrt:ThreadProxyFactoryManager.obj
 0001:000359ec       ?RetireThreadProxies@?$ThreadProxyFactory@VFreeThreadProxy@details@Concurrency@@@details@Concurrency@@QEAAXXZ 00000001800369ec f i libconcrt:ThreadProxyFactoryManager.obj
 0001:00035a78       ?ShutdownFactory@FreeThreadProxyFactory@details@Concurrency@@UEAAXXZ 0000000180036a78 f i libconcrt:ThreadProxyFactoryManager.obj
 0001:00035ab0       ?YieldToSystem@FreeThreadProxy@details@Concurrency@@UEAAXXZ 0000000180036ab0 f i libconcrt:ThreadProxyFactoryManager.obj
 0001:00035ab8       ??0Etw@details@Concurrency@@AEAA@XZ 0000000180036ab8 f   libconcrt:Trace.obj
 0001:00035bc0       ?ControlCallback@details@Concurrency@@YAKW4WMIDPREQUESTCODE@@PEAXPEAK1@Z 0000000180036bc0 f   libconcrt:Trace.obj
 0001:00035c88       ?GetEnableFlags@Etw@details@Concurrency@@QEAAK_K@Z 0000000180036c88 f   libconcrt:Trace.obj
 0001:00035cd8       ?GetEnableLevel@Etw@details@Concurrency@@QEAAE_K@Z 0000000180036cd8 f   libconcrt:Trace.obj
 0001:00035d28       ?GetLoggerHandle@Etw@details@Concurrency@@QEAA_KPEAX@Z 0000000180036d28 f   libconcrt:Trace.obj
 0001:00035d7c       ?RegisterGuids@Etw@details@Concurrency@@QEAAKP6AKW4WMIDPREQUESTCODE@@PEAXPEAK1@ZPEBU_GUID@@KPEAU_TRACE_GUID_REGISTRATION@@PEA_K@Z 0000000180036d7c f   libconcrt:Trace.obj
 0001:00035e08       ?Trace@Etw@details@Concurrency@@QEAAK_KPEAU_EVENT_TRACE_HEADER@@@Z 0000000180036e08 f   libconcrt:Trace.obj
 0001:00035e60       ?UnregisterGuids@Etw@details@Concurrency@@QEAAK_K@Z 0000000180036e60 f   libconcrt:Trace.obj
 0001:00035ea8       ?_RegisterConcRTEventTracing@details@Concurrency@@YAXXZ 0000000180036ea8 f   libconcrt:Trace.obj
 0001:00035f68       ?_UnregisterConcRTEventTracing@details@Concurrency@@YAXXZ 0000000180036f68 f   libconcrt:Trace.obj
 0001:00035fb4       ??0?$StructuredWorkStealingQueue@V_UnrealizedChore@details@Concurrency@@V_CriticalNonReentrantLock@23@@details@Concurrency@@QEAA@PEAV_CriticalNonReentrantLock@12@@Z 0000000180036fb4 f i libconcrt:WorkQueue.obj
 0001:00035fb4       ??0?$StructuredWorkStealingQueue@VInternalContextBase@details@Concurrency@@V_HyperNonReentrantLock@23@@details@Concurrency@@QEAA@PEAV_HyperNonReentrantLock@12@@Z 0000000180036fb4 f i libconcrt:VirtualProcessor.obj
 0001:00036030       ??0VirtualProcessor@details@Concurrency@@QEAA@XZ 0000000180037030 f   libconcrt:VirtualProcessor.obj
 0001:000360a4       ??1VirtualProcessor@details@Concurrency@@UEAA@XZ 00000001800370a4 f   libconcrt:VirtualProcessor.obj
 0001:00036100       ??_GVirtualProcessor@details@Concurrency@@UEAAPEAXI@Z 0000000180037100 f i libconcrt:VirtualProcessor.obj
 0001:00036100       ??_EVirtualProcessor@details@Concurrency@@UEAAPEAXI@Z 0000000180037100 f i libconcrt:VirtualProcessor.obj
 0001:00036134       ?Affinitize@VirtualProcessor@details@Concurrency@@MEAAXPEAVInternalContextBase@23@@Z 0000000180037134 f   libconcrt:VirtualProcessor.obj
 0001:000361a0       ?CheckAffinityNotification@VirtualProcessor@details@Concurrency@@QEAA_NXZ 00000001800371a0 f   libconcrt:VirtualProcessor.obj
 0001:000361f8       ?CheckForDeletion@?$ListArray@VVirtualProcessor@details@Concurrency@@@details@Concurrency@@AEAAXXZ 00000001800371f8 f i libconcrt:VirtualProcessor.obj
 0001:00036278       ?CheckForDeletionBridge@?$ListArray@VVirtualProcessor@details@Concurrency@@@details@Concurrency@@CAXPEAV123@@Z 0000000180037278 f i libconcrt:VirtualProcessor.obj
 0001:00036280       ?ClaimExclusiveOwnership@VirtualProcessor@details@Concurrency@@QEAA_NAEAVClaimTicket@123@K_N@Z 0000000180037280 f   libconcrt:VirtualProcessor.obj
 0001:00036318       ?Deactivate@VirtualProcessor@details@Concurrency@@QEAA_NPEAUIExecutionContext@3@@Z 0000000180037318 f   libconcrt:VirtualProcessor.obj
 0001:0003635c       ?EnsureAllTasksVisible@VirtualProcessor@details@Concurrency@@QEAAXPEAUIExecutionContext@3@@Z 000000018003735c f   libconcrt:VirtualProcessor.obj
 0001:000363a0       ?ExerciseClaim@VirtualProcessor@details@Concurrency@@AEAA_NW4AvailabilityType@123@PEAVScheduleGroupSegmentBase@23@PEAVInternalContextBase@23@@Z 00000001800373a0 f   libconcrt:VirtualProcessor.obj
 0001:0003647c       ?ExerciseWith@ClaimTicket@VirtualProcessor@details@Concurrency@@QEAA_NPEAVInternalContextBase@34@@Z 000000018003747c f   libconcrt:VirtualProcessor.obj
 0001:000364b0       ?GetCurrentSubAllocator@VirtualProcessor@details@Concurrency@@QEAAPEAVSubAllocator@23@XZ 00000001800374b0 f   libconcrt:VirtualProcessor.obj
 0001:000364e0       ?Initialize@VirtualProcessor@details@Concurrency@@MEAAXPEAVSchedulingNode@23@PEAUIVirtualProcessorRoot@3@@Z 00000001800374e0 f   libconcrt:VirtualProcessor.obj
 0001:00036748       ?InterlockedClear@ReferenceCountedQuickBitSet@details@Concurrency@@QEAAII@Z 0000000180037748 f i libconcrt:VirtualProcessor.obj
 0001:000367e4       ?InterlockedSet@ReferenceCountedQuickBitSet@details@Concurrency@@QEAAII@Z 00000001800377e4 f i libconcrt:VirtualProcessor.obj
 0001:00036880       ?MakeAvailable@VirtualProcessor@details@Concurrency@@IEAAXW4AvailabilityType@123@_N@Z 0000000180037880 f   libconcrt:VirtualProcessor.obj
 0001:00036900       ?MarkForRetirement@VirtualProcessor@details@Concurrency@@AEAAXXZ 0000000180037900 f   libconcrt:VirtualProcessor.obj
 0001:00036978       ?Oversubscribe@VirtualProcessor@details@Concurrency@@EEAAPEAV123@XZ 0000000180037978 f   libconcrt:VirtualProcessor.obj
 0001:000369d4       ?Pop@?$StructuredWorkStealingQueue@VInternalContextBase@details@Concurrency@@V_HyperNonReentrantLock@23@@details@Concurrency@@QEAAPEAVInternalContextBase@23@XZ 00000001800379d4 f i libconcrt:VirtualProcessor.obj
 0001:00036a80       ?Remove@?$ListArray@VVirtualProcessor@details@Concurrency@@@details@Concurrency@@QEAA_NPEAVVirtualProcessor@23@H_N@Z 0000000180037a80 f i libconcrt:VirtualProcessor.obj
 0001:00036bc4       ?Retire@VirtualProcessor@details@Concurrency@@MEAAXXZ 0000000180037bc4 f   libconcrt:VirtualProcessor.obj
 0001:00036df8       ?SafePoint@VirtualProcessor@details@Concurrency@@QEAA_NXZ 0000000180037df8 f   libconcrt:VirtualProcessor.obj
 0001:00036e0c       ?StartupWorkerContext@VirtualProcessor@details@Concurrency@@EEAA_NPEAVScheduleGroupSegmentBase@23@PEAVInternalContextBase@23@@Z 0000000180037e0c f   libconcrt:VirtualProcessor.obj
 0001:00036f04       ?StaticDelete@Segment@?$Mailbox@VInternalContextBase@details@Concurrency@@@details@Concurrency@@SAXPEAU1234@@Z 0000000180037f04 f i libconcrt:VirtualProcessor.obj
 0001:00036f04       ?StaticDelete@Segment@?$Mailbox@V_UnrealizedChore@details@Concurrency@@@details@Concurrency@@SAXPEAU1234@@Z 0000000180037f04 f i libconcrt:ContextBase.obj
 0001:00036f38       ?ThrowVirtualProcessorEvent@VirtualProcessor@details@Concurrency@@CAXW4ConcRT_EventType@3@EKK@Z 0000000180037f38 f   libconcrt:VirtualProcessor.obj
 0001:00036fd4       ?ToInternalContext@VirtualProcessor@details@Concurrency@@MEAAPEAVInternalContextBase@23@PEAUIExecutionContext@3@@Z 0000000180037fd4 f   libconcrt:VirtualProcessor.obj
 0001:00036fd8       ?UpdateWorkState@VirtualProcessor@details@Concurrency@@QEAAX_N0@Z 0000000180037fd8 f   libconcrt:VirtualProcessor.obj
 0001:0003708c       ?Wipe@QuickBitSet@details@Concurrency@@QEAAXXZ 000000018003808c f i libconcrt:VirtualProcessor.obj
 0001:00037124       ??0SchedulingNode@details@Concurrency@@QEAA@AEBVQuickBitSet@12@KPEAVSchedulingRing@12@@Z 0000000180038124 f   libconcrt:SchedulingNode.obj
 0001:000371fc       ??1?$ListArray@VVirtualProcessor@details@Concurrency@@@details@Concurrency@@QEAA@XZ 00000001800381fc f i libconcrt:SchedulingNode.obj
 0001:00037348       ??1SchedulingNode@details@Concurrency@@QEAA@XZ 0000000180038348 f   libconcrt:SchedulingNode.obj
 0001:00037384       ?Add@?$ListArray@VVirtualProcessor@details@Concurrency@@@details@Concurrency@@QEAAHPEAVVirtualProcessor@23@@Z 0000000180038384 f i libconcrt:SchedulingNode.obj
 0001:000374fc       ?AddVirtualProcessor@SchedulingNode@details@Concurrency@@QEAAPEAVVirtualProcessor@23@PEAUIVirtualProcessorRoot@3@_N@Z 00000001800384fc f   libconcrt:SchedulingNode.obj
 0001:0003766c       ?DeferToAffineSearchers@Slot@?$Mailbox@V_UnrealizedChore@details@Concurrency@@@details@Concurrency@@QEBA_NXZ 000000018003866c f i libconcrt:WorkQueue.obj
 0001:0003766c       ?DeferToAffineSearchers@Slot@?$Mailbox@VInternalContextBase@details@Concurrency@@@details@Concurrency@@QEBA_NXZ 000000018003866c f i libconcrt:SchedulingNode.obj
 0001:0003770c       ?FindMatchingVirtualProcessor@SchedulingNode@details@Concurrency@@QEAAPEAVVirtualProcessor@23@PEAUIVirtualProcessorRoot@3@@Z 000000018003870c f   libconcrt:SchedulingNode.obj
 0001:000377c4       ?FindVirtualProcessorByLocation@SchedulingNode@details@Concurrency@@QEAAPEAVVirtualProcessor@23@PEBVlocation@3@@Z 00000001800387c4 f   libconcrt:SchedulingNode.obj
 0001:000378a4       ?FoundAvailableVirtualProcessor@SchedulingNode@details@Concurrency@@AEAA_NAEAVClaimTicket@VirtualProcessor@23@Vlocation@3@K@Z 00000001800388a4 f   libconcrt:SchedulingNode.obj
 0001:000379b4       ?GetLocation@SchedulingNode@details@Concurrency@@QEAA?AVlocation@3@XZ 00000001800389b4 f   libconcrt:SchedulingNode.obj
 0001:00037a18       ?UnlockedSteal@?$StructuredWorkStealingQueue@VInternalContextBase@details@Concurrency@@V_HyperNonReentrantLock@23@@details@Concurrency@@QEAAPEAVInternalContextBase@23@_N@Z 0000000180038a18 f i libconcrt:SchedulingNode.obj
 0001:00037b24       ??0AllocatorBucket@details@Concurrency@@QEAA@XZ 0000000180038b24 f   libconcrt:SubAllocator.obj
 0001:00037b44       ??1AllocatorBucket@details@Concurrency@@QEAA@XZ 0000000180038b44 f   libconcrt:SubAllocator.obj
 0001:00037b80       ?Alloc@AllocatorBucket@details@Concurrency@@QEAAPEATAllocationEntry@23@XZ 0000000180038b80 f   libconcrt:SubAllocator.obj
 0001:00037ba8       ?Alloc@SubAllocator@details@Concurrency@@QEAAPEAX_K@Z 0000000180038ba8 f   libconcrt:SubAllocator.obj
 0001:00037c28       ?Free@AllocatorBucket@details@Concurrency@@QEAA_NPEATAllocationEntry@23@@Z 0000000180038c28 f   libconcrt:SubAllocator.obj
 0001:00037c58       ?Free@SubAllocator@details@Concurrency@@QEAAXPEAX@Z 0000000180038c58 f   libconcrt:SubAllocator.obj
 0001:00037ca4       ?GetBucketIndex@SubAllocator@details@Concurrency@@SAH_K@Z 0000000180038ca4 f   libconcrt:SubAllocator.obj
 0001:00037cfc       ?StaticAlloc@SubAllocator@details@Concurrency@@SAPEAX_K@Z 0000000180038cfc f   libconcrt:SubAllocator.obj
 0001:00037d4c       ??0InternalContextBase@details@Concurrency@@QEAA@PEAVSchedulerBase@12@@Z 0000000180038d4c f   libconcrt:InternalContextBase.obj
 0001:00037ddc       ??0context_self_unblock@Concurrency@@QEAA@AEBV01@@Z 0000000180038ddc f i libconcrt:InternalContextBase.obj
 0001:00037e1c       ??0context_unblock_unbalanced@Concurrency@@QEAA@AEBV01@@Z 0000000180038e1c f i libconcrt:InternalContextBase.obj
 0001:00037e5c       ??0invalid_oversubscribe_operation@Concurrency@@QEAA@AEBV01@@Z 0000000180038e5c f i libconcrt:InternalContextBase.obj
 0001:00037e9c       ??0nested_scheduler_missing_detach@Concurrency@@QEAA@AEBV01@@Z 0000000180038e9c f i libconcrt:InternalContextBase.obj
 0001:00037edc       ??1InternalContextBase@details@Concurrency@@UEAA@XZ 0000000180038edc f   libconcrt:InternalContextBase.obj
 0001:00037f18       ??1ScopedCriticalRegion@ContextBase@details@Concurrency@@QEAA@XZ 0000000180038f18 f i libconcrt:InternalContextBase.obj
 0001:00037f34       ??_EInternalContextBase@details@Concurrency@@WBA@EAAPEAXI@Z 0000000180038f34 f i libconcrt:InternalContextBase.obj
 0001:00037f40       ??_EInternalContextBase@details@Concurrency@@UEAAPEAXI@Z 0000000180038f40 f i libconcrt:InternalContextBase.obj
 0001:00037f40       ??_GInternalContextBase@details@Concurrency@@UEAAPEAXI@Z 0000000180038f40 f i libconcrt:InternalContextBase.obj
 0001:00037f74       ?AddToRunnables@InternalContextBase@details@Concurrency@@MEAAXVlocation@3@@Z 0000000180038f74 f   libconcrt:InternalContextBase.obj
 0001:0003821c       ?Alloc@InternalContextBase@details@Concurrency@@UEAAPEAX_K@Z 000000018003921c f   libconcrt:InternalContextBase.obj
 0001:0003828c       ?Block@InternalContextBase@details@Concurrency@@UEAAXXZ 000000018003928c f   libconcrt:InternalContextBase.obj
 0001:00038464       ?Cancel@InternalContextBase@details@Concurrency@@MEAAXXZ 0000000180039464 f   libconcrt:InternalContextBase.obj
 0001:000384f8       ?Cleanup@InternalContextBase@details@Concurrency@@IEAAXXZ 00000001800394f8 f   libconcrt:InternalContextBase.obj
 0001:0003851c       ?CleanupDispatchedContextOnCancel@InternalContextBase@details@Concurrency@@IEAAXXZ 000000018003951c f   libconcrt:InternalContextBase.obj
 0001:00038544       ?Dispatch@InternalContextBase@details@Concurrency@@UEAAXPEAUDispatchState@3@@Z 0000000180039544 f   libconcrt:InternalContextBase.obj
 0001:00038714       ?ExecuteChoreInline@InternalContextBase@details@Concurrency@@IEAAXPEAVWorkItem@23@@Z 0000000180039714 f   libconcrt:InternalContextBase.obj
 0001:0003876c       ?ExecutedAssociatedChore@InternalContextBase@details@Concurrency@@IEAA_NXZ 000000018003976c f   libconcrt:InternalContextBase.obj
 0001:0003880c       ?FindWorkForBlockingOrNesting@InternalContextBase@details@Concurrency@@AEAAPEAV123@AEA_N0@Z 000000018003980c f   libconcrt:InternalContextBase.obj
 0001:000389b0       ?Free@InternalContextBase@details@Concurrency@@UEAAXPEAX@Z 00000001800399b0 f   libconcrt:InternalContextBase.obj
 0001:000389f0       ?GetAndResetOversubscribedVProc@InternalContextBase@details@Concurrency@@QEAAPEAVVirtualProcessor@23@PEAV423@@Z 00000001800399f0 f   libconcrt:InternalContextBase.obj
 0001:00038a18       ?GetId@InternalContextBase@details@Concurrency@@WBA@EBAIXZ 0000000180039a18 f i libconcrt:InternalContextBase.obj
 0001:00038a24       ?GetProxy@InternalContextBase@details@Concurrency@@UEAAPEAUIThreadProxy@3@XZ 0000000180039a24 f   libconcrt:InternalContextBase.obj
 0001:00038a2c       ?GetScheduler@InternalContextBase@details@Concurrency@@UEAAPEAUIScheduler@3@XZ 0000000180039a2c f   libconcrt:InternalContextBase.obj
 0001:00038a5c       ?GetVirtualProcessorId@InternalContextBase@details@Concurrency@@UEBAIXZ 0000000180039a5c f   libconcrt:InternalContextBase.obj
 0001:00038aa4       ?GrowAndPush@?$StructuredWorkStealingQueue@VInternalContextBase@details@Concurrency@@V_HyperNonReentrantLock@23@@details@Concurrency@@AEAAXPEAVInternalContextBase@23@VSlot@?$Mailbox@VInternalContextBase@details@Concurrency@@@23@@Z 0000000180039aa4 f i libconcrt:InternalContextBase.obj
 0001:00038c64       ?IsSynchronouslyBlocked@InternalContextBase@details@Concurrency@@UEBA_NXZ 0000000180039c64 f i libconcrt:InternalContextBase.obj
 0001:00038c70       ?IsVirtualProcessorRetired@InternalContextBase@details@Concurrency@@IEAA_NXZ 0000000180039c70 f   libconcrt:InternalContextBase.obj
 0001:00038ce0       ?LeaveScheduler@InternalContextBase@details@Concurrency@@AEAAXXZ 0000000180039ce0 f   libconcrt:InternalContextBase.obj
 0001:00038e24       ?Oversubscribe@InternalContextBase@details@Concurrency@@UEAAX_N@Z 0000000180039e24 f   libconcrt:InternalContextBase.obj
 0001:00038ed8       ?PrepareForUse@InternalContextBase@details@Concurrency@@QEAAXPEAVScheduleGroupSegmentBase@23@PEAU_Chore@23@_N@Z 0000000180039ed8 f   libconcrt:InternalContextBase.obj
 0001:00038f28       ?PrepareToRun@InternalContextBase@details@Concurrency@@MEAAXPEAVVirtualProcessor@23@@Z 0000000180039f28 f i libconcrt:InternalContextBase.obj
 0001:00038f38       ?ReclaimVirtualProcessor@InternalContextBase@details@Concurrency@@IEAAXXZ 0000000180039f38 f   libconcrt:InternalContextBase.obj
 0001:00038fac       ?RejoinScheduler@InternalContextBase@details@Concurrency@@AEAAXXZ 0000000180039fac f   libconcrt:InternalContextBase.obj
 0001:00038fe4       ?RemoveFromUse@InternalContextBase@details@Concurrency@@QEAAXXZ 0000000180039fe4 f   libconcrt:InternalContextBase.obj
 0001:00039018       ?SetProxy@InternalContextBase@details@Concurrency@@UEAAXPEAUIThreadProxy@3@@Z 000000018003a018 f   libconcrt:InternalContextBase.obj
 0001:00039050       ?SpinUntilBlocked@InternalContextBase@details@Concurrency@@IEAAXXZ 000000018003a050 f   libconcrt:InternalContextBase.obj
 0001:00039088       ?SpinYield@InternalContextBase@details@Concurrency@@UEAAXXZ 000000018003a088 f   libconcrt:InternalContextBase.obj
 0001:000391ac       ?SwapScheduleGroupSegment@InternalContextBase@details@Concurrency@@QEAAXPEAVScheduleGroupSegmentBase@23@_N@Z 000000018003a1ac f   libconcrt:InternalContextBase.obj
 0001:0003926c       ?SwitchOut@InternalContextBase@details@Concurrency@@IEAA_NW4ReasonForSwitch@123@@Z 000000018003a26c f   libconcrt:InternalContextBase.obj
 0001:000393fc       ?SwitchTo@InternalContextBase@details@Concurrency@@IEAAXPEAV123@W4ReasonForSwitch@123@@Z 000000018003a3fc f   libconcrt:InternalContextBase.obj
 0001:000395e4       ?Unblock@InternalContextBase@details@Concurrency@@UEAAXXZ 000000018003a5e4 f   libconcrt:InternalContextBase.obj
 0001:00039730       ?WaitForWork@InternalContextBase@details@Concurrency@@IEAAXXZ 000000018003a730 f   libconcrt:InternalContextBase.obj
 0001:00039890       ?WorkWasFound@InternalContextBase@details@Concurrency@@IEAA_NPEAVWorkItem@23@@Z 000000018003a890 f   libconcrt:InternalContextBase.obj
 0001:0003993c       ?Yield@InternalContextBase@details@Concurrency@@UEAAXXZ 000000018003a93c f   libconcrt:InternalContextBase.obj
 0001:00039b58       ??0SchedulingRing@details@Concurrency@@QEAA@PEAVSchedulerBase@12@H@Z 000000018003ab58 f   libconcrt:SchedulingRing.obj
 0001:00039c18       ??1?$ListArray@VScheduleGroupSegmentBase@details@Concurrency@@@details@Concurrency@@QEAA@XZ 000000018003ac18 f i libconcrt:SchedulingRing.obj
 0001:00039d64       ??1SchedulingRing@details@Concurrency@@QEAA@XZ 000000018003ad64 f   libconcrt:SchedulingRing.obj
 0001:00039d8c       ?Activate@SchedulingRing@details@Concurrency@@QEAAXXZ 000000018003ad8c f   libconcrt:SchedulingRing.obj
 0001:00039d98       ?CheckForDeletion@?$ListArray@VScheduleGroupSegmentBase@details@Concurrency@@@details@Concurrency@@AEAAXXZ 000000018003ad98 f i libconcrt:SchedulingRing.obj
 0001:00039e18       ?CheckForDeletionBridge@?$ListArray@VScheduleGroupSegmentBase@details@Concurrency@@@details@Concurrency@@CAXPEAV123@@Z 000000018003ae18 f i libconcrt:SchedulingRing.obj
 0001:00039e20       ?Remove@?$ListArray@VScheduleGroupSegmentBase@details@Concurrency@@@details@Concurrency@@QEAA_NPEAVScheduleGroupSegmentBase@23@H_N@Z 000000018003ae20 f i libconcrt:SchedulingRing.obj
 0001:00039f64       ?RemoveScheduleGroupSegment@SchedulingRing@details@Concurrency@@AEAAXPEAVScheduleGroupSegmentBase@23@@Z 000000018003af64 f   libconcrt:SchedulingRing.obj
 0001:00039f8c       ??0?$Mailbox@V_UnrealizedChore@details@Concurrency@@@details@Concurrency@@QEAA@PEAVSchedulerBase@12@AEBVQuickBitSet@12@_NI@Z 000000018003af8c f i libconcrt:ScheduleGroupBase.obj
 0001:0003a050       ??0ScheduleGroupBase@details@Concurrency@@QEAA@PEAVSchedulerBase@12@PEAVlocation@2@@Z 000000018003b050 f   libconcrt:ScheduleGroupBase.obj
 0001:0003a0e4       ??0ScheduleGroupSegmentBase@details@Concurrency@@IEAA@PEAVScheduleGroupBase@12@PEAVSchedulingRing@12@PEAVlocation@2@@Z 000000018003b0e4 f   libconcrt:ScheduleGroupBase.obj
 0001:0003a1f0       ??0Segment@?$Mailbox@V_UnrealizedChore@details@Concurrency@@@details@Concurrency@@QEAA@PEAVSchedulerBase@23@AEBVQuickBitSet@23@II@Z 000000018003b1f0 f i libconcrt:ScheduleGroupBase.obj
 0001:0003a278       ??1?$ListArray@U?$ListArrayInlineLink@VWorkQueue@details@Concurrency@@@details@Concurrency@@@details@Concurrency@@QEAA@XZ 000000018003b278 f i libconcrt:ScheduleGroupBase.obj
 0001:0003a36c       ??1?$ListArray@VWorkQueue@details@Concurrency@@@details@Concurrency@@QEAA@XZ 000000018003b36c f i libconcrt:ScheduleGroupBase.obj
 0001:0003a528       ??1?$Mailbox@V_UnrealizedChore@details@Concurrency@@@details@Concurrency@@QEAA@XZ 000000018003b528 f i libconcrt:ScheduleGroupBase.obj
 0001:0003a59c       ??1ScheduleGroupSegmentBase@details@Concurrency@@UEAA@XZ 000000018003b59c f   libconcrt:ScheduleGroupBase.obj
 0001:0003a620       ??_GScheduleGroupSegmentBase@details@Concurrency@@UEAAPEAXI@Z 000000018003b620 f i libconcrt:ScheduleGroupBase.obj
 0001:0003a620       ??_EScheduleGroupSegmentBase@details@Concurrency@@UEAAPEAXI@Z 000000018003b620 f i libconcrt:ScheduleGroupBase.obj
 0001:0003a654       ?Add@?$ListArray@U?$ListArrayInlineLink@VWorkQueue@details@Concurrency@@@details@Concurrency@@@details@Concurrency@@QEAAHPEAU?$ListArrayInlineLink@VWorkQueue@details@Concurrency@@@23@@Z 000000018003b654 f i libconcrt:ScheduleGroupBase.obj
 0001:0003a7c8       ?Add@?$ListArray@VExternalStatistics@details@Concurrency@@@details@Concurrency@@QEAAHPEAVExternalStatistics@23@@Z 000000018003b7c8 f i libconcrt:ScheduleGroupBase.obj
 0001:0003a93c       ?Add@?$ListArray@VScheduleGroupSegmentBase@details@Concurrency@@@details@Concurrency@@QEAAHPEAVScheduleGroupSegmentBase@23@@Z 000000018003b93c f i libconcrt:ScheduleGroupBase.obj
 0001:0003aab4       ?AddRunnableContext@ScheduleGroupSegmentBase@details@Concurrency@@IEAAXPEAVInternalContextBase@23@Vlocation@3@@Z 000000018003bab4 f   libconcrt:ScheduleGroupBase.obj
 0001:0003ac48       ?CheckForDeletionBridge@?$ListArray@U?$ListArrayInlineLink@VWorkQueue@details@Concurrency@@@details@Concurrency@@@details@Concurrency@@CAXPEAV123@@Z 000000018003bc48 f i libconcrt:ScheduleGroupBase.obj
 0001:0003ac9c       ?CreateSegment@ScheduleGroupBase@details@Concurrency@@IEAAPEAVScheduleGroupSegmentBase@23@PEAVlocation@3@PEAVSchedulingRing@23@@Z 000000018003bc9c f   libconcrt:ScheduleGroupBase.obj
 0001:0003ad84       ?DemandInitialize@?$Mailbox@V_UnrealizedChore@details@Concurrency@@@details@Concurrency@@AEAAXXZ 000000018003bd84 f i libconcrt:ScheduleGroupBase.obj
 0001:0003ae14       ?Dequeue@?$Mailbox@V_UnrealizedChore@details@Concurrency@@@details@Concurrency@@QEAA_NPEAPEAV_UnrealizedChore@23@@Z 000000018003be14 f i libconcrt:ScheduleGroupBase.obj
 0001:0003af0c       ?DetachActiveWorkQueue@ScheduleGroupSegmentBase@details@Concurrency@@IEAAXPEAVWorkQueue@23@@Z 000000018003bf0c f   libconcrt:ScheduleGroupBase.obj
 0001:0003af9c       ?FindSegment@ScheduleGroupBase@details@Concurrency@@MEAAPEAVScheduleGroupSegmentBase@23@PEAVlocation@3@PEAVSchedulingRing@23@@Z 000000018003bf9c f   libconcrt:ScheduleGroupBase.obj
 0001:0003b014       ?GetDetachedWorkQueue@ScheduleGroupSegmentBase@details@Concurrency@@IEAAPEAVWorkQueue@23@XZ 000000018003c014 f   libconcrt:ScheduleGroupBase.obj
 0001:0003b128       ?GetInternalContext@ScheduleGroupSegmentBase@details@Concurrency@@IEAAPEAVInternalContextBase@23@PEAU_Chore@23@_N@Z 000000018003c128 f   libconcrt:ScheduleGroupBase.obj
 0001:0003b188       ?GetRealizedChore@ScheduleGroupSegmentBase@details@Concurrency@@IEAAPEAVRealizedChore@23@XZ 000000018003c188 f   libconcrt:ScheduleGroupBase.obj
 0001:0003b1f4       ?HasRealizedChores@ScheduleGroupSegmentBase@details@Concurrency@@IEBA_NXZ 000000018003c1f4 f   libconcrt:ScheduleGroupBase.obj
 0001:0003b200       ?HasUnrealizedChores@ScheduleGroupSegmentBase@details@Concurrency@@IEAA_NXZ 000000018003c200 f   libconcrt:ScheduleGroupBase.obj
 0001:0003b214       ?Initialize@ScheduleGroupBase@details@Concurrency@@QEAAXPEAVlocation@3@@Z 000000018003c214 f   libconcrt:ScheduleGroupBase.obj
 0001:0003b250       ?Initialize@ScheduleGroupSegmentBase@details@Concurrency@@IEAAXPEAVScheduleGroupBase@23@PEAVSchedulingRing@23@PEAVlocation@3@@Z 000000018003c250 f   libconcrt:ScheduleGroupBase.obj
 0001:0003b370       ?LocateMailboxSegment@?$Mailbox@V_UnrealizedChore@details@Concurrency@@@details@Concurrency@@AEAAPEAUSegment@123@I_N@Z 000000018003c370 f i libconcrt:ScheduleGroupBase.obj
 0001:0003b428       ?LocateSegment@ScheduleGroupBase@details@Concurrency@@UEAAPEAVScheduleGroupSegmentBase@23@PEAVlocation@3@_N@Z 000000018003c428 f   libconcrt:ScheduleGroupBase.obj
 0001:0003b5ac       ?LocateUnrealizedChores@ScheduleGroupSegmentBase@details@Concurrency@@IEAAPEAVWorkQueue@23@XZ 000000018003c5ac f   libconcrt:ScheduleGroupBase.obj
 0001:0003b6ac       ?RedetachQueue@ScheduleGroupSegmentBase@details@Concurrency@@QEAAXPEAVWorkQueue@23@@Z 000000018003c6ac f   libconcrt:ScheduleGroupBase.obj
 0001:0003b6bc       ?ReleaseInternalContext@ScheduleGroupSegmentBase@details@Concurrency@@IEAAXPEAVInternalContextBase@23@@Z 000000018003c6bc f   libconcrt:ScheduleGroupBase.obj
 0001:0003b6f4       ?Remove@?$ListArray@U?$ListArrayInlineLink@VWorkQueue@details@Concurrency@@@details@Concurrency@@@details@Concurrency@@QEAA_NPEAU?$ListArrayInlineLink@VWorkQueue@details@Concurrency@@@23@H_N@Z 000000018003c6f4 f i libconcrt:ScheduleGroupBase.obj
 0001:0003b838       ?Remove@ScheduleGroupSegmentBase@details@Concurrency@@IEAAXXZ 000000018003c838 f   libconcrt:ScheduleGroupBase.obj
 0001:0003b86c       ?RemoveSegments@ScheduleGroupBase@details@Concurrency@@MEAAXXZ 000000018003c86c f   libconcrt:ScheduleGroupBase.obj
 0001:0003b8c8       ?RetireDetachedQueue@ScheduleGroupSegmentBase@details@Concurrency@@QEAAXPEAVWorkQueue@23@@Z 000000018003c8c8 f   libconcrt:ScheduleGroupBase.obj
 0001:0003b930       ?SafelyDeleteDetachedWorkQueue@ScheduleGroupSegmentBase@details@Concurrency@@IEAA_NPEAVWorkQueue@23@@Z 000000018003c930 f   libconcrt:ScheduleGroupBase.obj
 0001:0003b990       ?ScheduleTask@ScheduleGroupBase@details@Concurrency@@QEAAXP6AXPEAX@Z0AEAVlocation@3@@Z 000000018003c990 f   libconcrt:ScheduleGroupBase.obj
 0001:0003b9f8       ?ScheduleTask@ScheduleGroupBase@details@Concurrency@@UEAAXP6AXPEAX@Z0@Z 000000018003c9f8 f   libconcrt:ScheduleGroupBase.obj
 0001:0003ba60       ?ScheduleTask@ScheduleGroupSegmentBase@details@Concurrency@@QEAAXP6AXPEAX@Z0@Z 000000018003ca60 f   libconcrt:ScheduleGroupBase.obj
 0001:0003bc20       ?StealUnrealizedChore@ScheduleGroupSegmentBase@details@Concurrency@@IEAAPEAV_UnrealizedChore@23@_N@Z 000000018003cc20 f   libconcrt:ScheduleGroupBase.obj
 0001:0003bfb8       ??IQuickBitSet@details@Concurrency@@QEBA?AV012@AEBV012@@Z 000000018003cfb8 f i libconcrt:CacheLocalScheduleGroup.obj
 0001:0003c060       ?AddToRunnablesCollection@CacheLocalScheduleGroupSegment@details@Concurrency@@EEAAXPEAVInternalContextBase@23@@Z 000000018003d060 f   libconcrt:CacheLocalScheduleGroup.obj
 0001:0003c0c4       ?Enqueue@?$Mailbox@V_UnrealizedChore@details@Concurrency@@@details@Concurrency@@QEAA?AVSlot@123@PEAV_UnrealizedChore@23@@Z 000000018003d0c4 f i libconcrt:CacheLocalScheduleGroup.obj
 0001:0003c154       ?MailChore@CacheLocalScheduleGroup@details@Concurrency@@UEAA?AVSlot@?$Mailbox@V_UnrealizedChore@details@Concurrency@@@23@PEAV_UnrealizedChore@23@PEAVlocation@3@PEAPEAVScheduleGroupSegmentBase@23@@Z 000000018003d154 f   libconcrt:CacheLocalScheduleGroup.obj
 0001:0003c1c8       ?NotifyAffinitizedWork@CacheLocalScheduleGroupSegment@details@Concurrency@@UEAAXXZ 000000018003d1c8 f   libconcrt:CacheLocalScheduleGroup.obj
 0001:0003c22c       ?PostAffinityMessage@SchedulerBase@details@Concurrency@@QEAAXAEBVQuickBitSet@23@@Z 000000018003d22c f i libconcrt:CacheLocalScheduleGroup.obj
 0001:0003c2d4       ?AddToRunnablesCollection@FairScheduleGroupSegment@details@Concurrency@@EEAAXPEAVInternalContextBase@23@@Z 000000018003d2d4 f   libconcrt:FairScheduleGroup.obj
 0001:0003c338       ?FindSegment@FairScheduleGroup@details@Concurrency@@MEAAPEAVScheduleGroupSegmentBase@23@PEAVlocation@3@PEAVSchedulingRing@23@@Z 000000018003d338 f   libconcrt:FairScheduleGroup.obj
 0001:0003c36c       ?LocateSegment@FairScheduleGroup@details@Concurrency@@UEAAPEAVScheduleGroupSegmentBase@23@PEAVlocation@3@_N@Z 000000018003d36c f   libconcrt:FairScheduleGroup.obj
 0001:0003c40c       ??0ExternalContextBase@details@Concurrency@@QEAA@PEAVSchedulerBase@12@_N@Z 000000018003d40c f   libconcrt:ExternalContextBase.obj
 0001:0003c4c8       ??1ExternalContextBase@details@Concurrency@@UEAA@XZ 000000018003d4c8 f   libconcrt:ExternalContextBase.obj
 0001:0003c4f8       ??_GExternalContextBase@details@Concurrency@@UEAAPEAXI@Z 000000018003d4f8 f i libconcrt:ExternalContextBase.obj
 0001:0003c4f8       ??_EExternalContextBase@details@Concurrency@@UEAAPEAXI@Z 000000018003d4f8 f i libconcrt:ExternalContextBase.obj
 0001:0003c52c       ?Alloc@ExternalContextBase@details@Concurrency@@UEAAPEAX_K@Z 000000018003d52c f   libconcrt:ExternalContextBase.obj
 0001:0003c580       ?Block@ExternalContextBase@details@Concurrency@@UEAAXXZ 000000018003d580 f   libconcrt:ExternalContextBase.obj
 0001:0003c614       ?Cleanup@ExternalContextBase@details@Concurrency@@AEAAXXZ 000000018003d614 f   libconcrt:ExternalContextBase.obj
 0001:0003c67c       ?Free@ExternalContextBase@details@Concurrency@@UEAAXPEAX@Z 000000018003d67c f   libconcrt:ExternalContextBase.obj
 0001:0003c6d0       ?pbackfail@?$basic_streambuf@DU?$char_traits@D@std@@@std@@MEAAHH@Z 000000018003d6d0 f i libcpmt:cout.obj
 0001:0003c6d0       ?GetVirtualProcessorId@ExternalContextBase@details@Concurrency@@UEBAIXZ 000000018003d6d0 f i libconcrt:ExternalContextBase.obj
 0001:0003c6d0       ?underflow@?$basic_streambuf@DU?$char_traits@D@std@@@std@@MEAAHXZ 000000018003d6d0 f i libcpmt:cout.obj
 0001:0003c6d0       ?overflow@?$basic_streambuf@DU?$char_traits@D@std@@@std@@MEAAHH@Z 000000018003d6d0 f i libcpmt:cout.obj
 0001:0003c6d4       ?ImplicitDetachHandler@ExternalContextBase@details@Concurrency@@CAXPEAU_TP_CALLBACK_INSTANCE@@PEAXPEAU_TP_WAIT@@K@Z 000000018003d6d4 f   libconcrt:ExternalContextBase.obj
 0001:0003c708       ?ImplicitDetachHandlerXP@ExternalContextBase@details@Concurrency@@CAXPEAXE@Z 000000018003d708 f   libconcrt:ExternalContextBase.obj
 0001:0003c734       ?IsSynchronouslyBlocked@ExternalContextBase@details@Concurrency@@UEBA_NXZ 000000018003d734 f i libconcrt:ExternalContextBase.obj
 0001:0003c740       ?Oversubscribe@ExternalContextBase@details@Concurrency@@UEAAX_N@Z 000000018003d740 f   libconcrt:ExternalContextBase.obj
 0001:0003c77c       ?PrepareForUse@ExternalContextBase@details@Concurrency@@QEAAX_N@Z 000000018003d77c f   libconcrt:ExternalContextBase.obj
 0001:0003c8ac       ?RemoveFromUse@ExternalContextBase@details@Concurrency@@QEAAXXZ 000000018003d8ac f   libconcrt:ExternalContextBase.obj
 0001:0003c8dc       ?SpinYield@ExternalContextBase@details@Concurrency@@UEAAXXZ 000000018003d8dc f i libconcrt:ExternalContextBase.obj
 0001:0003c90c       ?Unblock@ExternalContextBase@details@Concurrency@@UEAAXXZ 000000018003d90c f   libconcrt:ExternalContextBase.obj
 0001:0003c9e4       ?Yield@ExternalContextBase@details@Concurrency@@UEAAXXZ 000000018003d9e4 f   libconcrt:ExternalContextBase.obj
 0001:0003ca4c       ??0ThreadScheduler@details@Concurrency@@QEAA@AEBVSchedulerPolicy@2@@Z 000000018003da4c f   libconcrt:ThreadScheduler.obj
 0001:0003ca90       ??_EThreadInternalContext@details@Concurrency@@WBA@EAAPEAXI@Z 000000018003da90 f i libconcrt:ThreadScheduler.obj
 0001:0003ca9c       ??_EThreadScheduler@details@Concurrency@@WBA@EAAPEAXI@Z 000000018003da9c f i libconcrt:ThreadScheduler.obj
 0001:0003caa8       ??_EThreadInternalContext@details@Concurrency@@UEAAPEAXI@Z 000000018003daa8 f i libconcrt:ThreadScheduler.obj
 0001:0003caa8       ??_GThreadInternalContext@details@Concurrency@@UEAAPEAXI@Z 000000018003daa8 f i libconcrt:ThreadScheduler.obj
 0001:0003caf4       ??_EThreadScheduler@details@Concurrency@@UEAAPEAXI@Z 000000018003daf4 f i libconcrt:ThreadScheduler.obj
 0001:0003caf4       ??_GThreadScheduler@details@Concurrency@@UEAAPEAXI@Z 000000018003daf4 f i libconcrt:ThreadScheduler.obj
 0001:0003cb40       ?AddVirtualProcessors@ThreadScheduler@details@Concurrency@@UEAAXPEAPEAUIVirtualProcessorRoot@3@I@Z 000000018003db40 f i libconcrt:ThreadScheduler.obj
 0001:0003cb4c       ?Create@ThreadScheduler@details@Concurrency@@SAPEAV123@AEBVSchedulerPolicy@3@@Z 000000018003db4c f   libconcrt:ThreadScheduler.obj
 0001:0003cb88       ?CreateInternalContext@ThreadScheduler@details@Concurrency@@MEAAPEAVInternalContextBase@23@XZ 000000018003db88 f   libconcrt:ThreadScheduler.obj
 0001:0003cbf4       ?CreateVirtualProcessor@ThreadScheduler@details@Concurrency@@UEAAPEAVVirtualProcessor@23@PEAVSchedulingNode@23@PEAUIVirtualProcessorRoot@3@@Z 000000018003dbf4 f   libconcrt:ThreadScheduler.obj
 0001:0003cc40       ?GetIScheduler@ThreadScheduler@details@Concurrency@@UEAAPEAUIScheduler@3@XZ 000000018003dc40 f i libconcrt:ThreadScheduler.obj
 0001:0003cc48       ?GetId@ThreadScheduler@details@Concurrency@@UEBAIXZ 000000018003dc48 f i libconcrt:ThreadScheduler.obj
 0001:0003cc78       ?GetPolicy@ThreadScheduler@details@Concurrency@@UEBA?AVSchedulerPolicy@3@XZ 000000018003dc78 f i libconcrt:ThreadScheduler.obj
 0001:0003cc98       ?GetPolicy@ThreadScheduler@details@Concurrency@@WBA@EBA?AVSchedulerPolicy@3@XZ 000000018003dc98 f i libconcrt:ThreadScheduler.obj
 0001:0003cca4       ?RemoveVirtualProcessors@ThreadScheduler@details@Concurrency@@UEAAXPEAPEAUIVirtualProcessorRoot@3@I@Z 000000018003dca4 f i libconcrt:ThreadScheduler.obj
 0001:0003ccb0       ?Statistics@ThreadScheduler@details@Concurrency@@UEAAXPEAI00@Z 000000018003dcb0 f i libconcrt:ThreadScheduler.obj
 0001:0003ccbc       ?OneShotStaticConstruction@UMSThreadScheduler@details@Concurrency@@SAXXZ 000000018003dcbc f   libconcrt:UMSThreadScheduler.obj
 0001:0003cd08       ?OneShotStaticDestruction@UMSThreadScheduler@details@Concurrency@@SAXXZ 000000018003dd08 f   libconcrt:UMSThreadScheduler.obj
 0001:0003cd24       ??0exception_ptr@std@@QEAA@AEBV01@@Z 000000018003dd24 f i libconcrt:TaskCollectionBase.obj
 0001:0003cd3c       ?_Current_exception@exception_ptr@std@@SA?AV12@XZ 000000018003dd3c f i libconcrt:TaskCollectionBase.obj
 0001:0003cd5c       ?_FinishCancelState@_TaskCollectionBase@details@Concurrency@@IEAAX_K@Z 000000018003dd5c f   libconcrt:TaskCollectionBase.obj
 0001:0003cd94       ?_GetTokenState@_TaskCollectionBase@details@Concurrency@@QEAAPEAV_CancellationTokenState@23@PEAPEAV_CancellationTokenRegistration@23@@Z 000000018003dd94 f   libconcrt:TaskCollectionBase.obj
 0001:0003cdc0       ?_MarkCancellation@_TaskCollectionBase@details@Concurrency@@IEAA_NXZ 000000018003ddc0 f   libconcrt:TaskCollectionBase.obj
 0001:0003cde0       ?_RaisedException@_TaskCollectionBase@details@Concurrency@@IEAAXXZ 000000018003dde0 f   libconcrt:TaskCollectionBase.obj
 0001:0003ce60       ?_RethrowException@_TaskCollectionBase@details@Concurrency@@IEAAXXZ 000000018003de60 f   libconcrt:TaskCollectionBase.obj
 0001:0003cee8       ?_RethrowException@exception_ptr@std@@QEBAXXZ 000000018003dee8 f i libconcrt:TaskCollectionBase.obj
 0001:0003cef4       ?current_exception@std@@YA?AVexception_ptr@1@XZ 000000018003def4 f i libconcrt:TaskCollectionBase.obj
 0001:0003cf0c       ?rethrow_exception@std@@YAXVexception_ptr@1@@Z 000000018003df0c f i libconcrt:TaskCollectionBase.obj
 0001:0003cf24       ??0?$WorkStealingQueue@V_UnrealizedChore@details@Concurrency@@V_CriticalNonReentrantLock@23@@details@Concurrency@@QEAA@PEAV_CriticalNonReentrantLock@12@@Z 000000018003df24 f i libconcrt:WorkQueue.obj
 0001:0003cf9c       ??0WorkQueue@details@Concurrency@@QEAA@XZ 000000018003df9c f   libconcrt:WorkQueue.obj
 0001:0003d014       ?RedetachFromScheduleGroupAtSafePoint@WorkQueue@details@Concurrency@@QEAAXPEAVScheduleGroupSegmentBase@23@@Z 000000018003e014 f   libconcrt:WorkQueue.obj
 0001:0003d03c       ?Reinitialize@WorkQueue@details@Concurrency@@AEAAXXZ 000000018003e03c f   libconcrt:WorkQueue.obj
 0001:0003d0a8       ?RetireAtSafePoint@WorkQueue@details@Concurrency@@QEAAXPEAVScheduleGroupSegmentBase@23@@Z 000000018003e0a8 f   libconcrt:WorkQueue.obj
 0001:0003d0d0       ?StaticRedetachFromScheduleGroup@WorkQueue@details@Concurrency@@CAXPEAV123@@Z 000000018003e0d0 f   libconcrt:WorkQueue.obj
 0001:0003d0e0       ?StaticRetire@WorkQueue@details@Concurrency@@CAXPEAV123@@Z 000000018003e0e0 f   libconcrt:WorkQueue.obj
 0001:0003d0f0       ?Steal@WorkQueue@details@Concurrency@@QEAAPEAV_UnrealizedChore@23@_N@Z 000000018003e0f0 f   libconcrt:WorkQueue.obj
 0001:0003d14c       ?Sweep@?$WorkStealingQueue@V_UnrealizedChore@details@Concurrency@@V_CriticalNonReentrantLock@23@@details@Concurrency@@QEAAXP6A_NPEAV_UnrealizedChore@23@PEAX@Z12@Z 000000018003e14c f i libconcrt:WorkQueue.obj
 0001:0003d224       ?SweepUnstructured@WorkQueue@details@Concurrency@@QEAAXP6A_NPEAV_UnrealizedChore@23@PEAX@Z12@Z 000000018003e224 f   libconcrt:WorkQueue.obj
 0001:0003d230       ?TryToSteal@WorkQueue@details@Concurrency@@QEAAPEAV_UnrealizedChore@23@_NAEA_N@Z 000000018003e230 f   libconcrt:WorkQueue.obj
 0001:0003d29c       ?UnlockedSteal@?$StructuredWorkStealingQueue@V_UnrealizedChore@details@Concurrency@@V_CriticalNonReentrantLock@23@@details@Concurrency@@QEAAPEAV_UnrealizedChore@23@_N@Z 000000018003e29c f i libconcrt:WorkQueue.obj
 0001:0003d3a8       ?UnlockedSteal@?$WorkStealingQueue@V_UnrealizedChore@details@Concurrency@@V_CriticalNonReentrantLock@23@@details@Concurrency@@QEAAPEAV_UnrealizedChore@23@_N0@Z 000000018003e3a8 f i libconcrt:WorkQueue.obj
 0001:0003d4cc       ?UnlockedSteal@WorkQueue@details@Concurrency@@AEAAPEAV_UnrealizedChore@23@_N@Z 000000018003e4cc f   libconcrt:WorkQueue.obj
 0001:0003d5f4       ?_CancelViaToken@_UnrealizedChore@details@Concurrency@@CAXPEAVContextBase@23@@Z 000000018003e5f4 f   libconcrt:Chores.obj
 0001:0003d624       ?_InternalFree@_UnrealizedChore@details@Concurrency@@CAXPEAV123@@Z 000000018003e624 f   libconcrt:Chores.obj
 0001:0003d658       ?_PrepareSteal@_UnrealizedChore@details@Concurrency@@QEAAXPEAVContextBase@23@@Z 000000018003e658 f   libconcrt:Chores.obj
 0001:0003d670       ?_PrepareStealStructured@_UnrealizedChore@details@Concurrency@@AEAAXPEAVContextBase@23@@Z 000000018003e670 f   libconcrt:Chores.obj
 0001:0003d6a8       ?_PrepareStealUnstructured@_UnrealizedChore@details@Concurrency@@AEAAXPEAVContextBase@23@@Z 000000018003e6a8 f   libconcrt:Chores.obj
 0001:0003d73c       ?_SetDetached@_UnrealizedChore@details@Concurrency@@QEAAX_N@Z 000000018003e73c f   libconcrt:Chores.obj
 0001:0003d740       ?_StructuredChoreWrapper@_UnrealizedChore@details@Concurrency@@CAXPEAV123@@Z 000000018003e740 f   libconcrt:Chores.obj
 0001:0003d8e4       ??0VirtualProcessorRoot@details@Concurrency@@QEAA@PEAVSchedulerProxy@12@PEAUSchedulerNode@12@I@Z 000000018003e8e4 f   libconcrt:VirtualProcessorRoot.obj
 0001:0003d93c       ??_GVirtualProcessorRoot@details@Concurrency@@UEAAPEAXI@Z 000000018003e93c f i libconcrt:VirtualProcessorRoot.obj
 0001:0003d93c       ??_EVirtualProcessorRoot@details@Concurrency@@UEAAPEAXI@Z 000000018003e93c f i libconcrt:VirtualProcessorRoot.obj
 0001:0003d974       ?CurrentSubscriptionLevel@VirtualProcessorRoot@details@Concurrency@@UEBAIXZ 000000018003e974 f i libconcrt:VirtualProcessorRoot.obj
 0001:0003d980       ?GetExecutionResourceId@VirtualProcessorRoot@details@Concurrency@@UEBAIXZ 000000018003e980 f i libconcrt:VirtualProcessorRoot.obj
 0001:0003d984       ?GetId@VirtualProcessorRoot@details@Concurrency@@UEBAIXZ 000000018003e984 f i libconcrt:VirtualProcessorRoot.obj
 0001:0003d988       ?GetNodeId@VirtualProcessorRoot@details@Concurrency@@UEBAIXZ 000000018003e988 f i libconcrt:VirtualProcessorRoot.obj
 0001:0003d98c       ?Remove@VirtualProcessorRoot@details@Concurrency@@UEAAXPEAUIScheduler@3@@Z 000000018003e98c f   libconcrt:VirtualProcessorRoot.obj
 0001:0003d9fc       ?ResetSubscriptionLevel@VirtualProcessorRoot@details@Concurrency@@QEAAXXZ 000000018003e9fc f   libconcrt:VirtualProcessorRoot.obj
 0001:0003da20       ?Subscribe@VirtualProcessorRoot@details@Concurrency@@QEAAXXZ 000000018003ea20 f   libconcrt:VirtualProcessorRoot.obj
 0001:0003da30       ?Unsubscribe@VirtualProcessorRoot@details@Concurrency@@QEAAXXZ 000000018003ea30 f   libconcrt:VirtualProcessorRoot.obj
 0001:0003da40       ??0FreeVirtualProcessorRoot@details@Concurrency@@QEAA@PEAVSchedulerProxy@12@PEAUSchedulerNode@12@I@Z 000000018003ea40 f   libconcrt:FreeVirtualProcessorRoot.obj
 0001:0003da78       ??_EFreeVirtualProcessorRoot@details@Concurrency@@UEAAPEAXI@Z 000000018003ea78 f i libconcrt:FreeVirtualProcessorRoot.obj
 0001:0003da78       ??_GFreeVirtualProcessorRoot@details@Concurrency@@UEAAPEAXI@Z 000000018003ea78 f i libconcrt:FreeVirtualProcessorRoot.obj
 0001:0003dab0       ?Activate@FreeVirtualProcessorRoot@details@Concurrency@@UEAAXPEAUIExecutionContext@3@@Z 000000018003eab0 f   libconcrt:FreeVirtualProcessorRoot.obj
 0001:0003dbf0       ?Affinitize@FreeVirtualProcessorRoot@details@Concurrency@@QEAAXPEAVFreeThreadProxy@23@@Z 000000018003ebf0 f   libconcrt:FreeVirtualProcessorRoot.obj
 0001:0003dca4       ?Deactivate@FreeVirtualProcessorRoot@details@Concurrency@@UEAA_NPEAUIExecutionContext@3@@Z 000000018003eca4 f   libconcrt:FreeVirtualProcessorRoot.obj
 0001:0003ddd0       ?DeleteThis@FreeVirtualProcessorRoot@details@Concurrency@@UEAAXXZ 000000018003edd0 f   libconcrt:FreeVirtualProcessorRoot.obj
 0001:0003de78       ?EnsureAllTasksVisible@FreeVirtualProcessorRoot@details@Concurrency@@UEAAXPEAUIExecutionContext@3@@Z 000000018003ee78 f   libconcrt:FreeVirtualProcessorRoot.obj
 0001:0003df38       ?ResetOnIdle@FreeVirtualProcessorRoot@details@Concurrency@@QEAAXW4SwitchingProxyState@3@@Z 000000018003ef38 f   libconcrt:FreeVirtualProcessorRoot.obj
 0001:0003e008       ?AssociateExecutionContext@FreeThreadProxy@details@Concurrency@@QEAAXPEAUIExecutionContext@3@@Z 000000018003f008 f   libconcrt:FreeThreadProxy.obj
 0001:0003e04c       ?Dispatch@FreeThreadProxy@details@Concurrency@@EEAAXXZ 000000018003f04c f   libconcrt:FreeThreadProxy.obj
 0001:0003e12c       ?ReturnIdleProxy@FreeThreadProxy@details@Concurrency@@QEAAXXZ 000000018003f12c f   libconcrt:FreeThreadProxy.obj
 0001:0003e174       ?SwitchOut@FreeThreadProxy@details@Concurrency@@UEAAXW4SwitchingProxyState@3@@Z 000000018003f174 f   libconcrt:FreeThreadProxy.obj
 0001:0003e1d4       ?SwitchTo@FreeThreadProxy@details@Concurrency@@UEAAXPEAUIExecutionContext@3@W4SwitchingProxyState@3@@Z 000000018003f1d4 f   libconcrt:FreeThreadProxy.obj
 0001:0003e2c4       ??0ThreadProxy@details@Concurrency@@QEAA@PEAUIThreadProxyFactory@12@I@Z 000000018003f2c4 f   libconcrt:ThreadProxy.obj
 0001:0003e3cc       ??0scheduler_worker_creation_error@Concurrency@@QEAA@AEBV01@@Z 000000018003f3cc f i libconcrt:ThreadProxy.obj
 0001:0003e424       ??1ThreadProxy@details@Concurrency@@UEAA@XZ 000000018003f424 f   libconcrt:ThreadProxy.obj
 0001:0003e484       ??_GThreadProxy@details@Concurrency@@UEAAPEAXI@Z 000000018003f484 f i libconcrt:ThreadProxy.obj
 0001:0003e484       ??_EThreadProxy@details@Concurrency@@UEAAPEAXI@Z 000000018003f484 f i libconcrt:ThreadProxy.obj
 0001:0003e4b8       ?Cancel@ThreadProxy@details@Concurrency@@QEAAXXZ 000000018003f4b8 f   libconcrt:ThreadProxy.obj
 0001:0003e4cc       ?GetId@ThreadProxy@details@Concurrency@@UEBAIXZ 000000018003f4cc f   libconcrt:ThreadProxy.obj
 0001:0003e4d0       ?ResumeExecution@ThreadProxy@details@Concurrency@@QEAAXXZ 000000018003f4d0 f   libconcrt:ThreadProxy.obj
 0001:0003e4dc       ?SetPriority@ThreadProxy@details@Concurrency@@QEAAXH@Z 000000018003f4dc f   libconcrt:ThreadProxy.obj
 0001:0003e4e8       ?SpinUntilBlocked@ThreadProxy@details@Concurrency@@QEAAXXZ 000000018003f4e8 f   libconcrt:ThreadProxy.obj
 0001:0003e520       ?SuspendExecution@ThreadProxy@details@Concurrency@@QEAAXXZ 000000018003f520 f   libconcrt:ThreadProxy.obj
 0001:0003e54c       ?ThreadProxyMain@ThreadProxy@details@Concurrency@@CAKPEAX@Z 000000018003f54c f   libconcrt:ThreadProxy.obj
 0001:0003e5b0       ??0location@Concurrency@@QEAA@W4_Type@01@IIPEAX@Z 000000018003f5b0 f   libconcrt:location.obj
 0001:0003e5d4       ?Exists@?$Hash@II@details@Concurrency@@QEAA_NAEBI@Z 000000018003f5d4 f i libconcrt:location.obj
 0001:0003e648       ?_FastNodeIntersects@location@Concurrency@@QEBA_NAEBV12@@Z 000000018003f648 f   libconcrt:location.obj
 0001:0003e6a8       ?_FastVPIntersects@location@Concurrency@@QEBA_NAEBV12@@Z 000000018003f6a8 f   libconcrt:location.obj
 0001:0003e6f4       ??0WorkItem@details@Concurrency@@QEAA@PEAVInternalContextBase@12@@Z 000000018003f6f4 f   libconcrt:SearchAlgorithms.obj
 0001:0003e72c       ?Bind@WorkItem@details@Concurrency@@QEAAPEAVInternalContextBase@23@XZ 000000018003f72c f   libconcrt:SearchAlgorithms.obj
 0001:0003e788       ?BindTo@WorkItem@details@Concurrency@@QEAAXPEAVInternalContextBase@23@@Z 000000018003f788 f   libconcrt:SearchAlgorithms.obj
 0001:0003e7d0       ?GetLocalRunnable@WorkSearchContext@details@Concurrency@@AEAA_NPEAVWorkItem@23@PEAVVirtualProcessor@23@_N@Z 000000018003f7d0 f   libconcrt:SearchAlgorithms.obj
 0001:0003e88c       ?GetPseudoRRAffineScheduleGroupSegment@SchedulingRing@details@Concurrency@@QEAAPEAVScheduleGroupSegmentBase@23@PEAH@Z 000000018003f88c f i libconcrt:SearchAlgorithms.obj
 0001:0003e8f8       ?GetPseudoRRNonAffineScheduleGroupSegment@SchedulingRing@details@Concurrency@@QEAAPEAVScheduleGroupSegmentBase@23@PEAH@Z 000000018003f8f8 f i libconcrt:SearchAlgorithms.obj
 0001:0003e968       ?GetRealizedChore@WorkSearchContext@details@Concurrency@@AEAA_NPEAVWorkItem@23@PEAVScheduleGroupSegmentBase@23@_N@Z 000000018003f968 f   libconcrt:SearchAlgorithms.obj
 0001:0003e9d4       ?GetRealizedChoreWithinGroup@WorkSearchContext@details@Concurrency@@AEAA_NPEAVWorkItem@23@PEAVScheduleGroupSegmentBase@23@_NW4SearchAffinity@123@2@Z 000000018003f9d4 f   libconcrt:SearchAlgorithms.obj
 0001:0003eaa4       ?GetRunnableContext@WorkSearchContext@details@Concurrency@@AEAA_NPEAVWorkItem@23@PEAVScheduleGroupSegmentBase@23@@Z 000000018003faa4 f   libconcrt:SearchAlgorithms.obj
 0001:0003eb04       ?GetRunnableContextWithinGroup@WorkSearchContext@details@Concurrency@@AEAA_NPEAVWorkItem@23@PEAVScheduleGroupSegmentBase@23@W4SearchAffinity@123@_N@Z 000000018003fb04 f   libconcrt:SearchAlgorithms.obj
 0001:0003ebc0       ?GetUnrealizedChore@WorkSearchContext@details@Concurrency@@AEAA_NPEAVWorkItem@23@PEAVScheduleGroupSegmentBase@23@_N2@Z 000000018003fbc0 f   libconcrt:SearchAlgorithms.obj
 0001:0003ec38       ?GetUnrealizedChoreWithinGroup@WorkSearchContext@details@Concurrency@@AEAA_NPEAVWorkItem@23@PEAVScheduleGroupSegmentBase@23@_NW4SearchAffinity@123@2@Z 000000018003fc38 f   libconcrt:SearchAlgorithms.obj
 0001:0003ed10       ?Invoke@WorkItem@details@Concurrency@@QEAAXXZ 000000018003fd10 f   libconcrt:SearchAlgorithms.obj
 0001:0003ed6c       ?PreSearch@WorkSearchContext@details@Concurrency@@AEAA_NPEAVWorkItem@23@@Z 000000018003fd6c f   libconcrt:SearchAlgorithms.obj
 0001:0003edcc       ?QuickSearch@WorkSearchContext@details@Concurrency@@AEAA_NPEAVScheduleGroupSegmentBase@23@PEAVWorkItem@23@_NK@Z 000000018003fdcc f   libconcrt:SearchAlgorithms.obj
 0001:0003ee70       ?QuickSearchYield@WorkSearchContext@details@Concurrency@@AEAA_NPEAVScheduleGroupSegmentBase@23@PEAVWorkItem@23@_NK@Z 000000018003fe70 f   libconcrt:SearchAlgorithms.obj
 0001:0003ef00       ?Reset@WorkSearchContext@details@Concurrency@@QEAAXPEAVVirtualProcessor@23@W4Algorithm@123@@Z 000000018003ff00 f   libconcrt:SearchAlgorithms.obj
 0001:0003ef74       ?ResolveToken@WorkItem@details@Concurrency@@QEAA_NXZ 000000018003ff74 f   libconcrt:SearchAlgorithms.obj
 0001:0003f010       ?SearchCacheLocal@WorkSearchContext@details@Concurrency@@AEAA_NPEAVWorkItem@23@PEAVScheduleGroupSegmentBase@23@_NK@Z 0000000180040010 f   libconcrt:SearchAlgorithms.obj
 0001:0003f430       ?SearchCacheLocalYield@WorkSearchContext@details@Concurrency@@AEAA_NPEAVWorkItem@23@PEAVScheduleGroupSegmentBase@23@_NK@Z 0000000180040430 f   libconcrt:SearchAlgorithms.obj
 0001:0003f77c       ?SearchCacheLocal_Realized@WorkSearchContext@details@Concurrency@@AEAA_NPEAVWorkItem@23@PEAVSchedulingRing@23@PEAVScheduleGroupSegmentBase@23@_NW4SearchAffinity@123@K3@Z 000000018004077c f   libconcrt:SearchAlgorithms.obj
 0001:0003f940       ?SearchCacheLocal_Runnables@WorkSearchContext@details@Concurrency@@AEAA_NPEAVWorkItem@23@PEAVSchedulingRing@23@PEAVScheduleGroupSegmentBase@23@_NW4SearchAffinity@123@K3@Z 0000000180040940 f   libconcrt:SearchAlgorithms.obj
 0001:0003fb1c       ?SearchCacheLocal_Unrealized@WorkSearchContext@details@Concurrency@@AEAA_NPEAVWorkItem@23@PEAVSchedulingRing@23@PEAVScheduleGroupSegmentBase@23@_NW4SearchAffinity@123@K3@Z 0000000180040b1c f   libconcrt:SearchAlgorithms.obj
 0001:0003fce4       ?SearchFair@WorkSearchContext@details@Concurrency@@AEAA_NPEAVWorkItem@23@PEAVScheduleGroupSegmentBase@23@_NK@Z 0000000180040ce4 f   libconcrt:SearchAlgorithms.obj
 0001:0003fe30       ?SearchFairYield@WorkSearchContext@details@Concurrency@@AEAA_NPEAVWorkItem@23@PEAVScheduleGroupSegmentBase@23@_NK@Z 0000000180040e30 f   libconcrt:SearchAlgorithms.obj
 0001:0003ff90       ?SearchFair_Realized@WorkSearchContext@details@Concurrency@@AEAA_NPEAVWorkItem@23@PEAVSchedulingRing@23@_N@Z 0000000180040f90 f   libconcrt:SearchAlgorithms.obj
 0001:00040060       ?SearchFair_Runnables@WorkSearchContext@details@Concurrency@@AEAA_NPEAVWorkItem@23@PEAVSchedulingRing@23@@Z 0000000180041060 f   libconcrt:SearchAlgorithms.obj
 0001:00040114       ?SearchFair_Unrealized@WorkSearchContext@details@Concurrency@@AEAA_NPEAVWorkItem@23@PEAVSchedulingRing@23@_N@Z 0000000180041114 f   libconcrt:SearchAlgorithms.obj
 0001:000401e8       ?SkipSegmentSearch@WorkSearchContext@details@Concurrency@@AEAA_NPEAVScheduleGroupSegmentBase@23@0W4SearchAffinity@123@_N@Z 00000001800411e8 f   libconcrt:SearchAlgorithms.obj
 0001:000402c0       ?StealForeignLocalRunnable@WorkSearchContext@details@Concurrency@@AEAA_NPEAVWorkItem@23@PEAVSchedulingNode@23@@Z 00000001800412c0 f   libconcrt:SearchAlgorithms.obj
 0001:00040398       ?StealLocalRunnable@WorkSearchContext@details@Concurrency@@AEAA_NPEAVWorkItem@23@PEAVSchedulingNode@23@PEAVVirtualProcessor@23@@Z 0000000180041398 f   libconcrt:SearchAlgorithms.obj
 0001:0004045c       ?StealLocalRunnableContext@VirtualProcessor@details@Concurrency@@AEAAPEAVInternalContextBase@23@XZ 000000018004145c f i libconcrt:SearchAlgorithms.obj
 0001:000404c0       ?TransferReferences@WorkItem@details@Concurrency@@QEAAXPEAVInternalContextBase@23@@Z 00000001800414c0 f   libconcrt:SearchAlgorithms.obj
 0001:00040560       ?Invoke@RealizedChore@details@Concurrency@@QEAAXXZ 0000000180041560 f   libconcrt:RealizedChore.obj
 0001:00040590       ??0ThreadVirtualProcessor@details@Concurrency@@QEAA@PEAVSchedulingNode@12@PEAUIVirtualProcessorRoot@2@@Z 0000000180041590 f   libconcrt:ThreadVirtualProcessor.obj
 0001:000405e8       ??_EThreadVirtualProcessor@details@Concurrency@@UEAAPEAXI@Z 00000001800415e8 f i libconcrt:ThreadVirtualProcessor.obj
 0001:000405e8       ??_GThreadVirtualProcessor@details@Concurrency@@UEAAPEAXI@Z 00000001800415e8 f i libconcrt:ThreadVirtualProcessor.obj
 0001:00040640       memmove                    0000000180041640 f   libvcruntime:memcpy.obj
 0001:00040640       memcpy                     0000000180041640 f   libvcruntime:memcpy.obj
 0001:00040a78       _purecall                  0000000180041a78 f   libvcruntime:purevirt.obj
 0001:00040ab4       memchr                     0000000180041ab4 f   libvcruntime:memchr.obj
 0001:00040ad0       __std_exception_copy       0000000180041ad0 f   libvcruntime:std_exception.obj
 0001:00040b60       __std_exception_destroy    0000000180041b60 f   libvcruntime:std_exception.obj
 0001:00040b88       _CxxThrowException         0000000180041b88 f   libvcruntime:throw.obj
 0001:00040c60       ?_GetEstablisherFrame@@YAPEA_KPEA_KPEAU_xDISPATCHER_CONTEXT@@PEBU_s_FuncInfo@@0@Z 0000000180041c60 f   libvcruntime:trnsctrl.obj
 0001:00040d2c       ?_GetRangeOfTrysToCheck@@YAPEBU_s_TryBlockMapEntry@@PEA_KPEBU_s_FuncInfo@@HHPEAI2PEAU_xDISPATCHER_CONTEXT@@@Z 0000000180041d2c f   libvcruntime:trnsctrl.obj
 0001:00040e58       ?__FrameUnwindToEmptyState@@YAXPEA_KPEAU_xDISPATCHER_CONTEXT@@PEBU_s_FuncInfo@@@Z 0000000180041e58 f   libvcruntime:trnsctrl.obj
 0001:00040eec       ?__SehTransFilter@@YAHPEAU_EXCEPTION_POINTERS@@PEAUEHExceptionRecord@@PEA_KPEAU_CONTEXT@@PEAU_xDISPATCHER_CONTEXT@@PEBU_s_FuncInfo@@PEAH@Z 0000000180041eec f   libvcruntime:trnsctrl.obj
 0001:00040f84       _CallSETranslator          0000000180041f84 f   libvcruntime:trnsctrl.obj
 0001:00040fdc       _CreateFrameInfo           0000000180041fdc f   libvcruntime:trnsctrl.obj
 0001:00041018       _FindAndUnlinkFrame        0000000180042018 f   libvcruntime:trnsctrl.obj
 0001:00041070       _GetImageBase              0000000180042070 f   libvcruntime:trnsctrl.obj
 0001:00041084       _GetThrowImageBase         0000000180042084 f   libvcruntime:trnsctrl.obj
 0001:00041098       _IsExceptionObjectToBeDestroyed 0000000180042098 f   libvcruntime:trnsctrl.obj
 0001:000410c8       _SetImageBase              00000001800420c8 f   libvcruntime:trnsctrl.obj
 0001:000410e0       _SetThrowImageBase         00000001800420e0 f   libvcruntime:trnsctrl.obj
 0001:000410f8       _UnwindNestedFrames        00000001800420f8 f   libvcruntime:trnsctrl.obj
 0001:0004121c       __CxxFrameHandler3         000000018004221c f   libvcruntime:trnsctrl.obj
 0001:0004129c       __DestructExceptionObject  000000018004229c f   libvcruntime:frame.obj
 0001:00041324       ??0bad_exception@std@@QEAA@AEBV01@@Z 0000000180042324 f i libvcruntime:frame.obj
 0001:00041364       ??0bad_exception@std@@QEAA@XZ 0000000180042364 f i libvcruntime:frame.obj
 0001:00041cc4       ?_CallMemberFunction0@@YAXPEAXP6AX0@Z@Z 0000000180042cc4 f i libvcruntime:frame.obj
 0001:00041cc8       ?_CallMemberFunction1@@YAXPEAXP6AX0@Z0@Z 0000000180042cc8 f i libvcruntime:frame.obj
 0001:00041cd4       ?_CallMemberFunction2@@YAXPEAXP6AX0@Z0H@Z 0000000180042cd4 f i libvcruntime:frame.obj
 0001:00041ce4       __AdjustPointer            0000000180042ce4 f   libvcruntime:frame.obj
 0001:00041d08       __BuildCatchObject         0000000180042d08 f   libvcruntime:frame.obj
 0001:00041dd0       __BuildCatchObjectHelper   0000000180042dd0 f   libvcruntime:frame.obj
 0001:00041fb4       __CxxCallCatchBlock        0000000180042fb4 f   libvcruntime:frame.obj
 0001:000421a0       __FrameUnwindFilter        00000001800431a0 f   libvcruntime:frame.obj
 0001:000421ec       __FrameUnwindToState       00000001800431ec f   libvcruntime:frame.obj
 0001:00042380       __InternalCxxFrameHandler  0000000180043380 f   libvcruntime:frame.obj
 0001:000425d8       __TypeMatch                00000001800435d8 f   libvcruntime:frame.obj
 0001:00042718       __current_exception        0000000180043718 f   libvcruntime:frame.obj
 0001:0004272c       __processing_throw         000000018004372c f   libvcruntime:frame.obj
 0001:00042740       __std_terminate            0000000180043740 f   libvcruntime:frame.obj
 0001:0004274c       __uncaught_exception       000000018004374c f   libvcruntime:frame.obj
 0001:00042780       memset                     0000000180043780 f   libvcruntime:memset.obj
 0001:00042930       memcmp                     0000000180043930 f   libvcruntime:memcmp.obj
 0001:000429f8       __vcrt_initialize          00000001800439f8 f   libvcruntime:initialization.obj
 0001:00042a30       __vcrt_thread_attach       0000000180043a30 f   libvcruntime:initialization.obj
 0001:00042a44       __vcrt_thread_detach       0000000180043a44 f   libvcruntime:initialization.obj
 0001:00042a58       __vcrt_uninitialize        0000000180043a58 f   libvcruntime:initialization.obj
 0001:00042a84       __vcrt_uninitialize_critical 0000000180043a84 f   libvcruntime:initialization.obj
 0001:00042a94       __C_specific_handler       0000000180043a94 f   libvcruntime:_chandler_.obj
 0001:00042e58       __vcrt_EventRegister       0000000180043e58 f   libvcruntime:winapi_downlevel.obj
 0001:00042edc       __vcrt_EventSetInformation 0000000180043edc f   libvcruntime:winapi_downlevel.obj
 0001:00042f60       __vcrt_EventUnregister     0000000180043f60 f   libvcruntime:winapi_downlevel.obj
 0001:00042fb4       __vcrt_EventWriteTransfer  0000000180043fb4 f   libvcruntime:winapi_downlevel.obj
 0001:0004304c       __vcrt_FlsAlloc            000000018004404c f   libvcruntime:winapi_downlevel.obj
 0001:000430a0       __vcrt_FlsFree             00000001800440a0 f   libvcruntime:winapi_downlevel.obj
 0001:000430f4       __vcrt_FlsGetValue         00000001800440f4 f   libvcruntime:winapi_downlevel.obj
 0001:00043148       __vcrt_FlsSetValue         0000000180044148 f   libvcruntime:winapi_downlevel.obj
 0001:000431b0       __vcrt_InitializeCriticalSectionEx 00000001800441b0 f   libvcruntime:winapi_downlevel.obj
 0001:00043228       __vcrt_initialize_winapi_thunks 0000000180044228 f   libvcruntime:winapi_downlevel.obj
 0001:00043260       __vcrt_uninitialize_winapi_thunks 0000000180044260 f   libvcruntime:winapi_downlevel.obj
 0001:000432a4       __telemetry_main_invoke_trigger 00000001800442a4 f   libvcruntime:telemetry.obj
 0001:000433bc       __telemetry_main_return_trigger 00000001800443bc f   libvcruntime:telemetry.obj
 0001:000434d4       __vcrt_initialize_telemetry_provider 00000001800444d4 f   libvcruntime:telemetry.obj
 0001:000434e8       __vcrt_uninitialize_telemetry_provider 00000001800444e8 f   libvcruntime:telemetry.obj
 0001:00043508       __std_type_info_compare    0000000180044508 f   libvcruntime:std_type_info.obj
 0001:00043530       __std_type_info_destroy_list 0000000180044530 f   libvcruntime:std_type_info.obj
 0001:0004355c       ??0__non_rtti_object@std@@QEAA@AEBV01@@Z 000000018004455c f i libvcruntime:rtti.obj
 0001:0004359c       ??0bad_typeid@std@@QEAA@AEBV01@@Z 000000018004459c f i libvcruntime:rtti.obj
 0001:00043a60       ?__construct_from_string_literal@__non_rtti_object@std@@SA?AV12@QEBD@Z 0000000180044a60 f i libvcruntime:rtti.obj
 0001:00043a78       ?__construct_from_string_literal@bad_cast@std@@SA?AV12@QEBD@Z 0000000180044a78 f i libvcruntime:rtti.obj
 0001:00043a90       __RTDynamicCast            0000000180044a90 f   libvcruntime:rtti.obj
 0001:00043c0c       __vcrt_initialize_pure_virtual_call_handler 0000000180044c0c f   libvcruntime:purevirt_data.obj
 0001:00043c30       __vcrt_freefls             0000000180044c30 f   libvcruntime:per_thread_data.obj
 0001:00043c50       __vcrt_freeptd             0000000180044c50 f   libvcruntime:per_thread_data.obj
 0001:00043ca0       __vcrt_getptd              0000000180044ca0 f   libvcruntime:per_thread_data.obj
 0001:00043cbc       __vcrt_getptd_noexit       0000000180044cbc f   libvcruntime:per_thread_data.obj
 0001:00043d74       __vcrt_initialize_ptd      0000000180044d74 f   libvcruntime:per_thread_data.obj
 0001:00043db4       __vcrt_uninitialize_ptd    0000000180044db4 f   libvcruntime:per_thread_data.obj
 0001:00043dd8       ?__GetCurrentState@@YAHPEA_KPEAU_xDISPATCHER_CONTEXT@@PEBU_s_FuncInfo@@@Z 0000000180044dd8 f   libvcruntime:ehstate.obj
 0001:00043e00       ?__GetUnwindTryBlock@@YAHPEA_KPEAU_xDISPATCHER_CONTEXT@@PEBU_s_FuncInfo@@@Z 0000000180044e00 f   libvcruntime:ehstate.obj
 0001:00043e2c       ?__SetState@@YAXPEA_KPEAU_xDISPATCHER_CONTEXT@@PEBU_s_FuncInfo@@H@Z 0000000180044e2c f   libvcruntime:ehstate.obj
 0001:00043e38       ?__SetUnwindTryBlock@@YAXPEA_KPEAU_xDISPATCHER_CONTEXT@@PEBU_s_FuncInfo@@H@Z 0000000180044e38 f   libvcruntime:ehstate.obj
 0001:00043e74       ?__StateFromControlPc@@YAHPEBU_s_FuncInfo@@PEAU_xDISPATCHER_CONTEXT@@@Z 0000000180044e74 f   libvcruntime:ehstate.obj
 0001:00043e7c       ?__StateFromIp@@YAHPEBU_s_FuncInfo@@PEAU_xDISPATCHER_CONTEXT@@_J@Z 0000000180044e7c f   libvcruntime:ehstate.obj
 0001:00043f00       _CallSettingFrame          0000000180044f00 f   libvcruntime:handlers.obj
 0001:00043f50       _local_unwind              0000000180044f50 f   libvcruntime:_jmpuwind_.obj
 0001:00043f80       _NLG_Notify                0000000180044f80 f   libvcruntime:_jmpuwind_.obj
 0001:00043fa0       __NLG_Dispatch2            0000000180044fa0 f   libvcruntime:_jmpuwind_.obj
 0001:00043fb0       __NLG_Return2              0000000180044fb0 f   libvcruntime:_jmpuwind_.obj
 0001:00043fb4       __vcrt_initialize_locks    0000000180044fb4 f   libvcruntime:locks.obj
 0001:00043ffc       __vcrt_uninitialize_locks  0000000180044ffc f   libvcruntime:locks.obj
 0001:00044034       ??0_LocaleUpdate@@QEAA@QEAU__crt_locale_pointers@@@Z 0000000180045034 f i libucrt:_ctype.obj
 0001:000440c4       isalnum                    00000001800450c4 f i libucrt:_ctype.obj
 0001:00044140       isdigit                    0000000180045140 f i libucrt:_ctype.obj
 0001:000441b4       islower                    00000001800451b4 f i libucrt:_ctype.obj
 0001:00044228       isupper                    0000000180045228 f i libucrt:_ctype.obj
 0001:0004429c       __acrt_call_reportfault    000000018004529c f   libucrt:invalid_parameter.obj
 0001:000443f8       __acrt_initialize_invalid_parameter_handler 00000001800453f8 f   libucrt:invalid_parameter.obj
 0001:00044400       _invalid_parameter         0000000180045400 f   libucrt:invalid_parameter.obj
 0001:000444a8       _invalid_parameter_noinfo  00000001800454a8 f   libucrt:invalid_parameter.obj
 0001:000444c8       _invalid_parameter_noinfo_noreturn 00000001800454c8 f   libucrt:invalid_parameter.obj
 0001:000444f8       _invoke_watson             00000001800454f8 f   libucrt:invalid_parameter.obj
 0001:00044540       __acrt_errno_from_os_error 0000000180045540 f   libucrt:errno.obj
 0001:00044588       __acrt_errno_map_os_error  0000000180045588 f   libucrt:errno.obj
 0001:000445d8       __doserrno                 00000001800455d8 f   libucrt:errno.obj
 0001:000445f8       _errno                     00000001800455f8 f   libucrt:errno.obj
 0001:00044618       ??$is_overflow_condition@K@__crt_strtox@@YA_NIK@Z 0000000180045618 f i libucrt:strtox.obj
 0001:00044644       ??$parse_integer@KV?$c_string_character_source@D@__crt_strtox@@@__crt_strtox@@YAKQEAU__crt_locale_pointers@@V?$c_string_character_source@D@0@H_N@Z 0000000180045644 f i libucrt:strtox.obj
 0001:00044958       ??$parse_integer@KV?$c_string_character_source@_W@__crt_strtox@@@__crt_strtox@@YAKQEAU__crt_locale_pointers@@V?$c_string_character_source@_W@0@H_N@Z 0000000180045958 f i libucrt:strtox.obj
 0001:0004502c       strtol                     000000018004602c f   libucrt:strtox.obj
 0001:0004505c       rand                       000000018004605c f   libucrt:rand.obj
 0001:000450a0       strncmp                    00000001800460a0 f   libucrt:strncmp.obj
 0001:00045120       ??$make_c_string_character_source@_W$$T@__crt_strtox@@YA?AV?$c_string_character_source@_W@0@QEB_W$$T@Z 0000000180046120 f i libucrt:atox.obj
 0001:00045120       ??$make_c_string_character_source@D$$T@__crt_strtox@@YA?AV?$c_string_character_source@D@0@QEBD$$T@Z 0000000180046120 f i libucrt:atox.obj
 0001:00045120       ??$make_c_string_character_source@DPEAPEAD@__crt_strtox@@YA?AV?$c_string_character_source@D@0@QEBDQEAPEAD@Z 0000000180046120 f i libucrt:strtox.obj
 0001:00045134       _wtol                      0000000180046134 f   libucrt:atox.obj
 0001:00045160       atoi                       0000000180046160 f   libucrt:atox.obj
 0001:0004518c       abort                      000000018004618c f   libucrt:abort.obj
 0001:000451e4       calloc                     00000001800461e4 f   libucrt:calloc.obj
 0001:000451ec       strcspn                    00000001800461ec f   libucrt:strcspn.obj
 0001:00045434       ??$ensure_buffer_is_big_enough@D@formatting_buffer@__crt_stdio_output@@QEAA_N_K@Z 0000000180046434 f i libucrt:output.obj
 0001:000454e0       ??$is_wide_character_specifier@D@__crt_stdio_output@@YA_N_KDW4length_modifier@0@@Z 00000001800464e0 f i libucrt:output.obj
 0001:00045510       ??$type_case_integer_parse_into_buffer@I@?$output_processor@DV?$string_output_adapter@D@__crt_stdio_output@@V?$format_validation_base@DV?$string_output_adapter@D@__crt_stdio_output@@@2@@__crt_stdio_output@@AEAAXII_N@Z 0000000180046510 f i libucrt:output.obj
 0001:00045510       ??$type_case_integer_parse_into_buffer@I@?$output_processor@DV?$string_output_adapter@D@__crt_stdio_output@@V?$standard_base@DV?$string_output_adapter@D@__crt_stdio_output@@@2@@__crt_stdio_output@@AEAAXII_N@Z 0000000180046510 f i libucrt:output.obj
 0001:000455ac       ??$type_case_integer_parse_into_buffer@_K@?$output_processor@DV?$string_output_adapter@D@__crt_stdio_output@@V?$format_validation_base@DV?$string_output_adapter@D@__crt_stdio_output@@@2@@__crt_stdio_output@@AEAAX_KI_N@Z 00000001800465ac f i libucrt:output.obj
 0001:000455ac       ??$type_case_integer_parse_into_buffer@_K@?$output_processor@DV?$string_output_adapter@D@__crt_stdio_output@@V?$standard_base@DV?$string_output_adapter@D@__crt_stdio_output@@@2@@__crt_stdio_output@@AEAAX_KI_N@Z 00000001800465ac f i libucrt:output.obj
 0001:00045648       ??$write_multiple_characters@V?$string_output_adapter@D@__crt_stdio_output@@D@__crt_stdio_output@@YAXAEBV?$string_output_adapter@D@0@DHQEAH@Z 0000000180046648 f i libucrt:output.obj
 0001:000456a4       ??0?$output_processor@DV?$string_output_adapter@D@__crt_stdio_output@@V?$format_validation_base@DV?$string_output_adapter@D@__crt_stdio_output@@@2@@__crt_stdio_output@@QEAA@AEBV?$string_output_adapter@D@1@_KQEBDQEAU__crt_locale_pointers@@QEAD@Z 00000001800466a4 f i libucrt:output.obj
 0001:000456a4       ??0?$output_processor@DV?$string_output_adapter@D@__crt_stdio_output@@V?$standard_base@DV?$string_output_adapter@D@__crt_stdio_output@@@2@@__crt_stdio_output@@QEAA@AEBV?$string_output_adapter@D@1@_KQEBDQEAU__crt_locale_pointers@@QEAD@Z 00000001800466a4 f i libucrt:output.obj
 0001:00045720       ?force_decimal_point@__crt_stdio_output@@YAXPEADQEAU__crt_locale_pointers@@@Z 0000000180046720 f i libucrt:output.obj
 0001:00045790       ?parse_int_from_format_string@?$output_processor@DV?$string_output_adapter@D@__crt_stdio_output@@V?$format_validation_base@DV?$string_output_adapter@D@__crt_stdio_output@@@2@@__crt_stdio_output@@AEAA_NQEAH@Z 0000000180046790 f i libucrt:output.obj
 0001:00045790       ?parse_int_from_format_string@?$output_processor@DV?$string_output_adapter@D@__crt_stdio_output@@V?$standard_base@DV?$string_output_adapter@D@__crt_stdio_output@@@2@@__crt_stdio_output@@AEAA_NQEAH@Z 0000000180046790 f i libucrt:output.obj
 0001:00045814       ?process@?$output_processor@DV?$string_output_adapter@D@__crt_stdio_output@@V?$format_validation_base@DV?$string_output_adapter@D@__crt_stdio_output@@@2@@__crt_stdio_output@@QEAAHXZ 0000000180046814 f i libucrt:output.obj
 0001:00045a28       ?process@?$output_processor@DV?$string_output_adapter@D@__crt_stdio_output@@V?$standard_base@DV?$string_output_adapter@D@__crt_stdio_output@@@2@@__crt_stdio_output@@QEAAHXZ 0000000180046a28 f i libucrt:output.obj
 0001:00045c2c       ?state_case_normal@?$output_processor@DV?$string_output_adapter@D@__crt_stdio_output@@V?$standard_base@DV?$string_output_adapter@D@__crt_stdio_output@@@2@@__crt_stdio_output@@AEAA_NXZ 0000000180046c2c f i libucrt:output.obj
 0001:00045c2c       ?state_case_normal@?$output_processor@DV?$string_output_adapter@D@__crt_stdio_output@@V?$format_validation_base@DV?$string_output_adapter@D@__crt_stdio_output@@@2@@__crt_stdio_output@@AEAA_NXZ 0000000180046c2c f i libucrt:output.obj
 0001:00045ca0       ?state_case_normal_tchar@?$output_processor@DV?$string_output_adapter@D@__crt_stdio_output@@V?$format_validation_base@DV?$string_output_adapter@D@__crt_stdio_output@@@2@@__crt_stdio_output@@AEAA_ND@Z 0000000180046ca0 f i libucrt:output.obj
 0001:00045ca0       ?state_case_normal_tchar@?$output_processor@DV?$string_output_adapter@D@__crt_stdio_output@@V?$standard_base@DV?$string_output_adapter@D@__crt_stdio_output@@@2@@__crt_stdio_output@@AEAA_ND@Z 0000000180046ca0 f i libucrt:output.obj
 0001:00045d38       ?state_case_size@?$output_processor@DV?$string_output_adapter@D@__crt_stdio_output@@V?$format_validation_base@DV?$string_output_adapter@D@__crt_stdio_output@@@2@@__crt_stdio_output@@AEAA_NXZ 0000000180046d38 f i libucrt:output.obj
 0001:00045d38       ?state_case_size@?$output_processor@DV?$string_output_adapter@D@__crt_stdio_output@@V?$standard_base@DV?$string_output_adapter@D@__crt_stdio_output@@@2@@__crt_stdio_output@@AEAA_NXZ 0000000180046d38 f i libucrt:output.obj
 0001:00045eb4       ?state_case_type@?$output_processor@DV?$string_output_adapter@D@__crt_stdio_output@@V?$format_validation_base@DV?$string_output_adapter@D@__crt_stdio_output@@@2@@__crt_stdio_output@@AEAA_NXZ 0000000180046eb4 f i libucrt:output.obj
 0001:00045eb4       ?state_case_type@?$output_processor@DV?$string_output_adapter@D@__crt_stdio_output@@V?$standard_base@DV?$string_output_adapter@D@__crt_stdio_output@@@2@@__crt_stdio_output@@AEAA_NXZ 0000000180046eb4 f i libucrt:output.obj
 0001:00046130       ?type_case_Z@?$output_processor@DV?$string_output_adapter@D@__crt_stdio_output@@V?$standard_base@DV?$string_output_adapter@D@__crt_stdio_output@@@2@@__crt_stdio_output@@AEAA_NXZ 0000000180047130 f i libucrt:output.obj
 0001:00046130       ?type_case_Z@?$output_processor@DV?$string_output_adapter@D@__crt_stdio_output@@V?$format_validation_base@DV?$string_output_adapter@D@__crt_stdio_output@@@2@@__crt_stdio_output@@AEAA_NXZ 0000000180047130 f i libucrt:output.obj
 0001:000461b0       ?type_case_a@?$output_processor@DV?$string_output_adapter@D@__crt_stdio_output@@V?$format_validation_base@DV?$string_output_adapter@D@__crt_stdio_output@@@2@@__crt_stdio_output@@AEAA_NXZ 00000001800471b0 f i libucrt:output.obj
 0001:000461b0       ?type_case_a@?$output_processor@DV?$string_output_adapter@D@__crt_stdio_output@@V?$standard_base@DV?$string_output_adapter@D@__crt_stdio_output@@@2@@__crt_stdio_output@@AEAA_NXZ 00000001800471b0 f i libucrt:output.obj
 0001:000463cc       ?type_case_c_tchar@?$output_processor@DV?$string_output_adapter@D@__crt_stdio_output@@V?$standard_base@DV?$string_output_adapter@D@__crt_stdio_output@@@2@@__crt_stdio_output@@AEAA_ND@Z 00000001800473cc f i libucrt:output.obj
 0001:000463cc       ?type_case_c_tchar@?$output_processor@DV?$string_output_adapter@D@__crt_stdio_output@@V?$format_validation_base@DV?$string_output_adapter@D@__crt_stdio_output@@@2@@__crt_stdio_output@@AEAA_ND@Z 00000001800473cc f i libucrt:output.obj
 0001:00046480       ?type_case_integer@?$output_processor@DV?$string_output_adapter@D@__crt_stdio_output@@V?$standard_base@DV?$string_output_adapter@D@__crt_stdio_output@@@2@@__crt_stdio_output@@AEAA_NI_N@Z 0000000180047480 f i libucrt:output.obj
 0001:00046480       ?type_case_integer@?$output_processor@DV?$string_output_adapter@D@__crt_stdio_output@@V?$format_validation_base@DV?$string_output_adapter@D@__crt_stdio_output@@@2@@__crt_stdio_output@@AEAA_NI_N@Z 0000000180047480 f i libucrt:output.obj
 0001:00046620       ?type_case_n@?$output_processor@DV?$string_output_adapter@D@__crt_stdio_output@@V?$standard_base@DV?$string_output_adapter@D@__crt_stdio_output@@@2@@__crt_stdio_output@@AEAA_NXZ 0000000180047620 f i libucrt:output.obj
 0001:00046620       ?type_case_n@?$output_processor@DV?$string_output_adapter@D@__crt_stdio_output@@V?$format_validation_base@DV?$string_output_adapter@D@__crt_stdio_output@@@2@@__crt_stdio_output@@AEAA_NXZ 0000000180047620 f i libucrt:output.obj
 0001:000466fc       ?type_case_s@?$output_processor@DV?$string_output_adapter@D@__crt_stdio_output@@V?$standard_base@DV?$string_output_adapter@D@__crt_stdio_output@@@2@@__crt_stdio_output@@AEAA_NXZ 00000001800476fc f i libucrt:output.obj
 0001:000466fc       ?type_case_s@?$output_processor@DV?$string_output_adapter@D@__crt_stdio_output@@V?$format_validation_base@DV?$string_output_adapter@D@__crt_stdio_output@@@2@@__crt_stdio_output@@AEAA_NXZ 00000001800476fc f i libucrt:output.obj
 0001:0004678c       ?write_stored_string_tchar@?$output_processor@DV?$string_output_adapter@D@__crt_stdio_output@@V?$standard_base@DV?$string_output_adapter@D@__crt_stdio_output@@@2@@__crt_stdio_output@@AEAA_ND@Z 000000018004778c f i libucrt:output.obj
 0001:0004678c       ?write_stored_string_tchar@?$output_processor@DV?$string_output_adapter@D@__crt_stdio_output@@V?$format_validation_base@DV?$string_output_adapter@D@__crt_stdio_output@@@2@@__crt_stdio_output@@AEAA_ND@Z 000000018004778c f i libucrt:output.obj
 0001:00046864       ?write_string@?$string_output_adapter@D@__crt_stdio_output@@QEBAXQEBDHQEAH1@Z 0000000180047864 f i libucrt:output.obj
 0001:00046920       __stdio_common_vsprintf    0000000180047920 f   libucrt:output.obj
 0001:00046b54       __stdio_common_vsprintf_s  0000000180047b54 f   libucrt:output.obj
 0001:00046bb8       localeconv                 0000000180047bb8 f   libucrt:localeconv.obj
 0001:00046bec       free                       0000000180047bec f   libucrt:free.obj
 0001:00046bf4       frexp                      0000000180047bf4 f   libucrt:frexp.obj
 0001:00046cec       __ascii_stricmp            0000000180047cec f   libucrt:stricmp.obj
 0001:00046d28       _stricmp                   0000000180047d28 f   libucrt:stricmp.obj
 0001:00046d70       _stricmp_l                 0000000180047d70 f   libucrt:stricmp.obj
 0001:00046e24       _calloc_base               0000000180047e24 f   libucrt:calloc_base.obj
 0001:00046e9c       _free_base                 0000000180047e9c f   libucrt:free_base.obj
 0001:00046edc       __acrt_initialize_locks    0000000180047edc f   libucrt:locks.obj
 0001:00046f24       __acrt_lock                0000000180047f24 f   libucrt:locks.obj
 0001:00046f40       __acrt_uninitialize_locks  0000000180047f40 f   libucrt:locks.obj
 0001:00046f78       __acrt_unlock              0000000180047f78 f   libucrt:locks.obj
 0001:00046f94       _lock_locales              0000000180047f94 f   libucrt:locks.obj
 0001:00046fa4       _unlock_locales            0000000180047fa4 f   libucrt:locks.obj
 0001:00046fb4       __acrt_initialize_stdio    0000000180047fb4 f   libucrt:_file.obj
 0001:000470d4       __acrt_iob_func            00000001800480d4 f   libucrt:_file.obj
 0001:000470e8       __acrt_uninitialize_stdio  00000001800480e8 f   libucrt:_file.obj
 0001:00047144       _get_stream_buffer_pointers 0000000180048144 f   libucrt:_file.obj
 0001:0004718c       _lock_file                 000000018004818c f   libucrt:_file.obj
 0001:00047198       _unlock_file               0000000180048198 f   libucrt:_file.obj
 0001:000471a4       _fclose_nolock             00000001800481a4 f   libucrt:fclose.obj
 0001:00047228       fclose                     0000000180048228 f   libucrt:fclose.obj
 0001:00047294       __acrt_stdio_flush_nolock  0000000180048294 f   libucrt:fflush.obj
 0001:0004730c       _fflush_nolock             000000018004830c f   libucrt:fflush.obj
 0001:00047358       _flushall                  0000000180048358 f   libucrt:fflush.obj
 0001:00047448       fflush                     0000000180048448 f   libucrt:fflush.obj
 0001:0004748c       _fgetc_nolock              000000018004848c f   libucrt:fgetc.obj
 0001:000474d0       fgetc                      00000001800484d0 f   libucrt:fgetc.obj
 0001:000475d4       fgetpos                    00000001800485d4 f   libucrt:fgetpos.obj
 0001:00047620       fputc                      0000000180048620 f   libucrt:fputc.obj
 0001:00047740       fsetpos                    0000000180048740 f   libucrt:fsetpos.obj
 0001:000479ec       _fseeki64                  00000001800489ec f   libucrt:fseek.obj
 0001:000479f4       ??$?RV<lambda_5d4c3fee44080f75d5d9762853974fe0>@@AEAV<lambda_532e024f4337e6fc7ad266c2bef9f4ed>@@V<lambda_c87bdc10097eb2402edb8ba9bdf0697b>@@@?$__crt_seh_guarded_call@_K@@QEAA_K$$QEAV<lambda_5d4c3fee44080f75d5d9762853974fe0>@@AEAV<lambda_532e024f4337e6fc7ad266c2bef9f4ed>@@$$QEAV<lambda_c87bdc10097eb2402edb8ba9bdf0697b>@@@Z 00000001800489f4 f i libucrt:fwrite.obj
 0001:00047a98       _fwrite_nolock             0000000180048a98 f   libucrt:fwrite.obj
 0001:00047c34       fwrite                     0000000180048c34 f   libucrt:fwrite.obj
 0001:00047cb8       ??$?RV<lambda_7a5ef57ff966f610505f1d28a3d40618>@@AEAV<lambda_b721fa326cdb32351d23dfa67958c160>@@V<lambda_5e0fb27672408a07956fe59e48ccb2aa>@@@?$__crt_seh_guarded_call@H@@QEAAH$$QEAV<lambda_7a5ef57ff966f610505f1d28a3d40618>@@AEAV<lambda_b721fa326cdb32351d23dfa67958c160>@@$$QEAV<lambda_5e0fb27672408a07956fe59e48ccb2aa>@@@Z 0000000180048cb8 f i libucrt:setvbuf.obj
 0001:00047de8       setvbuf                    0000000180048de8 f   libucrt:setvbuf.obj
 0001:00047e88       _ungetc_nolock             0000000180048e88 f   libucrt:ungetc.obj
 0001:00047f98       ungetc                     0000000180048f98 f   libucrt:ungetc.obj
 0001:00047ff8       malloc                     0000000180048ff8 f   libucrt:malloc.obj
 0001:000480e8       setlocale                  00000001800490e8 f   libucrt:setlocale.obj
 0001:000482b4       __pctype_func              00000001800492b4 f   libucrt:ctype.obj
 0001:000482e4       _wcsdup                    00000001800492e4 f   libucrt:wcsdup.obj
 0001:00048368       ___lc_codepage_func        0000000180049368 f   libucrt:initctype.obj
 0001:00048398       ___lc_locale_name_func     0000000180049398 f   libucrt:initctype.obj
 0001:000483cc       ___mb_cur_max_func         00000001800493cc f   libucrt:initctype.obj
 0001:000483fc       __acrt_locale_initialize_ctype 00000001800493fc f   libucrt:initctype.obj
 0001:00048a48       _ismbblead                 0000000180049a48 f   libucrt:ismbbyte.obj
 0001:00048a5c       _malloc_base               0000000180049a5c f   libucrt:malloc_base.obj
 0001:00048abc       _realloc_base              0000000180049abc f   libucrt:realloc_base.obj
 0001:00048b40       ?divide@__crt_strtox@@YA_KAEAUbig_integer@1@AEBU21@@Z 0000000180049b40 f i libucrt:strtod.obj
 0001:000490a0       pow                        000000018004a0a0 f   libucrt:pow.obj
 0001:0004a740       powf                       000000018004b740 f   libucrt:powf.obj
 0001:0004b608       __strncnt                  000000018004c608 f   libucrt:strncnt.obj
 0001:0004b670       _tolower_l                 000000018004c670 f   libucrt:tolower_toupper.obj
 0001:0004b7b0       tolower                    000000018004c7b0 f   libucrt:tolower_toupper.obj
 0001:0004b7dc       wcscpy_s                   000000018004c7dc f   libucrt:wcscpy_s.obj
 0001:0004b844       strnlen                    000000018004c844 f   libucrt:strnlen.obj
 0001:0004b9a0       wcsnlen                    000000018004c9a0 f   libucrt:strnlen.obj
 0001:0004bb90       __acrt_initialize_new_handler 000000018004cb90 f   libucrt:new_handler.obj
 0001:0004bb98       _callnewh                  000000018004cb98 f   libucrt:new_handler.obj
 0001:0004bbd8       _query_new_handler         000000018004cbd8 f   libucrt:new_handler.obj
 0001:0004bc0c       _seh_filter_dll            000000018004cc0c f   libucrt:exception_filter.obj
 0001:0004bc20       _seh_filter_exe            000000018004cc20 f   libucrt:exception_filter.obj
 0001:0004bfe0       __acrt_initialize_thread_local_exit_callback 000000018004cfe0 f   libucrt:exit.obj
 0001:0004bfe8       _cexit                     000000018004cfe8 f   libucrt:exit.obj
 0001:0004bff8       _exit                      000000018004cff8 f   libucrt:exit.obj
 0001:0004c004       _is_c_termination_complete 000000018004d004 f   libucrt:exit.obj
 0001:0004c1c8       __acrt_allocate_buffer_for_argv 000000018004d1c8 f   libucrt:argv_parsing.obj
 0001:0004c22c       _configure_narrow_argv     000000018004d22c f   libucrt:argv_parsing.obj
 0001:0004c588       __dcrt_uninitialize_environments_nolock 000000018004d588 f   libucrt:environment_initialization.obj
 0001:0004c5c0       _initialize_narrow_environment 000000018004d5c0 f   libucrt:environment_initialization.obj
 0001:0004c5c8       ??$?RV<lambda_b8c45f8f788dd370798f47cfe8ac3a86>@@AEAV<lambda_4e60a939b0d047cfe11ddc22648dfba9>@@V<lambda_332c3edc96d0294ec56c57d38c1cdfd5>@@@?$__crt_seh_guarded_call@H@@QEAAH$$QEAV<lambda_b8c45f8f788dd370798f47cfe8ac3a86>@@AEAV<lambda_4e60a939b0d047cfe11ddc22648dfba9>@@$$QEAV<lambda_332c3edc96d0294ec56c57d38c1cdfd5>@@@Z 000000018004d5c8 f i libucrt:onexit.obj
 0001:0004c604       ??$?RV<lambda_e24bbb7b643b32fcea6fa61b31d4c984>@@AEAV<lambda_275893d493268fdec8709772e3fcec0e>@@V<lambda_9d71df4d7cf3f480f8d633942495c3b0>@@@?$__crt_seh_guarded_call@H@@QEAAH$$QEAV<lambda_e24bbb7b643b32fcea6fa61b31d4c984>@@AEAV<lambda_275893d493268fdec8709772e3fcec0e>@@$$QEAV<lambda_9d71df4d7cf3f480f8d633942495c3b0>@@@Z 000000018004d604 f i libucrt:onexit.obj
 0001:0004c980       _crt_atexit                000000018004d980 f   libucrt:onexit.obj
 0001:0004c990       _execute_onexit_table      000000018004d990 f   libucrt:onexit.obj
 0001:0004c9cc       _initialize_onexit_table   000000018004d9cc f   libucrt:onexit.obj
 0001:0004ca0c       _register_onexit_function  000000018004da0c f   libucrt:onexit.obj
 0001:0004ca9c       ?SweepWaitNode@SingleWaitBlock@details@Concurrency@@UEAA_NXZ 000000018004da9c f   libconcrt:event.obj
 0001:0004ca9c       __acrt_uninitialize_command_line 000000018004da9c f   libucrt:argv_data.obj
 0001:0004ca9c       ?do_always_noconv@?$codecvt@DDU_Mbstatet@@@std@@MEBA_NXZ 000000018004da9c f   libcpmt:cout.obj
 0001:0004ca9c       ?AllowGeneralFetchOfReservedContexts@SchedulerBase@details@Concurrency@@MEAA_NXZ 000000018004da9c f   libconcrt:SchedulerBase.obj
 0001:0004cb8c       __acrt_initialize          000000018004db8c f   libucrt:initialization.obj
 0001:0004cba0       __acrt_thread_attach       000000018004dba0 f   libucrt:initialization.obj
 0001:0004cbb4       __acrt_thread_detach       000000018004dbb4 f   libucrt:initialization.obj
 0001:0004cbc4       __acrt_uninitialize        000000018004dbc4 f   libucrt:initialization.obj
 0001:0004cbd8       __acrt_uninitialize_critical 000000018004dbd8 f   libucrt:initialization.obj
 0001:0004cbe8       _initterm                  000000018004dbe8 f   libucrt:initterm.obj
 0001:0004cc60       _initterm_e                000000018004dc60 f   libucrt:initterm.obj
 0001:0004ccac       terminate                  000000018004dcac f   libucrt:terminate.obj
 0001:0004cce0       exp                        000000018004dce0 f   libucrt:exp.obj
 0001:0004d0d8       sqrt                       000000018004e0d8 f   libucrt:sqrt.obj
 0001:0004d1ac       wcsncpy_s                  000000018004e1ac f   libucrt:wcsncpy_s.obj
 0001:0004d290       strcpy_s                   000000018004e290 f   libucrt:strcpy_s.obj
 0001:0004d2f0       _isctype_l                 000000018004e2f0 f   libucrt:isctype.obj
 0001:0004d400       ??$?RV<lambda_46352004c1216016012b18bd6f87e700>@@AEAV<lambda_3bd07e1a1191394380780325891bf33f>@@V<lambda_334532d3f185bcaa59b5be82d7d22bff>@@@?$__crt_seh_guarded_call@X@@QEAAX$$QEAV<lambda_46352004c1216016012b18bd6f87e700>@@AEAV<lambda_3bd07e1a1191394380780325891bf33f>@@$$QEAV<lambda_334532d3f185bcaa59b5be82d7d22bff>@@@Z 000000018004e400 f i libucrt:per_thread_data.obj
 0001:0004d460       ??$?RV<lambda_5e887d1dcbef67a5eb4283622ba103bf>@@AEAV<lambda_4466841279450cc726390878d4a41900>@@V<lambda_341c25c0346d94847f1f3c463c57e077>@@@?$__crt_seh_guarded_call@X@@QEAAX$$QEAV<lambda_5e887d1dcbef67a5eb4283622ba103bf>@@AEAV<lambda_4466841279450cc726390878d4a41900>@@$$QEAV<lambda_341c25c0346d94847f1f3c463c57e077>@@@Z 000000018004e460 f i libucrt:per_thread_data.obj
 0001:0004d4a8       ??$?RV<lambda_72d1df2b273a38828b1ce30cbf4cdab5>@@AEAV<lambda_876a65b173b8412d3a47c70a915b0cf4>@@V<lambda_41932305e351933ebe8f8be3ed8bb5dc>@@@?$__crt_seh_guarded_call@X@@QEAAX$$QEAV<lambda_72d1df2b273a38828b1ce30cbf4cdab5>@@AEAV<lambda_876a65b173b8412d3a47c70a915b0cf4>@@$$QEAV<lambda_41932305e351933ebe8f8be3ed8bb5dc>@@@Z 000000018004e4a8 f i libucrt:per_thread_data.obj
 0001:0004d4e8       ??$?RV<lambda_fb3a7dec4e47f37f22dae91bb15c9095>@@AEAV<lambda_698284760c8add0bfb0756c19673e34b>@@V<lambda_dfb8eca1e75fef3034a8fb18dd509707>@@@?$__crt_seh_guarded_call@X@@QEAAX$$QEAV<lambda_fb3a7dec4e47f37f22dae91bb15c9095>@@AEAV<lambda_698284760c8add0bfb0756c19673e34b>@@$$QEAV<lambda_dfb8eca1e75fef3034a8fb18dd509707>@@@Z 000000018004e4e8 f i libucrt:per_thread_data.obj
 0001:0004d778       __acrt_freeptd             000000018004e778 f   libucrt:per_thread_data.obj
 0001:0004d7bc       __acrt_getptd              000000018004e7bc f   libucrt:per_thread_data.obj
 0001:0004d850       __acrt_getptd_noexit       000000018004e850 f   libucrt:per_thread_data.obj
 0001:0004d8f0       __acrt_initialize_ptd      000000018004e8f0 f   libucrt:per_thread_data.obj
 0001:0004d92c       __acrt_uninitialize_ptd    000000018004e92c f   libucrt:per_thread_data.obj
 0001:0004d950       __acrt_update_locale_info  000000018004e950 f   libucrt:locale_update.obj
 0001:0004d984       __acrt_update_multibyte_info 000000018004e984 f   libucrt:locale_update.obj
 0001:0004d9b8       ??$?RV<lambda_5df02c53a8f32f81fd64e5bbb78039f1>@@AEAV<lambda_2af78c5f5901b1372d98f9ab3177dfa6>@@AEAV<lambda_f51fe5fd7c79a33db34fc9310f277369>@@@?$__crt_seh_guarded_call@X@@QEAAX$$QEAV<lambda_5df02c53a8f32f81fd64e5bbb78039f1>@@AEAV<lambda_2af78c5f5901b1372d98f9ab3177dfa6>@@AEAV<lambda_f51fe5fd7c79a33db34fc9310f277369>@@@Z 000000018004e9b8 f i libucrt:wsetlocale.obj
 0001:0004d9e4       ??$?RV<lambda_d67e8342c384adda8f857579ab50b2ae>@@AEAV<lambda_30712929f77e709619002f448b6a9510>@@V<lambda_4525336fd7e478d965fb7ca7a337cad8>@@@?$__crt_seh_guarded_call@X@@QEAAX$$QEAV<lambda_d67e8342c384adda8f857579ab50b2ae>@@AEAV<lambda_30712929f77e709619002f448b6a9510>@@$$QEAV<lambda_4525336fd7e478d965fb7ca7a337cad8>@@@Z 000000018004e9e4 f i libucrt:wsetlocale.obj
 0001:0004dbb0       __acrt_copy_locale_name    000000018004ebb0 f   libucrt:wsetlocale.obj
 0001:0004dc34       __acrt_set_locale_changed  000000018004ec34 f   libucrt:wsetlocale.obj
 0001:0004dc40       __acrt_uninitialize_locale 000000018004ec40 f   libucrt:wsetlocale.obj
 0001:0004dc88       __lc_lctowcs               000000018004ec88 f   libucrt:wsetlocale.obj
 0001:0004dd2c       __lc_wcstolc               000000018004ed2c f   libucrt:wsetlocale.obj
 0001:0004dfa4       _expandlocale              000000018004efa4 f   libucrt:wsetlocale.obj
 0001:0004e3a0       _wcscats                   000000018004f3a0 f   libucrt:wsetlocale.obj
 0001:0004e408       _wsetlocale                000000018004f408 f   libucrt:wsetlocale.obj
 0001:0004ec54       iswctype                   000000018004fc54 f   libucrt:iswctype.obj
 0001:0004ecc4       ??$?RV<lambda_c36588078e9f5dfd39652860aa6b3aaf>@@AEAV<lambda_ec61778202f4f5fc7e7711acc23c3bca>@@V<lambda_dc9d2797ccde5d239b4a0efae8ebd7db>@@@?$__crt_seh_guarded_call@P6AXH@Z@@QEAAP6AXH@Z$$QEAV<lambda_c36588078e9f5dfd39652860aa6b3aaf>@@AEAV<lambda_ec61778202f4f5fc7e7711acc23c3bca>@@$$QEAV<lambda_dc9d2797ccde5d239b4a0efae8ebd7db>@@@Z 000000018004fcc4 f i libucrt:signal.obj
 0001:0004ed0c       __acrt_get_sigabrt_handler 000000018004fd0c f   libucrt:signal.obj
 0001:0004ed3c       __acrt_initialize_signal_handlers 000000018004fd3c f   libucrt:signal.obj
 0001:0004ed5c       raise                      000000018004fd5c f   libucrt:signal.obj
 0001:0004eff8       _mbtowc_l                  000000018004fff8 f   libucrt:mbtowc.obj
 0001:0004f140       mbtowc                     0000000180050140 f   libucrt:mbtowc.obj
 0001:0004f148       _wctomb_s_l                0000000180050148 f   libucrt:wctomb.obj
 0001:0004f2cc       wctomb_s                   00000001800502cc f   libucrt:wctomb.obj
 0001:0004f2e0       ?__acrt_fp_classify@@YA?AW4__acrt_fp_class@@AEBN@Z 00000001800502e0 f i libucrt:cvt.obj
 0001:0004fd18       __acrt_fp_format           0000000180050d18 f   libucrt:cvt.obj
 0001:0004ff5c       _fileno                    0000000180050f5c f   libucrt:fileno.obj
 0001:0004ff84       _get_printf_count_output   0000000180050f84 f   libucrt:printf_count_output.obj
 0001:0004ff9c       __acrt_stdio_begin_temporary_buffering_nolock 0000000180050f9c f   libucrt:_sftbuf.obj
 0001:0005006c       __acrt_stdio_end_temporary_buffering_nolock 000000018005106c f   libucrt:_sftbuf.obj
 0001:00050290       __acrt_initialize_lowio    0000000180051290 f   libucrt:ioinit.obj
 0001:000502cc       __acrt_uninitialize_lowio  00000001800512cc f   libucrt:ioinit.obj
 0001:0005030c       _dsign                     000000018005130c f   libucrt:nan.obj
 0001:00050324       _errcode                   0000000180051324 f   libucrt:fpexcept.obj
 0001:00050368       _except1                   0000000180051368 f   libucrt:fpexcept.obj
 0001:0005045c       _handle_exc                000000018005145c f   libucrt:fpexcept.obj
 0001:000506c4       _raise_exc                 00000001800516c4 f   libucrt:fpexcept.obj
 0001:000506ec       _raise_exc_ex              00000001800516ec f   libucrt:fpexcept.obj
 0001:000509f4       _raise_excf                00000001800519f4 f   libucrt:fpexcept.obj
 0001:00050a20       _set_errno_from_matherr    0000000180051a20 f   libucrt:fpexcept.obj
 0001:00050a50       _umatherr                  0000000180051a50 f   libucrt:fpexcept.obj
 0001:00050b24       _decomp                    0000000180051b24 f   libucrt:util.obj
 0001:00050c58       _sptype                    0000000180051c58 f   libucrt:util.obj
 0001:00050ccc       _clrfp                     0000000180051ccc f   libucrt:fpctrl.obj
 0001:00050cec       _ctrlfp                    0000000180051cec f   libucrt:fpctrl.obj
 0001:00050d68       _set_statfp                0000000180051d68 f   libucrt:fpctrl.obj
 0001:00050d88       _statfp                    0000000180051d88 f   libucrt:fpctrl.obj
 0001:00050d9c       _query_new_mode            0000000180051d9c f   libucrt:new_mode.obj
 0001:00050da4       __acrt_initialize_heap     0000000180051da4 f   libucrt:heap_handle.obj
 0001:00050dc0       __acrt_uninitialize_heap   0000000180051dc0 f   libucrt:heap_handle.obj
 0001:00050e10       ??$?RV<lambda_630b2aca97f6d20d5b5ea6529ea6b6af>@@AEAV<lambda_af91936f1d075d609f72d9d8cba980af>@@V<lambda_e82fa975f615b5c7c7b0e4d178fdae67>@@@?$__crt_seh_guarded_call@H@@QEAAH$$QEAV<lambda_630b2aca97f6d20d5b5ea6529ea6b6af>@@AEAV<lambda_af91936f1d075d609f72d9d8cba980af>@@$$QEAV<lambda_e82fa975f615b5c7c7b0e4d178fdae67>@@@Z 0000000180051e10 f i libucrt:winapi_thunks.obj
 0001:00051048       __acrt_EnumSystemLocalesEx 0000000180052048 f   libucrt:winapi_thunks.obj
 0001:000510f0       __acrt_FlsAlloc            00000001800520f0 f   libucrt:winapi_thunks.obj
 0001:00051148       __acrt_FlsFree             0000000180052148 f   libucrt:winapi_thunks.obj
 0001:000511a0       __acrt_FlsGetValue         00000001800521a0 f   libucrt:winapi_thunks.obj
 0001:000511f8       __acrt_FlsSetValue         00000001800521f8 f   libucrt:winapi_thunks.obj
 0001:00051260       __acrt_GetLocaleInfoEx     0000000180052260 f   libucrt:winapi_thunks.obj
 0001:000512f8       __acrt_GetUserDefaultLocaleName 00000001800522f8 f   libucrt:winapi_thunks.obj
 0001:0005136c       __acrt_InitializeCriticalSectionEx 000000018005236c f   libucrt:winapi_thunks.obj
 0001:000513e4       __acrt_IsValidLocaleName   00000001800523e4 f   libucrt:winapi_thunks.obj
 0001:0005144c       __acrt_LCIDToLocaleName    000000018005244c f   libucrt:winapi_thunks.obj
 0001:000514d8       __acrt_LCMapStringEx       00000001800524d8 f   libucrt:winapi_thunks.obj
 0001:000515c8       __acrt_LocaleNameToLCID    00000001800525c8 f   libucrt:winapi_thunks.obj
 0001:00051630       __acrt_can_use_vista_locale_apis 0000000180052630 f   libucrt:winapi_thunks.obj
 0001:00051660       __acrt_initialize_winapi_thunks 0000000180052660 f   libucrt:winapi_thunks.obj
 0001:00051698       __acrt_is_packaged_app     0000000180052698 f   libucrt:winapi_thunks.obj
 0001:00051720       __acrt_uninitialize_winapi_thunks 0000000180052720 f   libucrt:winapi_thunks.obj
 0001:00051764       _fcloseall                 0000000180052764 f   libucrt:closeall.obj
 0001:00051818       __acrt_stdio_free_buffer_nolock 0000000180052818 f   libucrt:_freebuf.obj
 0001:00051858       ??$?RV<lambda_bfedae4ebbf01fab1bb6dcc6a9e276e0>@@AEAV<lambda_2fe9b910cf3cbf4a0ab98a02ba45b3ec>@@V<lambda_237c231691f317818eb88cc1d5d642d6>@@@?$__crt_seh_guarded_call@H@@QEAAH$$QEAV<lambda_bfedae4ebbf01fab1bb6dcc6a9e276e0>@@AEAV<lambda_2fe9b910cf3cbf4a0ab98a02ba45b3ec>@@$$QEAV<lambda_237c231691f317818eb88cc1d5d642d6>@@@Z 0000000180052858 f i libucrt:close.obj
 0001:000518cc       _close                     00000001800528cc f   libucrt:close.obj
 0001:00051970       _close_nolock              0000000180052970 f   libucrt:close.obj
 0001:00051a2c       ?__acrt_stdio_free_stream@@YAXV__crt_stdio_stream@@@Z 0000000180052a2c f   libucrt:stream.obj
 0001:00051a70       ??$?RV<lambda_b521505b218e5242e90febf6bfebc422>@@AEAV<lambda_6978c1fb23f02e42e1d9e99668cc68aa>@@V<lambda_314360699dd331753a4119843814e9a7>@@@?$__crt_seh_guarded_call@H@@QEAAH$$QEAV<lambda_b521505b218e5242e90febf6bfebc422>@@AEAV<lambda_6978c1fb23f02e42e1d9e99668cc68aa>@@$$QEAV<lambda_314360699dd331753a4119843814e9a7>@@@Z 0000000180052a70 f i libucrt:commit.obj
 0001:00051afc       _commit                    0000000180052afc f   libucrt:commit.obj
 0001:00052130       _write                     0000000180053130 f   libucrt:write.obj
 0001:0005221c       _write_nolock              000000018005321c f   libucrt:write.obj
 0001:000526a8       __acrt_stdio_refill_and_read_narrow_nolock 00000001800536a8 f   libucrt:_filbuf.obj
 0001:00052b6c       _ftelli64                  0000000180053b6c f   libucrt:ftell.obj
 0001:00052b74       _ftelli64_nolock           0000000180053b74 f   libucrt:ftell.obj
 0001:00052c80       __acrt_stdio_flush_and_write_narrow_nolock 0000000180053c80 f   libucrt:_flsbuf.obj
 0001:00052ef4       _lseeki64                  0000000180053ef4 f   libucrt:lseek.obj
 0001:00052efc       _lseeki64_nolock           0000000180053efc f   libucrt:lseek.obj
 0001:00052f04       __acrt_stdio_allocate_buffer_nolock 0000000180053f04 f   libucrt:_getbuf.obj
 0001:00053144       _mbstowcs_s_l              0000000180054144 f   libucrt:mbstowcs.obj
 0001:00053274       mbstowcs_s                 0000000180054274 f   libucrt:mbstowcs.obj
 0001:000535c8       _wcstombs_s_l              00000001800545c8 f   libucrt:wcstombs.obj
 0001:00053854       __acrt_GetLocaleInfoA      0000000180054854 f   libucrt:getlocaleinfoa.obj
 0001:00053a1c       __acrt_GetStringTypeA      0000000180054a1c f   libucrt:getstringtypea.obj
 0001:00053f2c       __acrt_LCMapStringA        0000000180054f2c f   libucrt:lcmapstringa.obj
 0001:00053fd0       __acrt_initialize_fma3     0000000180054fd0 f   libucrt:fma3_available.obj
 0001:00054040       _pow_special               0000000180055040 f   libucrt:pow_special.obj
 0001:00054164       _powf_special              0000000180055164 f   libucrt:pow_special.obj
 0001:000542f0       _wcsicmp                   00000001800552f0 f   libucrt:wcsicmp.obj
 0001:00054378       _wcsicmp_l                 0000000180055378 f   libucrt:wcsicmp.obj
 0001:00054468       __acrt_initialize_timeset  0000000180055468 f   libucrt:timeset.obj
 0001:00054498       _isleadbyte_l              0000000180055498 f i libucrt:_wctype.obj
 0001:000549b4       ?expand_if_necessary@?$argument_list@D@?A0xca0879c4@@AEAAHXZ 00000001800559b4 f i libucrt:argv_wildcards.obj
 0001:00054a7c       __acrt_expand_narrow_argv_wildcards 0000000180055a7c f   libucrt:argv_wildcards.obj
 0001:00054a84       ??$?RV<lambda_99476a1ad63dd22509b5d3e65b0ffc95>@@AEAV<lambda_ad1ced32f4ac17aa236e5ef05d6b3b7c>@@V<lambda_f7424dd8d45958661754dc4f2697e9c3>@@@?$__crt_seh_guarded_call@X@@QEAAX$$QEAV<lambda_99476a1ad63dd22509b5d3e65b0ffc95>@@AEAV<lambda_ad1ced32f4ac17aa236e5ef05d6b3b7c>@@$$QEAV<lambda_f7424dd8d45958661754dc4f2697e9c3>@@@Z 0000000180055a84 f i libucrt:mbctype.obj
 0001:00055180       __acrt_initialize_multibyte 0000000180056180 f   libucrt:mbctype.obj
 0001:000551a8       __acrt_update_thread_multibyte_data 00000001800561a8 f   libucrt:mbctype.obj
 0001:00055268       _setmbcp_nolock            0000000180056268 f   libucrt:mbctype.obj
 0001:00055510       __acrt_initialize_command_line 0000000180056510 f   libucrt:argv_data.obj
 0001:00055538       __dcrt_get_narrow_environment_from_os 0000000180056538 f   libucrt:get_environment_from_os.obj
 0001:0005563c       _recalloc                  000000018005663c f   libucrt:recalloc.obj
 0001:00055644       _recalloc_base             0000000180056644 f   libucrt:recalloc.obj
 0001:000556dc       __acrt_execute_initializers 00000001800566dc f   libucrt:shared_initialization.obj
 0001:00055770       __acrt_execute_uninitializers 0000000180056770 f   libucrt:shared_initialization.obj
 0001:000557c0       __acrt_has_user_matherr    00000001800567c0 f   libucrt:matherr.obj
 0001:000557e0       __acrt_initialize_user_matherr 00000001800567e0 f   libucrt:matherr.obj
 0001:000557e8       __acrt_invoke_user_matherr 00000001800567e8 f   libucrt:matherr.obj
 0001:00055830       _exp_special               0000000180056830 f   libucrt:exp_special.obj
 0001:000559ec       _handle_error              00000001800569ec f   libucrt:libm_error.obj
 0001:00055b14       _handle_errorf             0000000180056b14 f   libucrt:libm_error.obj
 0001:00055c48       _handle_nan                0000000180056c48 f   libucrt:libm_error.obj
 0001:00055c64       _handle_nanf               0000000180056c64 f   libucrt:libm_error.obj
 0001:00055c74       __acrt_add_locale_ref      0000000180056c74 f   libucrt:locale_refcounting.obj
 0001:00055d00       __acrt_free_locale         0000000180056d00 f   libucrt:locale_refcounting.obj
 0001:00055e78       __acrt_locale_add_lc_time_reference 0000000180056e78 f   libucrt:locale_refcounting.obj
 0001:00055ea0       __acrt_locale_free_lc_time_if_unreferenced 0000000180056ea0 f   libucrt:locale_refcounting.obj
 0001:00055ed8       __acrt_locale_release_lc_time_reference 0000000180056ed8 f   libucrt:locale_refcounting.obj
 0001:00055f00       __acrt_release_locale_ref  0000000180056f00 f   libucrt:locale_refcounting.obj
 0001:00055fa8       __acrt_update_thread_locale_data 0000000180056fa8 f   libucrt:locale_refcounting.obj
 0001:00056018       _updatetlocinfoEx_nolock   0000000180057018 f   libucrt:locale_refcounting.obj
 0001:00056080       __acrt_locale_free_monetary 0000000180057080 f   libucrt:initmon.obj
 0001:0005618c       __acrt_locale_initialize_monetary 000000018005718c f   libucrt:initmon.obj
 0001:000566c4       __acrt_locale_free_numeric 00000001800576c4 f   libucrt:initnum.obj
 0001:00056730       __acrt_locale_initialize_numeric 0000000180057730 f   libucrt:initnum.obj
 0001:00056db4       __acrt_locale_free_time    0000000180057db4 f   libucrt:inittime.obj
 0001:00056ebc       __acrt_locale_initialize_time 0000000180057ebc f   libucrt:inittime.obj
 0001:00056f50       wcscat_s                   0000000180057f50 f   libucrt:wcscat_s.obj
 0001:00056fd0       wcscspn                    0000000180057fd0 f   libucrt:wcscspn.obj
 0001:00057010       wcsncmp                    0000000180058010 f   libucrt:wcsncmp.obj
 0001:0005703c       wcspbrk                    000000018005803c f   libucrt:wcspbrk.obj
 0001:000578e0       __acrt_get_qualified_locale 00000001800588e0 f   libucrt:get_qualified_locale.obj
 0001:000582cc       __acrt_get_qualified_locale_downlevel 00000001800592cc f   libucrt:getqloc_downlevel.obj
 0001:0005855c       __acrt_fp_strflt_to_string 000000018005955c f   libucrt:_fptostr.obj
 0001:0005861c       __acrt_fltout              000000018005961c f   libucrt:cfout.obj
 0001:00059988       _isatty                    000000018005a988 f   libucrt:isatty.obj
 0001:000599e8       __acrt_lowio_create_handle_array 000000018005a9e8 f   libucrt:osfinfo.obj
 0001:00059a80       __acrt_lowio_destroy_handle_array 000000018005aa80 f   libucrt:osfinfo.obj
 0001:00059ad0       __acrt_lowio_ensure_fh_exists 000000018005aad0 f   libucrt:osfinfo.obj
 0001:00059b88       __acrt_lowio_lock_fh       000000018005ab88 f   libucrt:osfinfo.obj
 0001:00059bac       __acrt_lowio_unlock_fh     000000018005abac f   libucrt:osfinfo.obj
 0001:00059bd0       _free_osfhnd               000000018005abd0 f   libucrt:osfinfo.obj
 0001:00059c8c       _get_osfhandle             000000018005ac8c f   libucrt:osfinfo.obj
 0001:00059d20       _get_fpsr                  000000018005ad20 f   libucrt:fpsr.obj
 0001:00059d30       _set_fpsr                  000000018005ad30 f   libucrt:fpsr.obj
 0001:00059d3a       _fclrf                     000000018005ad3a f   libucrt:fpsr.obj
 0001:00059d4e       _frnd                      000000018005ad4e f   libucrt:fpsr.obj
 0001:00059e38       __acrt_DownlevelLCIDToLocaleName 000000018005ae38 f   libucrt:lcidtoname_downlevel.obj
 0001:00059f1c       __acrt_DownlevelLocaleNameToLCID 000000018005af1c f   libucrt:lcidtoname_downlevel.obj
 0001:00059f50       _putwch_nolock             000000018005af50 f   libucrt:putwch.obj
 0001:0005a4dc       _read                      000000018005b4dc f   libucrt:read.obj
 0001:0005a5f4       _read_nolock               000000018005b5f4 f   libucrt:read.obj
 0001:0005aa5c       strncpy_s                  000000018005ba5c f   libucrt:strncpy_s.obj
 0001:0005ab30       _getfpcontrolword          000000018005bb30 f   libucrt:_fenvutils.obj
 0001:0005ab48       _getfpstatusword           000000018005bb48 f   libucrt:_fenvutils.obj
 0001:0005ab5c       _setfpcontrolword          000000018005bb5c f   libucrt:_fenvutils.obj
 0001:0005ab68       _setfpstatusword           000000018005bb68 f   libucrt:_fenvutils.obj
 0001:0005abb8       _towlower_l                000000018005bbb8 f   libucrt:towlower.obj
 0001:0005ad50       qsort                      000000018005bd50 f   libucrt:qsort.obj
 0001:0005b084       strpbrk                    000000018005c084 f   libucrt:strpbrk.obj
 0001:0005b124       _mbsdec                    000000018005c124 f   libucrt:mbsdec.obj
 0001:0005b12c       _mbsdec_l                  000000018005c12c f   libucrt:mbsdec.obj
 0001:0005b1dc       _msize                     000000018005c1dc f   libucrt:msize.obj
 0001:0005b340       _itow_s                    000000018005c340 f   libucrt:xtoa.obj
 0001:0005b360       _wcsnicmp                  000000018005c360 f   libucrt:wcsnicmp.obj
 0001:0005b3fc       _wcsnicmp_l                000000018005c3fc f   libucrt:wcsnicmp.obj
 0001:0005b514       wcscmp                     000000018005c514 f   libucrt:wcscmp.obj
 0001:0005b54c       fegetenv                   000000018005c54c f   libucrt:fegetenv.obj
 0001:0005b56c       fesetenv                   000000018005c56c f   libucrt:fesetenv.obj
 0001:0005b5b8       feholdexcept               000000018005c5b8 f   libucrt:feholdexcept.obj
 0001:0005b608       ceil                       000000018005c608 f   libucrt:ceil.obj
 0001:0005b6d0       log10                      000000018005c6d0 f   libucrt:log10.obj
 0001:0005bc7c       _query_app_type            000000018005cc7c f   libucrt:report_runtime_error.obj
 0001:0005bc84       __dcrt_lowio_initialize_console_output 000000018005cc84 f   libucrt:initcon.obj
 0001:0005bcc0       __dcrt_terminate_console_output 000000018005ccc0 f   libucrt:initcon.obj
 0001:0005bce0       _clearfp                   000000018005cce0 f   libucrt:ieee.obj
 0001:0005bd34       _controlfp                 000000018005cd34 f   libucrt:ieee.obj
 0001:0005bd40       _statusfp                  000000018005cd40 f   libucrt:ieee.obj
 0001:0005c020       __acrt_LCMapStringW        000000018005d020 f   libucrt:lcmapstringw.obj
 0001:0005c0b0       _log10_special             000000018005d0b0 f   libucrt:log_special.obj
 0001:0005c166       IsProcessorFeaturePresent  000000018005d166 f   kernel32:KERNEL32.dll
 0001:0005c16c       RtlUnwindEx                000000018005d16c f   kernel32:KERNEL32.dll
 0001:0005c172       SystemFunction036          000000018005d172 f   advapi32:ADVAPI32.dll
 0001:0005c178       ?DloadAcquireSectionWriteAccess@@YAXXZ 000000018005d178 f i DelayImp:delayhlp.obj
 0001:0005c234       ?DloadGetSRWLockFunctionPointers@@YAEXZ 000000018005d234 f i DelayImp:delayhlp.obj
 0001:0005c2d0       ?DloadMakePermanentImageCommit@@YAXPEAX_K@Z 000000018005d2d0 f i DelayImp:delayhlp.obj
 0001:0005c368       ?DloadObtainSection@@YAPEAXPEAK0@Z 000000018005d368 f i DelayImp:delayhlp.obj
 0001:0005c400       ?DloadProtectSection@@YAXKPEAK@Z 000000018005d400 f i DelayImp:delayhlp.obj
 0001:0005c490       ?DloadReleaseSectionWriteAccess@@YAXXZ 000000018005d490 f i DelayImp:delayhlp.obj
 0001:0005c534       __delayLoadHelper2         000000018005d534 f   DelayImp:delayhlp.obj
 0001:0005c83c       ?GetCurrentThreadId@platform@details@Concurrency@@YAJXZ 000000018005d83c f   libcpmt:ppltasks.obj
 0001:0005c844       ??$_Resetp@V__ExceptionPtr@@@?$shared_ptr@V__ExceptionPtr@@@std@@AEAAXPEAV__ExceptionPtr@@@Z 000000018005d844 f i libcpmt:excptptr.obj
 0001:0005c8a4       ??$_Resetp@V__ExceptionPtr@@P6AXPEAV1@@ZU?$_DebugMallocator@H@@@?$shared_ptr@V__ExceptionPtr@@@std@@AEAAXPEAV__ExceptionPtr@@P6AX0@ZU?$_DebugMallocator@H@@@Z 000000018005d8a4 f i libcpmt:excptptr.obj
 0001:0005c934       ??$reset@V__ExceptionPtr@@@?$shared_ptr@V__ExceptionPtr@@@std@@QEAAXPEAV__ExceptionPtr@@@Z 000000018005d934 f i libcpmt:excptptr.obj
 0001:0005c9d0       ??$reset@V__ExceptionPtr@@P6AXPEAV1@@ZU?$_DebugMallocator@H@@@?$shared_ptr@V__ExceptionPtr@@@std@@QEAAXPEAV__ExceptionPtr@@P6AX0@ZU?$_DebugMallocator@H@@@Z 000000018005d9d0 f i libcpmt:excptptr.obj
 0001:0005ca6c       ??0__ExceptionPtr@@AEAA@PEBUEHExceptionRecord@@_N@Z 000000018005da6c f   libcpmt:excptptr.obj
 0001:0005cbf0       ??1?$shared_ptr@V__ExceptionPtr@@@std@@QEAA@XZ 000000018005dbf0 f i libcpmt:excptptr.obj
 0001:0005cc50       ??1__ExceptionPtr@@QEAA@XZ 000000018005dc50 f   libcpmt:excptptr.obj
 0001:0005cd30       ??_G?$_Ref_count_del_alloc@V__ExceptionPtr@@P6AXPEAV1@@ZU?$_DebugMallocator@H@@@std@@UEAAPEAXI@Z 000000018005dd30 f i libcpmt:excptptr.obj
 0001:0005cd30       ??_E?$_Ref_count_del_alloc@V__ExceptionPtr@@P6AXPEAV1@@ZU?$_DebugMallocator@H@@@std@@UEAAPEAXI@Z 000000018005dd30 f i libcpmt:excptptr.obj
 0001:0005cd5c       ??_G?$shared_ptr@V__ExceptionPtr@@@std@@QEAAPEAXI@Z 000000018005dd5c f i libcpmt:excptptr.obj
 0001:0005cdec       ??_G__ExceptionPtr@@QEAAPEAXI@Z 000000018005ddec f i libcpmt:excptptr.obj
 0001:0005ce20       ?_BadAllocException@__ExceptionPtr@@SA?AV?$shared_ptr@V__ExceptionPtr@@@std@@XZ 000000018005de20 f   libcpmt:excptptr.obj
 0001:0005ce5c       ?_CallCopyCtor@__ExceptionPtr@@AEBAXPEAX0_KQEBU_s_CatchableType@@@Z 000000018005de5c f   libcpmt:excptptr.obj
 0001:0005cf48       ?_CopyException@__ExceptionPtr@@SA?AV?$shared_ptr@V__ExceptionPtr@@@std@@PEBXPEBU_s_ThrowInfo@@_N@Z 000000018005df48 f   libcpmt:excptptr.obj
 0001:0005d0e0       ?_CurrentException@__ExceptionPtr@@SA?AV?$shared_ptr@V__ExceptionPtr@@@std@@XZ 000000018005e0e0 f   libcpmt:excptptr.obj
 0001:0005d1bc       ?_DeleteExceptionPtr@@YAXQEAV__ExceptionPtr@@@Z 000000018005e1bc f   libcpmt:excptptr.obj
 0001:0005d1d8       ?_Delete_this@?$_Ref_count@V__ExceptionPtr@@@std@@EEAAXXZ 000000018005e1d8 f i libcpmt:excptptr.obj
 0001:0005d210       ?_Delete_this@?$_Ref_count_del_alloc@V__ExceptionPtr@@P6AXPEAV1@@ZU?$_DebugMallocator@H@@@std@@EEAAXXZ 000000018005e210 f i libcpmt:excptptr.obj
 0001:0005d248       ?_Destroy@?$_Ref_count@V__ExceptionPtr@@@std@@EEAAXXZ 000000018005e248 f i libcpmt:excptptr.obj
 0001:0005d274       ?_Destroy@?$_Ref_count_del_alloc@V__ExceptionPtr@@P6AXPEAV1@@ZU?$_DebugMallocator@H@@@std@@EEAAXXZ 000000018005e274 f i libcpmt:excptptr.obj
 0001:0005d2ac       ?_Get_deleter@?$_Ref_count_del_alloc@V__ExceptionPtr@@P6AXPEAV1@@ZU?$_DebugMallocator@H@@@std@@UEBAPEAXAEBVtype_info@@@Z 000000018005e2ac f i libcpmt:excptptr.obj
 0001:0005d2d8       ?_InitBadAllocException@__ExceptionPtr@@CA?AV?$shared_ptr@V__ExceptionPtr@@@std@@XZ 000000018005e2d8 f   libcpmt:excptptr.obj
 0001:0005d340       ?_Reset0@?$_Ptr_base@V__ExceptionPtr@@@std@@QEAAXPEAV__ExceptionPtr@@PEAV_Ref_count_base@2@@Z 000000018005e340 f i libcpmt:excptptr.obj
 0001:0005d3d0       ?_RethrowException@__ExceptionPtr@@QEBAXXZ 000000018005e3d0 f   libcpmt:excptptr.obj
 0001:0005d59c       ?__ExceptionPtrCopy@@YAXPEAXPEBX@Z 000000018005e59c f   libcpmt:excptptr.obj
 0001:0005d5cc       ?__ExceptionPtrCreate@@YAXPEAX@Z 000000018005e5cc f   libcpmt:excptptr.obj
 0001:0005d5dc       ?__ExceptionPtrCurrentException@@YAXPEAX@Z 000000018005e5dc f   libcpmt:excptptr.obj
 0001:0005d660       ?__ExceptionPtrDestroy@@YAXPEAX@Z 000000018005e660 f   libcpmt:excptptr.obj
 0001:0005d668       ?__ExceptionPtrRethrow@@YAXPEBX@Z 000000018005e668 f   libcpmt:excptptr.obj
 0001:0005d67c       ?create_stl_condition_variable@details@Concurrency@@YAXPEAVstl_condition_variable_interface@12@@Z 000000018005e67c f i libcpmt:cond.obj
 0001:0005d710       ?destroy@stl_condition_variable_concrt@details@Concurrency@@UEAAXXZ 000000018005e710 f i libcpmt:cond.obj
 0001:0005d804       ?notify_all@stl_condition_variable_concrt@details@Concurrency@@UEAAXXZ 000000018005e804 f i libcpmt:cond.obj
 0001:0005d810       ?notify_all@stl_condition_variable_win7@details@Concurrency@@UEAAXXZ 000000018005e810 f i libcpmt:cond.obj
 0001:0005d810       ?notify_all@stl_condition_variable_vista@details@Concurrency@@UEAAXXZ 000000018005e810 f i libcpmt:cond.obj
 0001:0005d81c       ?notify_one@stl_condition_variable_concrt@details@Concurrency@@UEAAXXZ 000000018005e81c f i libcpmt:cond.obj
 0001:0005d828       ?notify_one@stl_condition_variable_vista@details@Concurrency@@UEAAXXZ 000000018005e828 f i libcpmt:cond.obj
 0001:0005d828       ?notify_one@stl_condition_variable_win7@details@Concurrency@@UEAAXXZ 000000018005e828 f i libcpmt:cond.obj
 0001:0005d834       ?wait@stl_condition_variable_concrt@details@Concurrency@@UEAAXPEAVstl_critical_section_interface@23@@Z 000000018005e834 f i libcpmt:cond.obj
 0001:0005d844       ?wait@stl_condition_variable_vista@details@Concurrency@@UEAAXPEAVstl_critical_section_interface@23@@Z 000000018005e844 f i libcpmt:cond.obj
 0001:0005d868       ?wait@stl_condition_variable_win7@details@Concurrency@@UEAAXPEAVstl_critical_section_interface@23@@Z 000000018005e868 f i libcpmt:cond.obj
 0001:0005d890       ?wait_for@stl_condition_variable_concrt@details@Concurrency@@UEAA_NPEAVstl_critical_section_interface@23@I@Z 000000018005e890 f i libcpmt:cond.obj
 0001:0005d8a0       ?wait_for@stl_condition_variable_vista@details@Concurrency@@UEAA_NPEAVstl_critical_section_interface@23@I@Z 000000018005e8a0 f i libcpmt:cond.obj
 0001:0005d8bc       ?wait_for@stl_condition_variable_win7@details@Concurrency@@UEAA_NPEAVstl_critical_section_interface@23@I@Z 000000018005e8bc f i libcpmt:cond.obj
 0001:0005d8dc       _Cnd_broadcast             000000018005e8dc f   libcpmt:cond.obj
 0001:0005d90c       _Cnd_destroy_in_situ       000000018005e90c f   libcpmt:cond.obj
 0001:0005d93c       _Cnd_init_in_situ          000000018005e93c f   libcpmt:cond.obj
 0001:0005d944       _Cnd_wait                  000000018005e944 f   libcpmt:cond.obj
 0001:0005d94c       ??_L@YAXPEAX_K1P6AX0@Z2@Z  000000018005e94c f   LIBCMT:ehvecctr.obj
 0001:0005d9c0       _FindPESection             000000018005e9c0 f   LIBCMT:pesect.obj
 0001:0005da10       _IsNonwritableInCurrentImage 000000018005ea10 f   LIBCMT:pesect.obj
 0001:0005da60       _ValidateImageBase         000000018005ea60 f   LIBCMT:pesect.obj
 0001:0005da90       strrchr                    000000018005ea90 f   libvcruntime:strrchr.obj
 0001:0005dbd4       wcschr                     000000018005ebd4 f   libvcruntime:wcschr.obj
 0001:0005dc70       _guard_dispatch_icall_nop  000000018005ec70 f   LIBCMT:_guard_dispatch_.obj
 0001:0005ee60       ??__F_Static@?1???$_Immortalize@V_Iostream_error_category@std@@@std@@YAAEAV_Iostream_error_category@0@XZ@YAXXZ 000000018005fe60 f i addon.obj
 0001:0005ee64       ??__F_Static@?1???$_Immortalize@V_Generic_error_category@std@@@std@@YAAEAV_Generic_error_category@0@XZ@YAXXZ 000000018005fe64 f i libcpmt:thread0.obj
 0002:00000000       __imp_SystemFunction036    0000000180061000     advapi32:ADVAPI32.dll
 0002:00000008       \177ADVAPI32_NULL_THUNK_DATA 0000000180061008     advapi32:ADVAPI32.dll
 0002:00000010       __imp_LoadLibraryExA       0000000180061010     kernel32:KERNEL32.dll
 0002:00000018       __imp_VirtualQuery         0000000180061018     kernel32:KERNEL32.dll
 0002:00000020       __imp_GetSystemInfo        0000000180061020     kernel32:KERNEL32.dll
 0002:00000028       __imp_GetModuleHandleA     0000000180061028     kernel32:KERNEL32.dll
 0002:00000030       __imp_GetCurrentProcessId  0000000180061030     kernel32:KERNEL32.dll
 0002:00000038       __imp_GetCurrentThreadId   0000000180061038     kernel32:KERNEL32.dll
 0002:00000040       __imp_CreateFileW          0000000180061040     kernel32:KERNEL32.dll
 0002:00000048       __imp_HeapSize             0000000180061048     kernel32:KERNEL32.dll
 0002:00000050       __imp_ReadConsoleW         0000000180061050     kernel32:KERNEL32.dll
 0002:00000058       __imp_WriteConsoleW        0000000180061058     kernel32:KERNEL32.dll
 0002:00000060       __imp_SetStdHandle         0000000180061060     kernel32:KERNEL32.dll
 0002:00000068       __imp_FreeEnvironmentStringsW 0000000180061068     kernel32:KERNEL32.dll
 0002:00000070       __imp_GetEnvironmentStringsW 0000000180061070     kernel32:KERNEL32.dll
 0002:00000078       __imp_GetCommandLineW      0000000180061078     kernel32:KERNEL32.dll
 0002:00000080       __imp_GetCommandLineA      0000000180061080     kernel32:KERNEL32.dll
 0002:00000088       __imp_GetOEMCP             0000000180061088     kernel32:KERNEL32.dll
 0002:00000090       __imp_IsValidCodePage      0000000180061090     kernel32:KERNEL32.dll
 0002:00000098       __imp_FindNextFileA        0000000180061098     kernel32:KERNEL32.dll
 0002:000000a0       __imp_EnterCriticalSection 00000001800610a0     kernel32:KERNEL32.dll
 0002:000000a8       __imp_LeaveCriticalSection 00000001800610a8     kernel32:KERNEL32.dll
 0002:000000b0       __imp_TryEnterCriticalSection 00000001800610b0     kernel32:KERNEL32.dll
 0002:000000b8       __imp_DeleteCriticalSection 00000001800610b8     kernel32:KERNEL32.dll
 0002:000000c0       __imp_WideCharToMultiByte  00000001800610c0     kernel32:KERNEL32.dll
 0002:000000c8       __imp_QueryPerformanceCounter 00000001800610c8     kernel32:KERNEL32.dll
 0002:000000d0       __imp_SetLastError         00000001800610d0     kernel32:KERNEL32.dll
 0002:000000d8       __imp_InitializeCriticalSectionAndSpinCount 00000001800610d8     kernel32:KERNEL32.dll
 0002:000000e0       __imp_CreateEventW         00000001800610e0     kernel32:KERNEL32.dll
 0002:000000e8       __imp_Sleep                00000001800610e8     kernel32:KERNEL32.dll
 0002:000000f0       __imp_TlsAlloc             00000001800610f0     kernel32:KERNEL32.dll
 0002:000000f8       __imp_TlsGetValue          00000001800610f8     kernel32:KERNEL32.dll
 0002:00000100       __imp_TlsSetValue          0000000180061100     kernel32:KERNEL32.dll
 0002:00000108       __imp_TlsFree              0000000180061108     kernel32:KERNEL32.dll
 0002:00000110       __imp_GetSystemTimeAsFileTime 0000000180061110     kernel32:KERNEL32.dll
 0002:00000118       __imp_GetTickCount         0000000180061118     kernel32:KERNEL32.dll
 0002:00000120       __imp_GetModuleHandleW     0000000180061120     kernel32:KERNEL32.dll
 0002:00000128       __imp_GetProcAddress       0000000180061128     kernel32:KERNEL32.dll
 0002:00000130       __imp_EncodePointer        0000000180061130     kernel32:KERNEL32.dll
 0002:00000138       __imp_DecodePointer        0000000180061138     kernel32:KERNEL32.dll
 0002:00000140       __imp_MultiByteToWideChar  0000000180061140     kernel32:KERNEL32.dll
 0002:00000148       __imp_LCMapStringW         0000000180061148     kernel32:KERNEL32.dll
 0002:00000150       __imp_GetLocaleInfoW       0000000180061150     kernel32:KERNEL32.dll
 0002:00000158       __imp_GetStringTypeW       0000000180061158     kernel32:KERNEL32.dll
 0002:00000160       __imp_GetCPInfo            0000000180061160     kernel32:KERNEL32.dll
 0002:00000168       __imp_CloseHandle          0000000180061168     kernel32:KERNEL32.dll
 0002:00000170       __imp_SetEvent             0000000180061170     kernel32:KERNEL32.dll
 0002:00000178       __imp_ResetEvent           0000000180061178     kernel32:KERNEL32.dll
 0002:00000180       __imp_WaitForSingleObjectEx 0000000180061180     kernel32:KERNEL32.dll
 0002:00000188       __imp_RtlCaptureContext    0000000180061188     kernel32:KERNEL32.dll
 0002:00000190       __imp_RtlLookupFunctionEntry 0000000180061190     kernel32:KERNEL32.dll
 0002:00000198       __imp_RtlVirtualUnwind     0000000180061198     kernel32:KERNEL32.dll
 0002:000001a0       __imp_UnhandledExceptionFilter 00000001800611a0     kernel32:KERNEL32.dll
 0002:000001a8       __imp_SetUnhandledExceptionFilter 00000001800611a8     kernel32:KERNEL32.dll
 0002:000001b0       __imp_GetCurrentProcess    00000001800611b0     kernel32:KERNEL32.dll
 0002:000001b8       __imp_TerminateProcess     00000001800611b8     kernel32:KERNEL32.dll
 0002:000001c0       __imp_IsProcessorFeaturePresent 00000001800611c0     kernel32:KERNEL32.dll
 0002:000001c8       __imp_IsDebuggerPresent    00000001800611c8     kernel32:KERNEL32.dll
 0002:000001d0       __imp_GetStartupInfoW      00000001800611d0     kernel32:KERNEL32.dll
 0002:000001d8       __imp_InitializeSListHead  00000001800611d8     kernel32:KERNEL32.dll
 0002:000001e0       __imp_GetLastError         00000001800611e0     kernel32:KERNEL32.dll
 0002:000001e8       __imp_SignalObjectAndWait  00000001800611e8     kernel32:KERNEL32.dll
 0002:000001f0       __imp_SwitchToThread       00000001800611f0     kernel32:KERNEL32.dll
 0002:000001f8       __imp_CreateThread         00000001800611f8     kernel32:KERNEL32.dll
 0002:00000200       __imp_SetThreadPriority    0000000180061200     kernel32:KERNEL32.dll
 0002:00000208       __imp_GetThreadPriority    0000000180061208     kernel32:KERNEL32.dll
 0002:00000210       __imp_GetLogicalProcessorInformation 0000000180061210     kernel32:KERNEL32.dll
 0002:00000218       __imp_CreateTimerQueueTimer 0000000180061218     kernel32:KERNEL32.dll
 0002:00000220       __imp_ChangeTimerQueueTimer 0000000180061220     kernel32:KERNEL32.dll
 0002:00000228       __imp_DeleteTimerQueueTimer 0000000180061228     kernel32:KERNEL32.dll
 0002:00000230       __imp_GetNumaHighestNodeNumber 0000000180061230     kernel32:KERNEL32.dll
 0002:00000238       __imp_GetProcessAffinityMask 0000000180061238     kernel32:KERNEL32.dll
 0002:00000240       __imp_SetThreadAffinityMask 0000000180061240     kernel32:KERNEL32.dll
 0002:00000248       __imp_RegisterWaitForSingleObject 0000000180061248     kernel32:KERNEL32.dll
 0002:00000250       __imp_UnregisterWait       0000000180061250     kernel32:KERNEL32.dll
 0002:00000258       __imp_GetCurrentThread     0000000180061258     kernel32:KERNEL32.dll
 0002:00000260       __imp_GetThreadTimes       0000000180061260     kernel32:KERNEL32.dll
 0002:00000268       __imp_FreeLibrary          0000000180061268     kernel32:KERNEL32.dll
 0002:00000270       __imp_FreeLibraryAndExitThread 0000000180061270     kernel32:KERNEL32.dll
 0002:00000278       __imp_GetModuleFileNameW   0000000180061278     kernel32:KERNEL32.dll
 0002:00000280       __imp_LoadLibraryExW       0000000180061280     kernel32:KERNEL32.dll
 0002:00000288       __imp_GetVersionExW        0000000180061288     kernel32:KERNEL32.dll
 0002:00000290       __imp_VirtualAlloc         0000000180061290     kernel32:KERNEL32.dll
 0002:00000298       __imp_VirtualFree          0000000180061298     kernel32:KERNEL32.dll
 0002:000002a0       __imp_VirtualProtect       00000001800612a0     kernel32:KERNEL32.dll
 0002:000002a8       __imp_DuplicateHandle      00000001800612a8     kernel32:KERNEL32.dll
 0002:000002b0       __imp_ReleaseSemaphore     00000001800612b0     kernel32:KERNEL32.dll
 0002:000002b8       __imp_InterlockedPopEntrySList 00000001800612b8     kernel32:KERNEL32.dll
 0002:000002c0       __imp_InterlockedPushEntrySList 00000001800612c0     kernel32:KERNEL32.dll
 0002:000002c8       __imp_InterlockedFlushSList 00000001800612c8     kernel32:KERNEL32.dll
 0002:000002d0       __imp_QueryDepthSList      00000001800612d0     kernel32:KERNEL32.dll
 0002:000002d8       __imp_UnregisterWaitEx     00000001800612d8     kernel32:KERNEL32.dll
 0002:000002e0       __imp_CreateTimerQueue     00000001800612e0     kernel32:KERNEL32.dll
 0002:000002e8       __imp_LoadLibraryW         00000001800612e8     kernel32:KERNEL32.dll
 0002:000002f0       __imp_RtlPcToFileHeader    00000001800612f0     kernel32:KERNEL32.dll
 0002:000002f8       __imp_RaiseException       00000001800612f8     kernel32:KERNEL32.dll
 0002:00000300       __imp_RtlUnwindEx          0000000180061300     kernel32:KERNEL32.dll
 0002:00000308       __imp_HeapAlloc            0000000180061308     kernel32:KERNEL32.dll
 0002:00000310       __imp_HeapFree             0000000180061310     kernel32:KERNEL32.dll
 0002:00000318       __imp_HeapReAlloc          0000000180061318     kernel32:KERNEL32.dll
 0002:00000320       __imp_ExitProcess          0000000180061320     kernel32:KERNEL32.dll
 0002:00000328       __imp_GetModuleHandleExW   0000000180061328     kernel32:KERNEL32.dll
 0002:00000330       __imp_GetModuleFileNameA   0000000180061330     kernel32:KERNEL32.dll
 0002:00000338       __imp_GetACP               0000000180061338     kernel32:KERNEL32.dll
 0002:00000340       __imp_GetStdHandle         0000000180061340     kernel32:KERNEL32.dll
 0002:00000348       __imp_GetFileType          0000000180061348     kernel32:KERNEL32.dll
 0002:00000350       __imp_GetProcessHeap       0000000180061350     kernel32:KERNEL32.dll
 0002:00000358       __imp_IsValidLocale        0000000180061358     kernel32:KERNEL32.dll
 0002:00000360       __imp_GetUserDefaultLCID   0000000180061360     kernel32:KERNEL32.dll
 0002:00000368       __imp_EnumSystemLocalesW   0000000180061368     kernel32:KERNEL32.dll
 0002:00000370       __imp_FlushFileBuffers     0000000180061370     kernel32:KERNEL32.dll
 0002:00000378       __imp_WriteFile            0000000180061378     kernel32:KERNEL32.dll
 0002:00000380       __imp_GetConsoleCP         0000000180061380     kernel32:KERNEL32.dll
 0002:00000388       __imp_GetConsoleMode       0000000180061388     kernel32:KERNEL32.dll
 0002:00000390       __imp_ReadFile             0000000180061390     kernel32:KERNEL32.dll
 0002:00000398       __imp_SetFilePointerEx     0000000180061398     kernel32:KERNEL32.dll
 0002:000003a0       __imp_FindClose            00000001800613a0     kernel32:KERNEL32.dll
 0002:000003a8       __imp_FindFirstFileExA     00000001800613a8     kernel32:KERNEL32.dll
 0002:000003b0       \177KERNEL32_NULL_THUNK_DATA 00000001800613b0     kernel32:KERNEL32.dll
 0002:000003b8       __imp_WSADuplicateSocketW  00000001800613b8     ws2_32:WS2_32.dll
 0002:000003c0       __imp_WSASocketW           00000001800613c0     ws2_32:WS2_32.dll
 0002:000003c8       __imp_getpeername          00000001800613c8     ws2_32:WS2_32.dll
 0002:000003d0       __imp_inet_ntop            00000001800613d0     ws2_32:WS2_32.dll
 0002:000003d8       __imp_ntohs                00000001800613d8     ws2_32:WS2_32.dll
 0002:000003e0       __imp_htons                00000001800613e0     ws2_32:WS2_32.dll
 0002:000003e8       __imp_accept               00000001800613e8     ws2_32:WS2_32.dll
 0002:000003f0       __imp_bind                 00000001800613f0     ws2_32:WS2_32.dll
 0002:000003f8       __imp_listen               00000001800613f8     ws2_32:WS2_32.dll
 0002:00000400       __imp_getaddrinfo          0000000180061400     ws2_32:WS2_32.dll
 0002:00000408       __imp_socket               0000000180061408     ws2_32:WS2_32.dll
 0002:00000410       __imp_connect              0000000180061410     ws2_32:WS2_32.dll
 0002:00000418       __imp_recv                 0000000180061418     ws2_32:WS2_32.dll
 0002:00000420       __imp_freeaddrinfo         0000000180061420     ws2_32:WS2_32.dll
 0002:00000428       __imp_WSACleanup           0000000180061428     ws2_32:WS2_32.dll
 0002:00000430       __imp_WSAStartup           0000000180061430     ws2_32:WS2_32.dll
 0002:00000438       __imp_closesocket          0000000180061438     ws2_32:WS2_32.dll
 0002:00000440       __imp_shutdown             0000000180061440     ws2_32:WS2_32.dll
 0002:00000448       __imp_send                 0000000180061448     ws2_32:WS2_32.dll
 0002:00000450       __imp_setsockopt           0000000180061450     ws2_32:WS2_32.dll
 0002:00000458       __imp_WSAGetLastError      0000000180061458     ws2_32:WS2_32.dll
 0002:00000460       \177WS2_32_NULL_THUNK_DATA 0000000180061460     ws2_32:WS2_32.dll
 0002:00000468       __guard_check_icall_fptr   0000000180061468     LIBCMT:guard_support.obj
 0002:00000470       __guard_dispatch_icall_fptr 0000000180061470     LIBCMT:guard_support.obj
 0002:00000478       __xc_a                     0000000180061478     LIBCMT:initializers.obj
 0002:00000510       _register_uws_             0000000180061510     addon.obj
 0002:00000550       __xc_z                     0000000180061550     LIBCMT:initializers.obj
 0002:00000558       __xi_a                     0000000180061558     LIBCMT:initializers.obj
 0002:00000570       __acrt_stdio_initializer   0000000180061570     libucrt:stdio_initializer.obj
 0002:00000578       __acrt_tran_fma3_initializer 0000000180061578     libucrt:fma3_initializer.obj
 0002:00000580       __acrt_timeset_initializer 0000000180061580     libucrt:timeset_initializer.obj
 0002:00000588       __acrt_multibyte_initializer 0000000180061588     libucrt:multibyte_initializer.obj
 0002:00000590       __xi_z                     0000000180061590     LIBCMT:initializers.obj
 0002:00000598       __xl_a                     0000000180061598     LIBCMT:tlssup.obj
 0002:000005a0       __xl_z                     00000001800615a0     LIBCMT:tlssup.obj
 0002:000005a8       __xp_a                     00000001800615a8     LIBCMT:initializers.obj
 0002:000005b8       __acrt_locale_terminator   00000001800615b8     libucrt:locale_initializer.obj
 0002:000005c0       __dcrt_console_output_terminator 00000001800615c0     libucrt:console_output_initializer.obj
 0002:000005c8       __acrt_stdio_terminator    00000001800615c8     libucrt:stdio_initializer.obj
 0002:000005d0       __xp_z                     00000001800615d0     LIBCMT:initializers.obj
 0002:000005d8       __xt_a                     00000001800615d8     LIBCMT:initializers.obj
 0002:000005e0       __xt_z                     00000001800615e0     LIBCMT:initializers.obj
 0002:000005f0       __sz_node_exe              00000001800615f0     node:node.exe
 0002:00000608       ??_7exception@std@@6B@     0000000180061608     libcpmt:xthrow.obj
 0002:00000618       ??_C@_0BC@EOODALEL@Unknown?5exception?$AA@ 0000000180061618     libcpmt:xthrow.obj
 0002:00000638       ??_7bad_alloc@std@@6B@     0000000180061638     libcpmt:xthrow.obj
 0002:00000648       ??_C@_0P@GHFPNOJB@bad?5allocation?$AA@ 0000000180061648     libcpmt:xthrow.obj
 0002:00000660       ??_7logic_error@std@@6B@   0000000180061660     libcpmt:xthrow.obj
 0002:00000678       ??_7invalid_argument@std@@6B@ 0000000180061678     libcpmt:xthrow.obj
 0002:00000690       ??_7length_error@std@@6B@  0000000180061690     libcpmt:xthrow.obj
 0002:000006a8       ??_7out_of_range@std@@6B@  00000001800616a8     libcpmt:xthrow.obj
 0002:000006c0       ??_7runtime_error@std@@6B@ 00000001800616c0     libcpmt:xthrow.obj
 0002:000006d8       ??_7bad_function_call@std@@6B@ 00000001800616d8     libcpmt:xthrow.obj
 0002:000006e8       ??_C@_0BC@DPJNKNAF@bad?5function?5call?$AA@ 00000001800616e8     libcpmt:xthrow.obj
 0002:00000758       ??_C@_0BI@NGCEHDD@device?5or?5resource?5busy?$AA@ 0000000180061758     libcpmt:thread0.obj
 0002:00000770       ??_C@_0BB@FCMFBGOM@invalid?5argument?$AA@ 0000000180061770     libcpmt:thread0.obj
 0002:00000788       ??_C@_0BA@ENLPPKBN@no?5such?5process?$AA@ 0000000180061788     libcpmt:thread0.obj
 0002:00000798       ??_C@_0BC@ENOOLCNF@not?5enough?5memory?$AA@ 0000000180061798     libcpmt:thread0.obj
 0002:000007b0       ??_C@_0BI@OHIEJAAB@operation?5not?5permitted?$AA@ 00000001800617b0     libcpmt:thread0.obj
 0002:000007c8       ??_C@_0BO@BJBOMOEJ@resource?5deadlock?5would?5occur?$AA@ 00000001800617c8     libcpmt:thread0.obj
 0002:000007e8       ??_C@_0BP@LKNGHENJ@resource?5unavailable?5try?5again?$AA@ 00000001800617e8     libcpmt:thread0.obj
 0002:00000838       ??_7error_category@std@@6B@ 0000000180061838     libcpmt:thread0.obj
 0002:00000870       ??_7_System_error@std@@6B@ 0000000180061870     libcpmt:thread0.obj
 0002:00000888       ??_7system_error@std@@6B@  0000000180061888     libcpmt:thread0.obj
 0002:000008a0       ??_7_Generic_error_category@std@@6B@ 00000001800618a0     libcpmt:thread0.obj
 0002:00000900       ??_7stl_critical_section_vista@details@Concurrency@@6B@ 0000000180061900     libcpmt:mutex.obj
 0002:00000930       ??_7stl_critical_section_win7@details@Concurrency@@6B@ 0000000180061930     libcpmt:mutex.obj
 0002:00000960       ??_7stl_critical_section_concrt@details@Concurrency@@6B@ 0000000180061960     libcpmt:mutex.obj
 0002:00000be8       ??_7bad_cast@std@@6B@      0000000180061be8     libcpmt:cout.obj
 0002:00000bf8       ??_C@_08EPJLHIJG@bad?5cast?$AA@ 0000000180061bf8     libcpmt:cout.obj
 0002:00000c10       ??_7_Facet_base@std@@6B@   0000000180061c10     libcpmt:cout.obj
 0002:00000c30       ??_7?$ctype@D@std@@6B@     0000000180061c30     libcpmt:cout.obj
 0002:00000c90       ??_7_Iostream_error_category@std@@6B@ 0000000180061c90     libcpmt:cout.obj
 0002:00000cc8       ??_7failure@ios_base@std@@6B@ 0000000180061cc8     libcpmt:cout.obj
 0002:00000ce0       ??_7ios_base@std@@6B@      0000000180061ce0     libcpmt:cout.obj
 0002:00000cf0       ??_7?$basic_streambuf@DU?$char_traits@D@std@@@std@@6B@ 0000000180061cf0     libcpmt:cout.obj
 0002:00000d70       ??_7?$basic_filebuf@DU?$char_traits@D@std@@@std@@6B@ 0000000180061d70     libcpmt:cout.obj
 0002:00000df0       ??_7?$basic_ios@DU?$char_traits@D@std@@@std@@6B@ 0000000180061df0     libcpmt:cout.obj
 0002:00000e00       ??_7?$basic_ostream@DU?$char_traits@D@std@@@std@@6B@ 0000000180061e00     libcpmt:cout.obj
 0002:00000e08       ??_8?$basic_ostream@DU?$char_traits@D@std@@@std@@7B@ 0000000180061e08     libcpmt:cout.obj
 0002:00000e18       ??_7?$codecvt@DDU_Mbstatet@@@std@@6B@ 0000000180061e18     libcpmt:cout.obj
 0002:00000f38       ??_7_Locimp@locale@std@@6B@ 0000000180061f38     libcpmt:locale0.obj
 0002:00000f50       ??_C@_01NBENCBCI@?$CK?$AA@ 0000000180061f50     libcpmt:locale0.obj
 0002:00000f54       ??_C@_01GFHCPBMG@C?$AA@    0000000180061f54     libcpmt:locale0.obj
 0002:000016b0       ??_C@_0BN@LKKBCCDB@address?5family?5not?5supported?$AA@ 00000001800626b0     libcpmt:syserror.obj
 0002:000016d0       ??_C@_0P@LDMLAFHI@address?5in?5use?$AA@ 00000001800626d0     libcpmt:syserror.obj
 0002:000016e0       ??_C@_0BG@DHPCNBJB@address?5not?5available?$AA@ 00000001800626e0     libcpmt:syserror.obj
 0002:000016f8       ??_C@_0BC@DFIBIBIL@already?5connected?$AA@ 00000001800626f8     libcpmt:syserror.obj
 0002:00001710       ??_C@_0BH@CAKOHOMI@argument?5list?5too?5long?$AA@ 0000000180062710     libcpmt:syserror.obj
 0002:00001728       ??_C@_0BH@CGIMPKIM@argument?5out?5of?5domain?$AA@ 0000000180062728     libcpmt:syserror.obj
 0002:00001740       ??_C@_0M@KGHGGJGL@bad?5address?$AA@ 0000000180062740     libcpmt:syserror.obj
 0002:00001750       ??_C@_0BE@MPJPGCEO@bad?5file?5descriptor?$AA@ 0000000180062750     libcpmt:syserror.obj
 0002:00001768       ??_C@_0M@PMMIEFCP@bad?5message?$AA@ 0000000180062768     libcpmt:syserror.obj
 0002:00001778       ??_C@_0M@KPHOFDBE@broken?5pipe?$AA@ 0000000180062778     libcpmt:syserror.obj
 0002:00001788       ??_C@_0BD@MGNDDEGM@connection?5aborted?$AA@ 0000000180062788     libcpmt:syserror.obj
 0002:000017a0       ??_C@_0BP@KAIHPOGN@connection?5already?5in?5progress?$AA@ 00000001800627a0     libcpmt:syserror.obj
 0002:000017c0       ??_C@_0BD@PJLIIJEL@connection?5refused?$AA@ 00000001800627c0     libcpmt:syserror.obj
 0002:000017d8       ??_C@_0BB@IECNJNOI@connection?5reset?$AA@ 00000001800627d8     libcpmt:syserror.obj
 0002:000017f0       ??_C@_0BC@PPHBOELF@cross?5device?5link?$AA@ 00000001800627f0     libcpmt:syserror.obj
 0002:00001808       ??_C@_0BN@KDMIFEIP@destination?5address?5required?$AA@ 0000000180062808     libcpmt:syserror.obj
 0002:00001828       ??_C@_0BE@JIDOCPHM@directory?5not?5empty?$AA@ 0000000180062828     libcpmt:syserror.obj
 0002:00001840       ??_C@_0BI@BNCLIGPB@executable?5format?5error?$AA@ 0000000180062840     libcpmt:syserror.obj
 0002:00001858       ??_C@_0M@MIDIAGJP@file?5exists?$AA@ 0000000180062858     libcpmt:syserror.obj
 0002:00001868       ??_C@_0P@DNAJLBJK@file?5too?5large?$AA@ 0000000180062868     libcpmt:syserror.obj
 0002:00001878       ??_C@_0BC@EJHOMAAK@filename?5too?5long?$AA@ 0000000180062878     libcpmt:syserror.obj
 0002:00001890       ??_C@_0BH@KEFGLDAF@function?5not?5supported?$AA@ 0000000180062890     libcpmt:syserror.obj
 0002:000018a8       ??_C@_0BB@DHFDFGDM@host?5unreachable?$AA@ 00000001800628a8     libcpmt:syserror.obj
 0002:000018c0       ??_C@_0BD@JPHBMONG@identifier?5removed?$AA@ 00000001800628c0     libcpmt:syserror.obj
 0002:000018d8       ??_C@_0BG@CDNPAGJK@illegal?5byte?5sequence?$AA@ 00000001800628d8     libcpmt:syserror.obj
 0002:000018f0       ??_C@_0CD@BNPLBMNA@inappropriate?5io?5control?5operati@ 00000001800628f0     libcpmt:syserror.obj
 0002:00001918       ??_C@_0M@EGEKIIMP@interrupted?$AA@ 0000000180062918     libcpmt:syserror.obj
 0002:00001928       ??_C@_0N@OHAFKDEK@invalid?5seek?$AA@ 0000000180062928     libcpmt:syserror.obj
 0002:00001938       ??_C@_08GLNPIFBN@io?5error?$AA@ 0000000180062938     libcpmt:syserror.obj
 0002:00001948       ??_C@_0P@FLLDBIDK@is?5a?5directory?$AA@ 0000000180062948     libcpmt:syserror.obj
 0002:00001958       ??_C@_0N@IFLPBIOP@message?5size?$AA@ 0000000180062958     libcpmt:syserror.obj
 0002:00001968       ??_C@_0N@KIIEAAIO@network?5down?$AA@ 0000000180062968     libcpmt:syserror.obj
 0002:00001978       ??_C@_0O@FNPDBHEE@network?5reset?$AA@ 0000000180062978     libcpmt:syserror.obj
 0002:00001988       ??_C@_0BE@IFNCKGE@network?5unreachable?$AA@ 0000000180062988     libcpmt:syserror.obj
 0002:000019a0       ??_C@_0BA@PFFCAOFK@no?5buffer?5space?$AA@ 00000001800629a0     libcpmt:syserror.obj
 0002:000019b0       ??_C@_0BB@IEPBLJHK@no?5child?5process?$AA@ 00000001800629b0     libcpmt:syserror.obj
 0002:000019c8       ??_C@_07PLECNNKG@no?5link?$AA@ 00000001800629c8     libcpmt:syserror.obj
 0002:000019d0       ??_C@_0BC@NJECKMKE@no?5lock?5available?$AA@ 00000001800629d0     libcpmt:syserror.obj
 0002:000019e8       ??_C@_0BF@PBGGPKKE@no?5message?5available?$AA@ 00000001800629e8     libcpmt:syserror.obj
 0002:00001a00       ??_C@_0L@EDOLMPAK@no?5message?$AA@ 0000000180062a00     libcpmt:syserror.obj
 0002:00001a10       ??_C@_0BD@EAMBFIDF@no?5protocol?5option?$AA@ 0000000180062a10     libcpmt:syserror.obj
 0002:00001a28       ??_C@_0BD@IJDJKDEA@no?5space?5on?5device?$AA@ 0000000180062a28     libcpmt:syserror.obj
 0002:00001a40       ??_C@_0BE@MKFDAFMP@no?5stream?5resources?$AA@ 0000000180062a40     libcpmt:syserror.obj
 0002:00001a58       ??_C@_0BK@IMCPHCBI@no?5such?5device?5or?5address?$AA@ 0000000180062a58     libcpmt:syserror.obj
 0002:00001a78       ??_C@_0P@FDINDDOK@no?5such?5device?$AA@ 0000000180062a78     libcpmt:syserror.obj
 0002:00001a88       ??_C@_0BK@NDOCBPGE@no?5such?5file?5or?5directory?$AA@ 0000000180062a88     libcpmt:syserror.obj
 0002:00001aa8       ??_C@_0BA@DOCPFFJG@not?5a?5directory?$AA@ 0000000180062aa8     libcpmt:syserror.obj
 0002:00001ab8       ??_C@_0N@POEIPGGF@not?5a?5socket?$AA@ 0000000180062ab8     libcpmt:syserror.obj
 0002:00001ac8       ??_C@_0N@LGAPMMPI@not?5a?5stream?$AA@ 0000000180062ac8     libcpmt:syserror.obj
 0002:00001ad8       ??_C@_0O@GLMIBBEG@not?5connected?$AA@ 0000000180062ad8     libcpmt:syserror.obj
 0002:00001ae8       ??_C@_0O@NHEDABJP@not?5supported?$AA@ 0000000180062ae8     libcpmt:syserror.obj
 0002:00001af8       ??_C@_0BD@MOLBPMEA@operation?5canceled?$AA@ 0000000180062af8     libcpmt:syserror.obj
 0002:00001b10       ??_C@_0BG@KDKHOPCO@operation?5in?5progress?$AA@ 0000000180062b10     libcpmt:syserror.obj
 0002:00001b28       ??_C@_0BI@LNEGIFLN@operation?5not?5supported?$AA@ 0000000180062b28     libcpmt:syserror.obj
 0002:00001b40       ??_C@_0BG@OEMDKMEE@operation?5would?5block?$AA@ 0000000180062b40     libcpmt:syserror.obj
 0002:00001b58       ??_C@_0L@BLPOFLNJ@owner?5dead?$AA@ 0000000180062b58     libcpmt:syserror.obj
 0002:00001b68       ??_C@_0BC@CIJDGCDI@permission?5denied?$AA@ 0000000180062b68     libcpmt:syserror.obj
 0002:00001b80       ??_C@_0P@FNPOCJBE@protocol?5error?$AA@ 0000000180062b80     libcpmt:syserror.obj
 0002:00001b90       ??_C@_0BH@JPPPLHJB@protocol?5not?5supported?$AA@ 0000000180062b90     libcpmt:syserror.obj
 0002:00001ba8       ??_C@_0BG@EICBIHDP@read?5only?5file?5system?$AA@ 0000000180062ba8     libcpmt:syserror.obj
 0002:00001bc0       ??_C@_0BE@GOIPJJHG@result?5out?5of?5range?$AA@ 0000000180062bc0     libcpmt:syserror.obj
 0002:00001bd8       ??_C@_0BG@MPLKFPAE@state?5not?5recoverable?$AA@ 0000000180062bd8     libcpmt:syserror.obj
 0002:00001bf0       ??_C@_0P@DIIFGFCG@stream?5timeout?$AA@ 0000000180062bf0     libcpmt:syserror.obj
 0002:00001c00       ??_C@_0P@IPFDMIFL@text?5file?5busy?$AA@ 0000000180062c00     libcpmt:syserror.obj
 0002:00001c10       ??_C@_09KJPPMAOI@timed?5out?$AA@ 0000000180062c10     libcpmt:syserror.obj
 0002:00001c20       ??_C@_0BO@HACHBEKI@too?5many?5files?5open?5in?5system?$AA@ 0000000180062c20     libcpmt:syserror.obj
 0002:00001c40       ??_C@_0BE@GHAFMPAH@too?5many?5files?5open?$AA@ 0000000180062c40     libcpmt:syserror.obj
 0002:00001c58       ??_C@_0P@HCOMKFCC@too?5many?5links?$AA@ 0000000180062c58     libcpmt:syserror.obj
 0002:00001c68       ??_C@_0BO@EFGOJEF@too?5many?5symbolic?5link?5levels?$AA@ 0000000180062c68     libcpmt:syserror.obj
 0002:00001c88       ??_C@_0BA@KGKGOOJA@value?5too?5large?$AA@ 0000000180062c88     libcpmt:syserror.obj
 0002:00001c98       ??_C@_0BE@MIEJDDNH@wrong?5protocol?5type?$AA@ 0000000180062c98     libcpmt:syserror.obj
 0002:00001cb0       ??_C@_0O@BFJCFAAK@unknown?5error?$AA@ 0000000180062cb0     libcpmt:syserror.obj
 0002:00001cc0       ??_C@_1BK@MGMFAEKH@?$AAk?$AAe?$AAr?$AAn?$AAe?$AAl?$AA3?$AA2?$AA?4?$AAd?$AAl?$AAl?$AA?$AA@ 0000000180062cc0     libcpmt:winapisupp.obj
 0002:00001ce0       ??_C@_08KNHFBNJ@FlsAlloc?$AA@ 0000000180062ce0     libcpmt:winapisupp.obj
 0002:00001cf0       ??_C@_07PEJMOBNF@FlsFree?$AA@ 0000000180062cf0     libcpmt:winapisupp.obj
 0002:00001cf8       ??_C@_0M@GDNOONDI@FlsGetValue?$AA@ 0000000180062cf8     libcpmt:winapisupp.obj
 0002:00001d08       ??_C@_0M@JCPCPOEF@FlsSetValue?$AA@ 0000000180062d08     libcpmt:winapisupp.obj
 0002:00001d18       ??_C@_0BM@HCFOFFN@InitializeCriticalSectionEx?$AA@ 0000000180062d18     libcpmt:winapisupp.obj
 0002:00001d38       ??_C@_0BE@GPLMMCMH@InitOnceExecuteOnce?$AA@ 0000000180062d38     libcpmt:winapisupp.obj
 0002:00001d50       ??_C@_0P@DLHPPCNH@CreateEventExW?$AA@ 0000000180062d50     libcpmt:winapisupp.obj
 0002:00001d60       ??_C@_0BB@MEFPJLHN@CreateSemaphoreW?$AA@ 0000000180062d60     libcpmt:winapisupp.obj
 0002:00001d78       ??_C@_0BD@KIEEOEEH@CreateSemaphoreExW?$AA@ 0000000180062d78     libcpmt:winapisupp.obj
 0002:00001d90       ??_C@_0BG@OGFAJCKC@CreateThreadpoolTimer?$AA@ 0000000180062d90     libcpmt:winapisupp.obj
 0002:00001da8       ??_C@_0BD@LPLEMMDI@SetThreadpoolTimer?$AA@ 0000000180062da8     libcpmt:winapisupp.obj
 0002:00001dc0       ??_C@_0CA@FMNJENH@WaitForThreadpoolTimerCallbacks?$AA@ 0000000180062dc0     libcpmt:winapisupp.obj
 0002:00001de0       ??_C@_0BF@DCFCCNOC@CloseThreadpoolTimer?$AA@ 0000000180062de0     libcpmt:winapisupp.obj
 0002:00001df8       ??_C@_0BF@FLABGKKM@CreateThreadpoolWait?$AA@ 0000000180062df8     libcpmt:winapisupp.obj
 0002:00001e10       ??_C@_0BC@MGCOHNA@SetThreadpoolWait?$AA@ 0000000180062e10     libcpmt:winapisupp.obj
 0002:00001e28       ??_C@_0BE@OCIOMIMP@CloseThreadpoolWait?$AA@ 0000000180062e28     libcpmt:winapisupp.obj
 0002:00001e40       ??_C@_0BJ@LKGHFHBO@FlushProcessWriteBuffers?$AA@ 0000000180062e40     libcpmt:winapisupp.obj
 0002:00001e60       ??_C@_0BP@KALKKPMO@FreeLibraryWhenCallbackReturns?$AA@ 0000000180062e60     libcpmt:winapisupp.obj
 0002:00001e80       ??_C@_0BK@DFNBACLA@GetCurrentProcessorNumber?$AA@ 0000000180062e80     libcpmt:winapisupp.obj
 0002:00001ea0       ??_C@_0BE@FKKLLFLM@CreateSymbolicLinkW?$AA@ 0000000180062ea0     libcpmt:winapisupp.obj
 0002:00001eb8       ??_C@_0BE@JOGNEJCI@GetCurrentPackageId?$AA@ 0000000180062eb8     libcpmt:winapisupp.obj
 0002:00001ed0       ??_C@_0P@CDHHOHKP@GetTickCount64?$AA@ 0000000180062ed0     libcpmt:winapisupp.obj
 0002:00001ee0       ??_C@_0BN@NEEHBBPO@GetFileInformationByHandleEx?$AA@ 0000000180062ee0     libcpmt:winapisupp.obj
 0002:00001f00       ??_C@_0BL@KBBHGKCM@SetFileInformationByHandle?$AA@ 0000000180062f00     libcpmt:winapisupp.obj
 0002:00001f20       ??_C@_0BP@FPNJPEJC@GetSystemTimePreciseAsFileTime?$AA@ 0000000180062f20     libcpmt:winapisupp.obj
 0002:00001f40       ??_C@_0BM@HLJJNPAH@InitializeConditionVariable?$AA@ 0000000180062f40     libcpmt:winapisupp.obj
 0002:00001f60       ??_C@_0BG@BFNILBLN@WakeConditionVariable?$AA@ 0000000180062f60     libcpmt:winapisupp.obj
 0002:00001f78       ??_C@_0BJ@PGPPEPCC@WakeAllConditionVariable?$AA@ 0000000180062f78     libcpmt:winapisupp.obj
 0002:00001f98       ??_C@_0BJ@JEBJOJFJ@SleepConditionVariableCS?$AA@ 0000000180062f98     libcpmt:winapisupp.obj
 0002:00001fb8       ??_C@_0BC@MMLHEBPB@InitializeSRWLock?$AA@ 0000000180062fb8     libcpmt:winapisupp.obj
 0002:00001fd0       ??_C@_0BI@OMNLIJDB@AcquireSRWLockExclusive?$AA@ 0000000180062fd0     libcpmt:winapisupp.obj
 0002:00001fe8       ??_C@_0BL@OGHFEMNA@TryAcquireSRWLockExclusive?$AA@ 0000000180062fe8     libcpmt:winapisupp.obj
 0002:00002008       ??_C@_0BI@HMIEPCNJ@ReleaseSRWLockExclusive?$AA@ 0000000180063008     libcpmt:winapisupp.obj
 0002:00002020       ??_C@_0BK@LGACAGIC@SleepConditionVariableSRW?$AA@ 0000000180063020     libcpmt:winapisupp.obj
 0002:00002040       ??_C@_0BF@GGPHFPJA@CreateThreadpoolWork?$AA@ 0000000180063040     libcpmt:winapisupp.obj
 0002:00002058       ??_C@_0BF@NHDAIMMO@SubmitThreadpoolWork?$AA@ 0000000180063058     libcpmt:winapisupp.obj
 0002:00002070       ??_C@_0BE@NPHIPNPD@CloseThreadpoolWork?$AA@ 0000000180063070     libcpmt:winapisupp.obj
 0002:00002088       ??_C@_0BA@IHGNDAEB@CompareStringEx?$AA@ 0000000180063088     libcpmt:winapisupp.obj
 0002:00002098       ??_C@_0BA@ONOKGCMP@GetLocaleInfoEx?$AA@ 0000000180063098     libcpmt:winapisupp.obj
 0002:000020a8       ??_C@_0O@KKBNKAPF@LCMapStringEx?$AA@ 00000001800630a8     libcpmt:winapisupp.obj
 0002:000020b8       ?_BADOFF@std@@3_JB         00000001800630b8     libcpmt:ios.obj
 0002:000020f0       ??_7?$num_put@DV?$ostreambuf_iterator@DU?$char_traits@D@std@@@std@@@std@@6B@ 00000001800630f0     libcpmt:locale.obj
 0002:00002150       ??_7?$numpunct@D@std@@6B@  0000000180063150     libcpmt:locale.obj
 0002:00002190       __real@4024000000000000    0000000180063190     libcpmt:locale.obj
 0002:00002198       ??_C@_11LOCGONAA@?$AA?$AA@ 0000000180063198     libcpmt:wlocale.obj
 0002:0000219c       ??_C@_01JOAMLHOP@?9?$AA@   000000018006319c     libcpmt:wlocale.obj
 0002:000021a0       __xmm@80000000000000008000000000000000 00000001800631a0     libcpmt:wlocale.obj
 0002:00002250       ??_C@_1M@PNMLOJDF@?$AAe?$AAt?$AA?9?$AAe?$AAe?$AA?$AA@ 0000000180063250     libcpmt:winapinls.obj
 0002:00002260       ??_C@_1M@GHHLIKEI@?$AAe?$AAu?$AA?9?$AAe?$AAs?$AA?$AA@ 0000000180063260     libcpmt:winapinls.obj
 0002:00002270       ??_C@_1M@PBNONODE@?$AAf?$AAa?$AA?9?$AAi?$AAr?$AA?$AA@ 0000000180063270     libcpmt:winapinls.obj
 0002:00002280       ??_C@_1M@JEEHPMIL@?$AAf?$AAi?$AA?9?$AAf?$AAi?$AA?$AA@ 0000000180063280     libcpmt:winapinls.obj
 0002:00002290       ??_C@_1M@LMDCNDBA@?$AAf?$AAo?$AA?9?$AAf?$AAo?$AA?$AA@ 0000000180063290     libcpmt:winapinls.obj
 0002:000022a0       ??_C@_1M@JKEOHLDK@?$AAf?$AAr?$AA?9?$AAb?$AAe?$AA?$AA@ 00000001800632a0     libcpmt:winapinls.obj
 0002:000022b0       ??_C@_1M@NOHADPMI@?$AAf?$AAr?$AA?9?$AAc?$AAa?$AA?$AA@ 00000001800632b0     libcpmt:winapinls.obj
 0002:000022c0       ??_C@_1M@KDHIHAEC@?$AAf?$AAr?$AA?9?$AAc?$AAh?$AA?$AA@ 00000001800632c0     libcpmt:winapinls.obj
 0002:000022d0       ??_C@_1M@MMBBFGAK@?$AAf?$AAr?$AA?9?$AAf?$AAr?$AA?$AA@ 00000001800632d0     libcpmt:winapinls.obj
 0002:000022e0       ??_C@_1M@PAFNENNF@?$AAf?$AAr?$AA?9?$AAl?$AAu?$AA?$AA@ 00000001800632e0     libcpmt:winapinls.obj
 0002:000022f0       ??_C@_1M@EOHDJGDD@?$AAf?$AAr?$AA?9?$AAm?$AAc?$AA?$AA@ 00000001800632f0     libcpmt:winapinls.obj
 0002:00002300       ??_C@_1M@FAPLLOPF@?$AAg?$AAl?$AA?9?$AAe?$AAs?$AA?$AA@ 0000000180063300     libcpmt:winapinls.obj
 0002:00002310       ??_C@_1M@FOPBFLOO@?$AAg?$AAu?$AA?9?$AAi?$AAn?$AA?$AA@ 0000000180063310     libcpmt:winapinls.obj
 0002:00002320       ??_C@_1M@KBMCINPM@?$AAh?$AAe?$AA?9?$AAi?$AAl?$AA?$AA@ 0000000180063320     libcpmt:winapinls.obj
 0002:00002330       ??_C@_1M@BBPHKFPJ@?$AAh?$AAi?$AA?9?$AAi?$AAn?$AA?$AA@ 0000000180063330     libcpmt:winapinls.obj
 0002:00002340       ??_C@_1M@PMBNDPHD@?$AAh?$AAr?$AA?9?$AAb?$AAa?$AA?$AA@ 0000000180063340     libcpmt:winapinls.obj
 0002:00002350       ??_C@_1M@BPCKOEGE@?$AAh?$AAr?$AA?9?$AAh?$AAr?$AA?$AA@ 0000000180063350     libcpmt:winapinls.obj
 0002:00002360       ??_C@_1M@GACBMHKE@?$AAh?$AAu?$AA?9?$AAh?$AAu?$AA?$AA@ 0000000180063360     libcpmt:winapinls.obj
 0002:00002370       ??_C@_1M@MILPAJJC@?$AAh?$AAy?$AA?9?$AAa?$AAm?$AA?$AA@ 0000000180063370     libcpmt:winapinls.obj
 0002:00002380       ??_C@_1M@BABBICEC@?$AAi?$AAd?$AA?9?$AAi?$AAd?$AA?$AA@ 0000000180063380     libcpmt:winapinls.obj
 0002:00002390       ??_C@_1M@BIKNHHPF@?$AAi?$AAs?$AA?9?$AAi?$AAs?$AA?$AA@ 0000000180063390     libcpmt:winapinls.obj
 0002:000023a0       ??_C@_1M@NMPCJPHE@?$AAi?$AAt?$AA?9?$AAc?$AAh?$AA?$AA@ 00000001800633a0     libcpmt:winapinls.obj
 0002:000023b0       ??_C@_1M@GHKGFEDF@?$AAi?$AAt?$AA?9?$AAi?$AAt?$AA?$AA@ 00000001800633b0     libcpmt:winapinls.obj
 0002:000023c0       ??_C@_1M@NIEJCJJA@?$AAj?$AAa?$AA?9?$AAj?$AAp?$AA?$AA@ 00000001800633c0     libcpmt:winapinls.obj
 0002:000023d0       ??_C@_1M@JILFNBIM@?$AAk?$AAa?$AA?9?$AAg?$AAe?$AA?$AA@ 00000001800633d0     libcpmt:winapinls.obj
 0002:000023e0       ??_C@_1M@PACPMGPH@?$AAk?$AAk?$AA?9?$AAk?$AAz?$AA?$AA@ 00000001800633e0     libcpmt:winapinls.obj
 0002:000023f0       ??_C@_1M@IELFGMHA@?$AAk?$AAn?$AA?9?$AAi?$AAn?$AA?$AA@ 00000001800633f0     libcpmt:winapinls.obj
 0002:00002400       ??_C@_1M@DMHAEOGC@?$AAk?$AAo?$AA?9?$AAk?$AAr?$AA?$AA@ 0000000180063400     libcpmt:winapinls.obj
 0002:00002410       ??_C@_1O@IBBJHCH@?$AAk?$AAo?$AAk?$AA?9?$AAi?$AAn?$AA?$AA@ 0000000180063410     libcpmt:winapinls.obj
 0002:00002420       ??_C@_1M@HBAHBIGA@?$AAk?$AAy?$AA?9?$AAk?$AAg?$AA?$AA@ 0000000180063420     libcpmt:winapinls.obj
 0002:00002430       ??_C@_1M@KPMILCJG@?$AAl?$AAt?$AA?9?$AAl?$AAt?$AA?$AA@ 0000000180063430     libcpmt:winapinls.obj
 0002:00002440       ??_C@_1M@BDEKKCA@?$AAl?$AAv?$AA?9?$AAl?$AAv?$AA?$AA@ 0000000180063440     libcpmt:winapinls.obj
 0002:00002450       ??_C@_1M@ELCKCCJJ@?$AAm?$AAi?$AA?9?$AAn?$AAz?$AA?$AA@ 0000000180063450     libcpmt:winapinls.obj
 0002:00002460       ??_C@_1M@CBOOLAPA@?$AAm?$AAk?$AA?9?$AAm?$AAk?$AA?$AA@ 0000000180063460     libcpmt:winapinls.obj
 0002:00002470       ??_C@_1M@GPHNBJKN@?$AAm?$AAl?$AA?9?$AAi?$AAn?$AA?$AA@ 0000000180063470     libcpmt:winapinls.obj
 0002:00002480       ??_C@_1M@PABJILIG@?$AAm?$AAn?$AA?9?$AAm?$AAn?$AA?$AA@ 0000000180063480     libcpmt:winapinls.obj
 0002:00002490       ??_C@_1M@FGBKKIPG@?$AAm?$AAr?$AA?9?$AAi?$AAn?$AA?$AA@ 0000000180063490     libcpmt:winapinls.obj
 0002:000024a0       ??_C@_1M@NDBPDDAL@?$AAm?$AAs?$AA?9?$AAb?$AAn?$AA?$AA@ 00000001800634a0     libcpmt:winapinls.obj
 0002:000024b0       ??_C@_1M@OPIHOOPI@?$AAm?$AAs?$AA?9?$AAm?$AAy?$AA?$AA@ 00000001800634b0     libcpmt:winapinls.obj
 0002:000024c0       ??_C@_1M@PPDBCNFM@?$AAm?$AAt?$AA?9?$AAm?$AAt?$AA?$AA@ 00000001800634c0     libcpmt:winapinls.obj
 0002:000024d0       ??_C@_1M@KDJDKMDD@?$AAn?$AAb?$AA?9?$AAn?$AAo?$AA?$AA@ 00000001800634d0     libcpmt:winapinls.obj
 0002:000024e0       ??_C@_1M@KFCFLMJP@?$AAn?$AAl?$AA?9?$AAb?$AAe?$AA?$AA@ 00000001800634e0     libcpmt:winapinls.obj
 0002:000024f0       ??_C@_1M@KPOPDDGO@?$AAn?$AAl?$AA?9?$AAn?$AAl?$AA?$AA@ 00000001800634f0     libcpmt:winapinls.obj
 0002:00002500       ??_C@_1M@LJKPEMLN@?$AAn?$AAn?$AA?9?$AAn?$AAo?$AA?$AA@ 0000000180063500     libcpmt:winapinls.obj
 0002:00002510       ??_C@_1M@BDGHHBFL@?$AAn?$AAs?$AA?9?$AAz?$AAa?$AA?$AA@ 0000000180063510     libcpmt:winapinls.obj
 0002:00002520       ??_C@_1M@IDEHOAP@?$AAp?$AAa?$AA?9?$AAi?$AAn?$AA?$AA@ 0000000180063520     libcpmt:winapinls.obj
 0002:00002530       ??_C@_1M@HDBKGOGH@?$AAp?$AAl?$AA?9?$AAp?$AAl?$AA?$AA@ 0000000180063530     libcpmt:winapinls.obj
 0002:00002540       ??_C@_1M@LJLLCMEH@?$AAp?$AAt?$AA?9?$AAb?$AAr?$AA?$AA@ 0000000180063540     libcpmt:winapinls.obj
 0002:00002550       ??_C@_1M@NCMONAAL@?$AAp?$AAt?$AA?9?$AAp?$AAt?$AA?$AA@ 0000000180063550     libcpmt:winapinls.obj
 0002:00002560       ??_C@_1O@EAKMAJDN@?$AAq?$AAu?$AAz?$AA?9?$AAb?$AAo?$AA?$AA@ 0000000180063560     libcpmt:winapinls.obj
 0002:00002570       ??_C@_1O@BHHPIGDN@?$AAq?$AAu?$AAz?$AA?9?$AAe?$AAc?$AA?$AA@ 0000000180063570     libcpmt:winapinls.obj
 0002:00002580       ??_C@_1O@GBAPEKMJ@?$AAq?$AAu?$AAz?$AA?9?$AAp?$AAe?$AA?$AA@ 0000000180063580     libcpmt:winapinls.obj
 0002:00002590       ??_C@_1M@CLGLEFBO@?$AAr?$AAo?$AA?9?$AAr?$AAo?$AA?$AA@ 0000000180063590     libcpmt:winapinls.obj
 0002:000025a0       ??_C@_1M@CEEDODME@?$AAr?$AAu?$AA?9?$AAr?$AAu?$AA?$AA@ 00000001800635a0     libcpmt:winapinls.obj
 0002:000025b0       ??_C@_1M@HPKKKMPP@?$AAs?$AAa?$AA?9?$AAi?$AAn?$AA?$AA@ 00000001800635b0     libcpmt:winapinls.obj
 0002:000025c0       ??_C@_1M@BKMAIGOJ@?$AAs?$AAe?$AA?9?$AAf?$AAi?$AA?$AA@ 00000001800635c0     libcpmt:winapinls.obj
 0002:000025d0       ??_C@_1M@NDPIFLFI@?$AAs?$AAe?$AA?9?$AAn?$AAo?$AA?$AA@ 00000001800635d0     libcpmt:winapinls.obj
 0002:000025e0       ??_C@_1M@DANKKHJ@?$AAs?$AAe?$AA?9?$AAs?$AAe?$AA?$AA@ 00000001800635e0     libcpmt:winapinls.obj
 0002:000025f0       ??_C@_1M@PNBLONPJ@?$AAs?$AAk?$AA?9?$AAs?$AAk?$AA?$AA@ 00000001800635f0     libcpmt:winapinls.obj
 0002:00002600       ??_C@_1M@LFMODOAL@?$AAs?$AAl?$AA?9?$AAs?$AAi?$AA?$AA@ 0000000180063600     libcpmt:winapinls.obj
 0002:00002610       ??_C@_1O@DFKOMPG@?$AAs?$AAm?$AAa?$AA?9?$AAn?$AAo?$AA?$AA@ 0000000180063610     libcpmt:winapinls.obj
 0002:00002620       ??_C@_1O@NDKPBNNH@?$AAs?$AAm?$AAa?$AA?9?$AAs?$AAe?$AA?$AA@ 0000000180063620     libcpmt:winapinls.obj
 0002:00002630       ??_C@_1O@PLLKBHAB@?$AAs?$AAm?$AAj?$AA?9?$AAn?$AAo?$AA?$AA@ 0000000180063630     libcpmt:winapinls.obj
 0002:00002640       ??_C@_1O@CLEPOGCA@?$AAs?$AAm?$AAj?$AA?9?$AAs?$AAe?$AA?$AA@ 0000000180063640     libcpmt:winapinls.obj
 0002:00002650       ??_C@_1O@DLGJGKMK@?$AAs?$AAm?$AAn?$AA?9?$AAf?$AAi?$AA?$AA@ 0000000180063650     libcpmt:winapinls.obj
 0002:00002660       ??_C@_1O@OJDJGAJC@?$AAs?$AAm?$AAs?$AA?9?$AAf?$AAi?$AA?$AA@ 0000000180063660     libcpmt:winapinls.obj
 0002:00002670       ??_C@_1M@BOFOGHPB@?$AAs?$AAq?$AA?9?$AAa?$AAl?$AA?$AA@ 0000000180063670     libcpmt:winapinls.obj
 0002:00002680       ??_C@_1BG@LJBBIPGB@?$AAs?$AAr?$AA?9?$AAb?$AAa?$AA?9?$AAc?$AAy?$AAr?$AAl?$AA?$AA@ 0000000180063680     libcpmt:winapinls.obj
 0002:00002698       ??_C@_1BG@JLBENFOE@?$AAs?$AAr?$AA?9?$AAb?$AAa?$AA?9?$AAl?$AAa?$AAt?$AAn?$AA?$AA@ 0000000180063698     libcpmt:winapinls.obj
 0002:000026b0       ??_C@_1BG@KODPNHE@?$AAs?$AAr?$AA?9?$AAs?$AAp?$AA?9?$AAc?$AAy?$AAr?$AAl?$AA?$AA@ 00000001800636b0     libcpmt:winapinls.obj
 0002:000026c8       ??_C@_1BG@CIOGKHPB@?$AAs?$AAr?$AA?9?$AAs?$AAp?$AA?9?$AAl?$AAa?$AAt?$AAn?$AA?$AA@ 00000001800636c8     libcpmt:winapinls.obj
 0002:000026e0       ??_C@_1M@NGFJLMAC@?$AAs?$AAv?$AA?9?$AAf?$AAi?$AA?$AA@ 00000001800636e0     libcpmt:winapinls.obj
 0002:000026f0       ??_C@_1M@MPJEJAJC@?$AAs?$AAv?$AA?9?$AAs?$AAe?$AA?$AA@ 00000001800636f0     libcpmt:winapinls.obj
 0002:00002700       ??_C@_1M@MPNDHLFK@?$AAs?$AAw?$AA?9?$AAk?$AAe?$AA?$AA@ 0000000180063700     libcpmt:winapinls.obj
 0002:00002710       ??_C@_1O@KOHBJJI@?$AAs?$AAy?$AAr?$AA?9?$AAs?$AAy?$AA?$AA@ 0000000180063710     libcpmt:winapinls.obj
 0002:00002720       ??_C@_1M@LDCEFHA@?$AAt?$AAa?$AA?9?$AAi?$AAn?$AA?$AA@ 0000000180063720     libcpmt:winapinls.obj
 0002:00002730       ??_C@_1M@CNJOFAK@?$AAt?$AAe?$AA?9?$AAi?$AAn?$AA?$AA@ 0000000180063730     libcpmt:winapinls.obj
 0002:00002740       ??_C@_1M@GNAECACD@?$AAt?$AAh?$AA?9?$AAt?$AAh?$AA?$AA@ 0000000180063740     libcpmt:winapinls.obj
 0002:00002750       ??_C@_1M@CHBIHOJO@?$AAt?$AAn?$AA?9?$AAz?$AAa?$AA?$AA@ 0000000180063750     libcpmt:winapinls.obj
 0002:00002760       ??_C@_1M@GCCMIGPJ@?$AAt?$AAr?$AA?9?$AAt?$AAr?$AA?$AA@ 0000000180063760     libcpmt:winapinls.obj
 0002:00002770       ??_C@_1M@CELMCNBK@?$AAt?$AAt?$AA?9?$AAr?$AAu?$AA?$AA@ 0000000180063770     libcpmt:winapinls.obj
 0002:00002780       ??_C@_1M@KLMCELGA@?$AAu?$AAk?$AA?9?$AAu?$AAa?$AA?$AA@ 0000000180063780     libcpmt:winapinls.obj
 0002:00002790       ??_C@_1M@EPAJJAJF@?$AAu?$AAr?$AA?9?$AAp?$AAk?$AA?$AA@ 0000000180063790     libcpmt:winapinls.obj
 0002:000027a0       ??_C@_1BG@GEGPMCDJ@?$AAu?$AAz?$AA?9?$AAu?$AAz?$AA?9?$AAc?$AAy?$AAr?$AAl?$AA?$AA@ 00000001800637a0     libcpmt:winapinls.obj
 0002:000027b8       ??_C@_1BG@EGGKJILM@?$AAu?$AAz?$AA?9?$AAu?$AAz?$AA?9?$AAl?$AAa?$AAt?$AAn?$AA?$AA@ 00000001800637b8     libcpmt:winapinls.obj
 0002:000027d0       ??_C@_1M@GFOCLFF@?$AAv?$AAi?$AA?9?$AAv?$AAn?$AA?$AA@ 00000001800637d0     libcpmt:winapinls.obj
 0002:000027e0       ??_C@_1M@CPAMEDFI@?$AAx?$AAh?$AA?9?$AAz?$AAa?$AA?$AA@ 00000001800637e0     libcpmt:winapinls.obj
 0002:000027f0       ??_C@_1O@EBKIFIGN@?$AAz?$AAh?$AA?9?$AAc?$AAh?$AAs?$AA?$AA@ 00000001800637f0     libcpmt:winapinls.obj
 0002:00002800       ??_C@_1O@NMHPGANE@?$AAz?$AAh?$AA?9?$AAc?$AAh?$AAt?$AA?$AA@ 0000000180063800     libcpmt:winapinls.obj
 0002:00002810       ??_C@_1M@LPINJOMC@?$AAz?$AAh?$AA?9?$AAc?$AAn?$AA?$AA@ 0000000180063810     libcpmt:winapinls.obj
 0002:00002820       ??_C@_1M@OCJEJODD@?$AAz?$AAh?$AA?9?$AAh?$AAk?$AA?$AA@ 0000000180063820     libcpmt:winapinls.obj
 0002:00002830       ??_C@_1M@DNDLJINH@?$AAz?$AAh?$AA?9?$AAm?$AAo?$AA?$AA@ 0000000180063830     libcpmt:winapinls.obj
 0002:00002840       ??_C@_1M@MBFDNDND@?$AAz?$AAh?$AA?9?$AAs?$AAg?$AA?$AA@ 0000000180063840     libcpmt:winapinls.obj
 0002:00002850       ??_C@_1M@IMEPLEPE@?$AAz?$AAh?$AA?9?$AAt?$AAw?$AA?$AA@ 0000000180063850     libcpmt:winapinls.obj
 0002:00002860       ??_C@_1M@BBGHNHJP@?$AAz?$AAu?$AA?9?$AAz?$AAa?$AA?$AA@ 0000000180063860     libcpmt:winapinls.obj
 0002:000044f0       ??_C@_15EMKDOKLE@?$AAa?$AAr?$AA?$AA@ 00000001800654f0     libcpmt:winapinls.obj
 0002:000044f8       ??_C@_15KNPADPLH@?$AAb?$AAg?$AA?$AA@ 00000001800654f8     libcpmt:winapinls.obj
 0002:00004500       ??_C@_15EDMHLDMO@?$AAc?$AAa?$AA?$AA@ 0000000180065500     libcpmt:winapinls.obj
 0002:00004508       ??_C@_1O@BPEAJADD@?$AAz?$AAh?$AA?9?$AAC?$AAH?$AAS?$AA?$AA@ 0000000180065508     libcpmt:winapinls.obj
 0002:00004518       ??_C@_15LJNHCMNK@?$AAc?$AAs?$AA?$AA@ 0000000180065518     libcpmt:winapinls.obj
 0002:00004520       ??_C@_15FOMCIDHG@?$AAd?$AAa?$AA?$AA@ 0000000180065520     libcpmt:winapinls.obj
 0002:00004528       ??_C@_15NBKABECB@?$AAd?$AAe?$AA?$AA@ 0000000180065528     libcpmt:winapinls.obj
 0002:00004530       ??_C@_15GHPEIIAO@?$AAe?$AAl?$AA?$AA@ 0000000180065530     libcpmt:winapinls.obj
 0002:00004538       ??_C@_15MNPNEAIF@?$AAe?$AAn?$AA?$AA@ 0000000180065538     libcpmt:winapinls.obj
 0002:00004540       ??_C@_15GPIOMPMH@?$AAe?$AAs?$AA?$AA@ 0000000180065540     libcpmt:winapinls.obj
 0002:00004548       ??_C@_15NGLOAKJC@?$AAf?$AAi?$AA?$AA@ 0000000180065548     libcpmt:winapinls.obj
 0002:00004550       ??_C@_15FBKGNKAM@?$AAf?$AAr?$AA?$AA@ 0000000180065550     libcpmt:winapinls.obj
 0002:00004558       ??_C@_15KGGCNEFK@?$AAh?$AAe?$AA?$AA@ 0000000180065558     libcpmt:winapinls.obj
 0002:00004560       ??_C@_15PGHLIDMF@?$AAh?$AAu?$AA?$AA@ 0000000180065560     libcpmt:winapinls.obj
 0002:00004568       ??_C@_15BIEMAPLM@?$AAi?$AAs?$AA?$AA@ 0000000180065568     libcpmt:winapinls.obj
 0002:00004570       ??_C@_15IFJLDHAF@?$AAi?$AAt?$AA?$AA@ 0000000180065570     libcpmt:winapinls.obj
 0002:00004578       ??_C@_15GEMIOCAG@?$AAj?$AAa?$AA?$AA@ 0000000180065578     libcpmt:winapinls.obj
 0002:00004580       ??_C@_15EPELEGJA@?$AAk?$AAo?$AA?$AA@ 0000000180065580     libcpmt:winapinls.obj
 0002:00004588       ??_C@_15NDDHIMN@?$AAn?$AAl?$AA?$AA@ 0000000180065588     libcpmt:winapinls.obj
 0002:00004590       ??_C@_15BPIGNHCD@?$AAn?$AAo?$AA?$AA@ 0000000180065590     libcpmt:winapinls.obj
 0002:00004598       ??_C@_15DEOPBLCG@?$AAp?$AAl?$AA?$AA@ 0000000180065598     libcpmt:winapinls.obj
 0002:000045a0       ??_C@_15KBECGEFG@?$AAp?$AAt?$AA?$AA@ 00000001800655a0     libcpmt:winapinls.obj
 0002:000045a8       ??_C@_15GLJCBFMD@?$AAr?$AAo?$AA?$AA@ 00000001800655a8     libcpmt:winapinls.obj
 0002:000045b0       ??_C@_15FEDGKCDI@?$AAr?$AAu?$AA?$AA@ 00000001800655b0     libcpmt:winapinls.obj
 0002:000045b8       ??_C@_15GLKMLLHM@?$AAh?$AAr?$AA?$AA@ 00000001800655b8     libcpmt:winapinls.obj
 0002:000045c0       ??_C@_15CPKMFBDB@?$AAs?$AAk?$AA?$AA@ 00000001800655c0     libcpmt:winapinls.obj
 0002:000045c8       ??_C@_15BAAIOGMK@?$AAs?$AAq?$AA?$AA@ 00000001800655c8     libcpmt:winapinls.obj
 0002:000045d0       ??_C@_15INNPNOHD@?$AAs?$AAv?$AA?$AA@ 00000001800655d0     libcpmt:winapinls.obj
 0002:000045d8       ??_C@_15CABMMOGH@?$AAt?$AAh?$AA?$AA@ 00000001800655d8     libcpmt:winapinls.obj
 0002:000045e0       ??_C@_15BPLIHJJM@?$AAt?$AAr?$AA?$AA@ 00000001800655e0     libcpmt:winapinls.obj
 0002:000045e8       ??_C@_15NEOEKKDJ@?$AAu?$AAr?$AA?$AA@ 00000001800655e8     libcpmt:winapinls.obj
 0002:000045f0       ??_C@_15NFICGAJK@?$AAi?$AAd?$AA?$AA@ 00000001800655f0     libcpmt:winapinls.obj
 0002:000045f8       ??_C@_15PJPFLCCM@?$AAu?$AAk?$AA?$AA@ 00000001800655f8     libcpmt:winapinls.obj
 0002:00004600       ??_C@_15HPJPHDM@?$AAb?$AAe?$AA?$AA@ 0000000180065600     libcpmt:winapinls.obj
 0002:00004608       ??_C@_15LCHLGJII@?$AAs?$AAl?$AA?$AA@ 0000000180065608     libcpmt:winapinls.obj
 0002:00004610       ??_C@_15PCFJPHHO@?$AAe?$AAt?$AA?$AA@ 0000000180065610     libcpmt:winapinls.obj
 0002:00004618       ??_C@_15HPFPGODN@?$AAl?$AAv?$AA?$AA@ 0000000180065618     libcpmt:winapinls.obj
 0002:00004620       ??_C@_15NFFGKGLG@?$AAl?$AAt?$AA?$AA@ 0000000180065620     libcpmt:winapinls.obj
 0002:00004628       ??_C@_15BDAKCCHN@?$AAf?$AAa?$AA?$AA@ 0000000180065628     libcpmt:winapinls.obj
 0002:00004630       ??_C@_15NFGIAIAJ@?$AAv?$AAi?$AA?$AA@ 0000000180065630     libcpmt:winapinls.obj
 0002:00004638       ??_C@_15LMKNDMHN@?$AAh?$AAy?$AA?$AA@ 0000000180065638     libcpmt:winapinls.obj
 0002:00004640       ??_C@_15IJBHMCFL@?$AAa?$AAz?$AA?$AA@ 0000000180065640     libcpmt:winapinls.obj
 0002:00004648       ??_C@_15EKOFJABL@?$AAe?$AAu?$AA?$AA@ 0000000180065648     libcpmt:winapinls.obj
 0002:00004650       ??_C@_15BGHADCNK@?$AAm?$AAk?$AA?$AA@ 0000000180065650     libcpmt:winapinls.obj
 0002:00004658       ??_C@_15JDNICKHM@?$AAa?$AAf?$AA?$AA@ 0000000180065658     libcpmt:winapinls.obj
 0002:00004660       ??_C@_15KPJEDBKD@?$AAk?$AAa?$AA?$AA@ 0000000180065660     libcpmt:winapinls.obj
 0002:00004668       ??_C@_15PDNFFFEO@?$AAf?$AAo?$AA?$AA@ 0000000180065668     libcpmt:winapinls.obj
 0002:00004670       ??_C@_15OMLEGLOC@?$AAh?$AAi?$AA?$AA@ 0000000180065670     libcpmt:winapinls.obj
 0002:00004678       ??_C@_15IDNNENKK@?$AAm?$AAs?$AA?$AA@ 0000000180065678     libcpmt:winapinls.obj
 0002:00004680       ??_C@_15MACJNBMH@?$AAk?$AAk?$AA?$AA@ 0000000180065680     libcpmt:winapinls.obj
 0002:00004688       ??_C@_15DKDJEOND@?$AAk?$AAy?$AA?$AA@ 0000000180065688     libcpmt:winapinls.obj
 0002:00004690       ??_C@_15DFGDLJBG@?$AAs?$AAw?$AA?$AA@ 0000000180065690     libcpmt:winapinls.obj
 0002:00004698       ??_C@_15BBFAICNG@?$AAu?$AAz?$AA?$AA@ 0000000180065698     libcpmt:winapinls.obj
 0002:000046a0       ??_C@_15DKNDCGEA@?$AAt?$AAt?$AA?$AA@ 00000001800656a0     libcpmt:winapinls.obj
 0002:000046a8       ??_C@_15MGIFMDPL@?$AAp?$AAa?$AA?$AA@ 00000001800656a8     libcpmt:winapinls.obj
 0002:000046b0       ??_C@_15HCNDBBA@?$AAg?$AAu?$AA?$AA@ 00000001800656b0     libcpmt:winapinls.obj
 0002:000046b8       ??_C@_15FNBEIBON@?$AAt?$AAa?$AA?$AA@ 00000001800656b8     libcpmt:winapinls.obj
 0002:000046c0       ??_C@_15NCHGBGLK@?$AAt?$AAe?$AA?$AA@ 00000001800656c0     libcpmt:winapinls.obj
 0002:000046c8       ??_C@_15PHPHCBPF@?$AAk?$AAn?$AA?$AA@ 00000001800656c8     libcpmt:winapinls.obj
 0002:000046d0       ??_C@_15DLGBCKMP@?$AAm?$AAr?$AA?$AA@ 00000001800656d0     libcpmt:winapinls.obj
 0002:000046d8       ??_C@_15EABBLBFF@?$AAs?$AAa?$AA?$AA@ 00000001800656d8     libcpmt:winapinls.obj
 0002:000046e0       ??_C@_15CBKOMCOI@?$AAm?$AAn?$AA?$AA@ 00000001800656e0     libcpmt:winapinls.obj
 0002:000046e8       ??_C@_15CKDMCJAF@?$AAg?$AAl?$AA?$AA@ 00000001800656e8     libcpmt:winapinls.obj
 0002:000046f0       ??_C@_17CNJFBPG@?$AAk?$AAo?$AAk?$AA?$AA@ 00000001800656f0     libcpmt:winapinls.obj
 0002:000046f8       ??_C@_17FFBJICPL@?$AAs?$AAy?$AAr?$AA?$AA@ 00000001800656f8     libcpmt:winapinls.obj
 0002:00004700       ??_C@_17KPNDCPAF@?$AAd?$AAi?$AAv?$AA?$AA@ 0000000180065700     libcpmt:winapinls.obj
 0002:00004708       ??_C@_1M@OKAHONE@?$AAa?$AAr?$AA?9?$AAS?$AAA?$AA?$AA@ 0000000180065708     libcpmt:winapinls.obj
 0002:00004718       ??_C@_1M@FFFIGIGK@?$AAb?$AAg?$AA?9?$AAB?$AAG?$AA?$AA@ 0000000180065718     libcpmt:winapinls.obj
 0002:00004728       ??_C@_1M@BJNKEDC@?$AAc?$AAa?$AA?9?$AAE?$AAS?$AA?$AA@ 0000000180065728     libcpmt:winapinls.obj
 0002:00004738       ??_C@_1M@CLNBBOPM@?$AAz?$AAh?$AA?9?$AAT?$AAW?$AA?$AA@ 0000000180065738     libcpmt:winapinls.obj
 0002:00004748       ??_C@_1M@IJJHFJHA@?$AAc?$AAs?$AA?9?$AAC?$AAZ?$AA?$AA@ 0000000180065748     libcpmt:winapinls.obj
 0002:00004758       ??_C@_1M@CLPEOBGI@?$AAd?$AAa?$AA?9?$AAD?$AAK?$AA?$AA@ 0000000180065758     libcpmt:winapinls.obj
 0002:00004768       ??_C@_1M@MCMADGCB@?$AAd?$AAe?$AA?9?$AAD?$AAE?$AA?$AA@ 0000000180065768     libcpmt:winapinls.obj
 0002:00004778       ??_C@_1M@OOCKEMAM@?$AAe?$AAl?$AA?9?$AAG?$AAR?$AA?$AA@ 0000000180065778     libcpmt:winapinls.obj
 0002:00004788       ??_C@_1M@BMHNFIME@?$AAe?$AAn?$AA?9?$AAU?$AAS?$AA?$AA@ 0000000180065788     libcpmt:winapinls.obj
 0002:00004798       ??_C@_1M@DDNJFGID@?$AAf?$AAi?$AA?9?$AAF?$AAI?$AA?$AA@ 0000000180065798     libcpmt:winapinls.obj
 0002:000047a8       ??_C@_1M@GLIPPMAC@?$AAf?$AAr?$AA?9?$AAF?$AAR?$AA?$AA@ 00000001800657a8     libcpmt:winapinls.obj
 0002:000047b8       ??_C@_1M@GFMCHPE@?$AAh?$AAe?$AA?9?$AAI?$AAL?$AA?$AA@ 00000001800657b8     libcpmt:winapinls.obj
 0002:000047c8       ??_C@_1M@MHLPGNKM@?$AAh?$AAu?$AA?9?$AAH?$AAU?$AA?$AA@ 00000001800657c8     libcpmt:winapinls.obj
 0002:000047d8       ??_C@_1M@LPDDNNPN@?$AAi?$AAs?$AA?9?$AAI?$AAS?$AA?$AA@ 00000001800657d8     libcpmt:winapinls.obj
 0002:000047e8       ??_C@_1M@MADIPODN@?$AAi?$AAt?$AA?9?$AAI?$AAT?$AA?$AA@ 00000001800657e8     libcpmt:winapinls.obj
 0002:000047f8       ??_C@_1M@HPNHIDJI@?$AAj?$AAa?$AA?9?$AAJ?$AAP?$AA?$AA@ 00000001800657f8     libcpmt:winapinls.obj
 0002:00004808       ??_C@_1M@JLOOOEGK@?$AAk?$AAo?$AA?9?$AAK?$AAR?$AA?$AA@ 0000000180065808     libcpmt:winapinls.obj
 0002:00004818       ??_C@_1M@IHBJJGG@?$AAn?$AAl?$AA?9?$AAN?$AAL?$AA?$AA@ 0000000180065818     libcpmt:winapinls.obj
 0002:00004828       ??_C@_1M@EANAGDL@?$AAn?$AAb?$AA?9?$AAN?$AAO?$AA?$AA@ 0000000180065828     libcpmt:winapinls.obj
 0002:00004838       ??_C@_1M@NEIEMEGP@?$AAp?$AAl?$AA?9?$AAP?$AAL?$AA?$AA@ 0000000180065838     libcpmt:winapinls.obj
 0002:00004848       ??_C@_1M@BOCFIGEP@?$AAp?$AAt?$AA?9?$AAB?$AAR?$AA?$AA@ 0000000180065848     libcpmt:winapinls.obj
 0002:00004858       ??_C@_1M@IMPFOPBG@?$AAr?$AAo?$AA?9?$AAR?$AAO?$AA?$AA@ 0000000180065858     libcpmt:winapinls.obj
 0002:00004868       ??_C@_1M@IDNNEJMM@?$AAr?$AAu?$AA?9?$AAR?$AAU?$AA?$AA@ 0000000180065868     libcpmt:winapinls.obj
 0002:00004878       ??_C@_1M@LILEEOGM@?$AAh?$AAr?$AA?9?$AAH?$AAR?$AA?$AA@ 0000000180065878     libcpmt:winapinls.obj
 0002:00004888       ??_C@_1M@FKIFEHPB@?$AAs?$AAk?$AA?9?$AAS?$AAK?$AA?$AA@ 0000000180065888     libcpmt:winapinls.obj
 0002:00004898       ??_C@_1M@LJMAMNPJ@?$AAs?$AAq?$AA?9?$AAA?$AAL?$AA?$AA@ 0000000180065898     libcpmt:winapinls.obj
 0002:000048a8       ??_C@_1M@GIAKDKJK@?$AAs?$AAv?$AA?9?$AAS?$AAE?$AA?$AA@ 00000001800658a8     libcpmt:winapinls.obj
 0002:000048b8       ??_C@_1M@MKJKIKCL@?$AAt?$AAh?$AA?9?$AAT?$AAH?$AA?$AA@ 00000001800658b8     libcpmt:winapinls.obj
 0002:000048c8       ??_C@_1M@MFLCCMPB@?$AAt?$AAr?$AA?9?$AAT?$AAR?$AA?$AA@ 00000001800658c8     libcpmt:winapinls.obj
 0002:000048d8       ??_C@_1M@OIJHDKJN@?$AAu?$AAr?$AA?9?$AAP?$AAK?$AA?$AA@ 00000001800658d8     libcpmt:winapinls.obj
 0002:000048e8       ??_C@_1M@LHIPCIEK@?$AAi?$AAd?$AA?9?$AAI?$AAD?$AA?$AA@ 00000001800658e8     libcpmt:winapinls.obj
 0002:000048f8       ??_C@_1M@MFMOBGI@?$AAu?$AAk?$AA?9?$AAU?$AAA?$AA?$AA@ 00000001800658f8     libcpmt:winapinls.obj
 0002:00004908       ??_C@_1M@OBGLJIPL@?$AAb?$AAe?$AA?9?$AAB?$AAY?$AA?$AA@ 0000000180065908     libcpmt:winapinls.obj
 0002:00004918       ??_C@_1M@BCFAJEAD@?$AAs?$AAl?$AA?9?$AAS?$AAI?$AA?$AA@ 0000000180065918     libcpmt:winapinls.obj
 0002:00004928       ??_C@_1M@FKFFEDDN@?$AAe?$AAt?$AA?9?$AAE?$AAE?$AA?$AA@ 0000000180065928     libcpmt:winapinls.obj
 0002:00004938       ??_C@_1M@KGKKAACI@?$AAl?$AAv?$AA?9?$AAL?$AAV?$AA?$AA@ 0000000180065938     libcpmt:winapinls.obj
 0002:00004948       ??_C@_1M@IFGBIJO@?$AAl?$AAt?$AA?9?$AAL?$AAT?$AA?$AA@ 0000000180065948     libcpmt:winapinls.obj
 0002:00004958       ??_C@_1M@FGEAHEDM@?$AAf?$AAa?$AA?9?$AAI?$AAR?$AA?$AA@ 0000000180065958     libcpmt:winapinls.obj
 0002:00004968       ??_C@_1M@KBMAIBFN@?$AAv?$AAi?$AA?9?$AAV?$AAN?$AA?$AA@ 0000000180065968     libcpmt:winapinls.obj
 0002:00004978       ??_C@_1M@GPCBKDJK@?$AAh?$AAy?$AA?9?$AAA?$AAM?$AA?$AA@ 0000000180065978     libcpmt:winapinls.obj
 0002:00004988       ??_C@_1BG@BECMDDJB@?$AAa?$AAz?$AA?9?$AAA?$AAZ?$AA?9?$AAL?$AAa?$AAt?$AAn?$AA?$AA@ 0000000180065988     libcpmt:winapinls.obj
 0002:000049a0       ??_C@_1M@MAOFCAEA@?$AAe?$AAu?$AA?9?$AAE?$AAS?$AA?$AA@ 00000001800659a0     libcpmt:winapinls.obj
 0002:000049b0       ??_C@_1M@IGHABKPI@?$AAm?$AAk?$AA?9?$AAM?$AAK?$AA?$AA@ 00000001800659b0     libcpmt:winapinls.obj
 0002:000049c0       ??_C@_1M@IAIGNEJG@?$AAt?$AAn?$AA?9?$AAZ?$AAA?$AA?$AA@ 00000001800659c0     libcpmt:winapinls.obj
 0002:000049d0       ??_C@_1M@IIJCOJFA@?$AAx?$AAh?$AA?9?$AAZ?$AAA?$AA?$AA@ 00000001800659d0     libcpmt:winapinls.obj
 0002:000049e0       ??_C@_1M@LGPJHNJH@?$AAz?$AAu?$AA?9?$AAZ?$AAA?$AA?$AA@ 00000001800659e0     libcpmt:winapinls.obj
 0002:000049f0       ??_C@_1M@HOKAOIO@?$AAa?$AAf?$AA?9?$AAZ?$AAA?$AA?$AA@ 00000001800659f0     libcpmt:winapinls.obj
 0002:00004a00       ??_C@_1M@DPCLHLIE@?$AAk?$AAa?$AA?9?$AAG?$AAE?$AA?$AA@ 0000000180065a00     libcpmt:winapinls.obj
 0002:00004a10       ??_C@_1M@BLKMHJBI@?$AAf?$AAo?$AA?9?$AAF?$AAO?$AA?$AA@ 0000000180065a10     libcpmt:winapinls.obj
 0002:00004a20       ??_C@_1M@LGGJAPPB@?$AAh?$AAi?$AA?9?$AAI?$AAN?$AA?$AA@ 0000000180065a20     libcpmt:winapinls.obj
 0002:00004a30       ??_C@_1M@FIKPIHFE@?$AAm?$AAt?$AA?9?$AAM?$AAT?$AA?$AA@ 0000000180065a30     libcpmt:winapinls.obj
 0002:00004a40       ??_C@_1M@HEGGPBFA@?$AAs?$AAe?$AA?9?$AAN?$AAO?$AA?$AA@ 0000000180065a40     libcpmt:winapinls.obj
 0002:00004a50       ??_C@_1M@EIBJEEPA@?$AAm?$AAs?$AA?9?$AAM?$AAY?$AA?$AA@ 0000000180065a50     libcpmt:winapinls.obj
 0002:00004a60       ??_C@_1M@FHLBGMPP@?$AAk?$AAk?$AA?9?$AAK?$AAZ?$AA?$AA@ 0000000180065a60     libcpmt:winapinls.obj
 0002:00004a70       ??_C@_1M@NGJJLCGI@?$AAk?$AAy?$AA?9?$AAK?$AAG?$AA?$AA@ 0000000180065a70     libcpmt:winapinls.obj
 0002:00004a80       ??_C@_1M@GIENNBFC@?$AAs?$AAw?$AA?9?$AAK?$AAE?$AA?$AA@ 0000000180065a80     libcpmt:winapinls.obj
 0002:00004a90       ??_C@_1BG@NDGMJIMJ@?$AAu?$AAz?$AA?9?$AAU?$AAZ?$AA?9?$AAL?$AAa?$AAt?$AAn?$AA?$AA@ 0000000180065a90     libcpmt:winapinls.obj
 0002:00004aa8       ??_C@_1M@IDCCIHBC@?$AAt?$AAt?$AA?9?$AAR?$AAU?$AA?$AA@ 0000000180065aa8     libcpmt:winapinls.obj
 0002:00004ab8       ??_C@_1M@LOICPMOJ@?$AAb?$AAn?$AA?9?$AAI?$AAN?$AA?$AA@ 0000000180065ab8     libcpmt:winapinls.obj
 0002:00004ac8       ??_C@_1M@KPKKNEAH@?$AAp?$AAa?$AA?9?$AAI?$AAN?$AA?$AA@ 0000000180065ac8     libcpmt:winapinls.obj
 0002:00004ad8       ??_C@_1M@PJGPPBOG@?$AAg?$AAu?$AA?9?$AAI?$AAN?$AA?$AA@ 0000000180065ad8     libcpmt:winapinls.obj
 0002:00004ae8       ??_C@_1M@KMKMOPHI@?$AAt?$AAa?$AA?9?$AAI?$AAN?$AA?$AA@ 0000000180065ae8     libcpmt:winapinls.obj
 0002:00004af8       ??_C@_1M@KFEHEPAC@?$AAt?$AAe?$AA?9?$AAI?$AAN?$AA?$AA@ 0000000180065af8     libcpmt:winapinls.obj
 0002:00004b08       ??_C@_1M@CDCLMGHI@?$AAk?$AAn?$AA?9?$AAI?$AAN?$AA?$AA@ 0000000180065b08     libcpmt:winapinls.obj
 0002:00004b18       ??_C@_1M@MIODLDKF@?$AAm?$AAl?$AA?9?$AAI?$AAN?$AA?$AA@ 0000000180065b18     libcpmt:winapinls.obj
 0002:00004b28       ??_C@_1M@PBIEACPO@?$AAm?$AAr?$AA?9?$AAI?$AAN?$AA?$AA@ 0000000180065b28     libcpmt:winapinls.obj
 0002:00004b38       ??_C@_1M@NIDEAGPH@?$AAs?$AAa?$AA?9?$AAI?$AAN?$AA?$AA@ 0000000180065b38     libcpmt:winapinls.obj
 0002:00004b48       ??_C@_1M@FHIHCBIO@?$AAm?$AAn?$AA?9?$AAM?$AAN?$AA?$AA@ 0000000180065b48     libcpmt:winapinls.obj
 0002:00004b58       ??_C@_1M@JAIJPENP@?$AAc?$AAy?$AA?9?$AAG?$AAB?$AA?$AA@ 0000000180065b58     libcpmt:winapinls.obj
 0002:00004b68       ??_C@_1M@PHGFBEPN@?$AAg?$AAl?$AA?9?$AAE?$AAS?$AA?$AA@ 0000000180065b68     libcpmt:winapinls.obj
 0002:00004b78       ??_C@_1O@KPIPDNCP@?$AAk?$AAo?$AAk?$AA?9?$AAI?$AAN?$AA?$AA@ 0000000180065b78     libcpmt:winapinls.obj
 0002:00004b88       ??_C@_1O@KNHJLDJA@?$AAs?$AAy?$AAr?$AA?9?$AAS?$AAY?$AA?$AA@ 0000000180065b88     libcpmt:winapinls.obj
 0002:00004b98       ??_C@_1O@MKEKBLAH@?$AAd?$AAi?$AAv?$AA?9?$AAM?$AAV?$AA?$AA@ 0000000180065b98     libcpmt:winapinls.obj
 0002:00004ba8       ??_C@_1O@OHDCKDDF@?$AAq?$AAu?$AAz?$AA?9?$AAB?$AAO?$AA?$AA@ 0000000180065ba8     libcpmt:winapinls.obj
 0002:00004bb8       ??_C@_1M@LEPJNLFD@?$AAn?$AAs?$AA?9?$AAZ?$AAA?$AA?$AA@ 0000000180065bb8     libcpmt:winapinls.obj
 0002:00004bc8       ??_C@_1M@OMLEIIJB@?$AAm?$AAi?$AA?9?$AAN?$AAZ?$AA?$AA@ 0000000180065bc8     libcpmt:winapinls.obj
 0002:00004bd8       ??_C@_1M@PMPEAILG@?$AAa?$AAr?$AA?9?$AAI?$AAQ?$AA?$AA@ 0000000180065bd8     libcpmt:winapinls.obj
 0002:00004be8       ??_C@_1M@BIBDDEMK@?$AAz?$AAh?$AA?9?$AAC?$AAN?$AA?$AA@ 0000000180065be8     libcpmt:winapinls.obj
 0002:00004bf8       ??_C@_1M@CNKPNOEE@?$AAd?$AAe?$AA?9?$AAC?$AAH?$AA?$AA@ 0000000180065bf8     libcpmt:winapinls.obj
 0002:00004c08       ??_C@_1M@LKMGMLKO@?$AAe?$AAn?$AA?9?$AAG?$AAB?$AA?$AA@ 0000000180065c08     libcpmt:winapinls.obj
 0002:00004c18       ??_C@_1M@PGKJFFGL@?$AAe?$AAs?$AA?9?$AAM?$AAX?$AA?$AA@ 0000000180065c18     libcpmt:winapinls.obj
 0002:00004c28       ??_C@_1M@DNNANBDC@?$AAf?$AAr?$AA?9?$AAB?$AAE?$AA?$AA@ 0000000180065c28     libcpmt:winapinls.obj
 0002:00004c38       ??_C@_1M@HLGMDFHM@?$AAi?$AAt?$AA?9?$AAC?$AAH?$AA?$AA@ 0000000180065c38     libcpmt:winapinls.obj
 0002:00004c48       ??_C@_1M@CLLBGJH@?$AAn?$AAl?$AA?9?$AAB?$AAE?$AA?$AA@ 0000000180065c48     libcpmt:winapinls.obj
 0002:00004c58       ??_C@_1M@BODBOGLF@?$AAn?$AAn?$AA?9?$AAN?$AAO?$AA?$AA@ 0000000180065c58     libcpmt:winapinls.obj
 0002:00004c68       ??_C@_1M@HFFAHKAD@?$AAp?$AAt?$AA?9?$AAP?$AAT?$AA?$AA@ 0000000180065c68     libcpmt:winapinls.obj
 0002:00004c78       ??_C@_1BG@LNOAKHIE@?$AAs?$AAr?$AA?9?$AAS?$AAP?$AA?9?$AAL?$AAa?$AAt?$AAn?$AA?$AA@ 0000000180065c78     libcpmt:winapinls.obj
 0002:00004c90       ??_C@_1M@HBMHBGAK@?$AAs?$AAv?$AA?9?$AAF?$AAI?$AA?$AA@ 0000000180065c90     libcpmt:winapinls.obj
 0002:00004ca0       ??_C@_1BG@DGCJGJBE@?$AAa?$AAz?$AA?9?$AAA?$AAZ?$AA?9?$AAC?$AAy?$AAr?$AAl?$AA?$AA@ 0000000180065ca0     libcpmt:winapinls.obj
 0002:00004cb8       ??_C@_1M@KEJDAAHB@?$AAs?$AAe?$AA?9?$AAS?$AAE?$AA?$AA@ 0000000180065cb8     libcpmt:winapinls.obj
 0002:00004cc8       ??_C@_1M@HEIBJJAD@?$AAm?$AAs?$AA?9?$AAB?$AAN?$AA?$AA@ 0000000180065cc8     libcpmt:winapinls.obj
 0002:00004cd8       ??_C@_1BG@PBGJMCEM@?$AAu?$AAz?$AA?9?$AAU?$AAZ?$AA?9?$AAC?$AAy?$AAr?$AAl?$AA?$AA@ 0000000180065cd8     libcpmt:winapinls.obj
 0002:00004cf0       ??_C@_1O@LAOBCMDF@?$AAq?$AAu?$AAz?$AA?9?$AAE?$AAC?$AA?$AA@ 0000000180065cf0     libcpmt:winapinls.obj
 0002:00004d00       ??_C@_1M@POEEMAIO@?$AAa?$AAr?$AA?9?$AAE?$AAG?$AA?$AA@ 0000000180065d00     libcpmt:winapinls.obj
 0002:00004d10       ??_C@_1M@EFAKDEDL@?$AAz?$AAh?$AA?9?$AAH?$AAK?$AA?$AA@ 0000000180065d10     libcpmt:winapinls.obj
 0002:00004d20       ??_C@_1M@HKKIJHGI@?$AAd?$AAe?$AA?9?$AAA?$AAT?$AA?$AA@ 0000000180065d20     libcpmt:winapinls.obj
 0002:00004d30       ??_C@_1M@KBFBEHJF@?$AAe?$AAn?$AA?9?$AAA?$AAU?$AA?$AA@ 0000000180065d30     libcpmt:winapinls.obj
 0002:00004d40       ??_C@_1M@MNPLFAAH@?$AAe?$AAs?$AA?9?$AAE?$AAS?$AA?$AA@ 0000000180065d40     libcpmt:winapinls.obj
 0002:00004d50       ??_C@_1M@HJOOJFMA@?$AAf?$AAr?$AA?9?$AAC?$AAA?$AA?$AA@ 0000000180065d50     libcpmt:winapinls.obj
 0002:00004d60       ??_C@_1BG@JPOFPNAB@?$AAs?$AAr?$AA?9?$AAS?$AAP?$AA?9?$AAC?$AAy?$AAr?$AAl?$AA?$AA@ 0000000180065d60     libcpmt:winapinls.obj
 0002:00004d78       ??_C@_1M@LNFOCMOB@?$AAs?$AAe?$AA?9?$AAF?$AAI?$AA?$AA@ 0000000180065d78     libcpmt:winapinls.obj
 0002:00004d88       ??_C@_1O@MGJBOAMB@?$AAq?$AAu?$AAz?$AA?9?$AAP?$AAE?$AA?$AA@ 0000000180065d88     libcpmt:winapinls.obj
 0002:00004d98       ??_C@_1M@GJINLBOK@?$AAa?$AAr?$AA?9?$AAL?$AAY?$AA?$AA@ 0000000180065d98     libcpmt:winapinls.obj
 0002:00004da8       ??_C@_1M@GGMNHJNL@?$AAz?$AAh?$AA?9?$AAS?$AAG?$AA?$AA@ 0000000180065da8     libcpmt:winapinls.obj
 0002:00004db8       ??_C@_1M@HOIKODND@?$AAd?$AAe?$AA?9?$AAL?$AAU?$AA?$AA@ 0000000180065db8     libcpmt:winapinls.obj
 0002:00004dc8       ??_C@_1M@DDOCCGFG@?$AAe?$AAn?$AA?9?$AAC?$AAA?$AA?$AA@ 0000000180065dc8     libcpmt:winapinls.obj
 0002:00004dd8       ??_C@_1M@BNOEMJLF@?$AAe?$AAs?$AA?9?$AAG?$AAT?$AA?$AA@ 0000000180065dd8     libcpmt:winapinls.obj
 0002:00004de8       ??_C@_1M@EOGNKEK@?$AAf?$AAr?$AA?9?$AAC?$AAH?$AA?$AA@ 0000000180065de8     libcpmt:winapinls.obj
 0002:00004df8       ??_C@_1M@FLIDJFHL@?$AAh?$AAr?$AA?9?$AAB?$AAA?$AA?$AA@ 0000000180065df8     libcpmt:winapinls.obj
 0002:00004e08       ??_C@_1O@FMCELNAJ@?$AAs?$AAm?$AAj?$AA?9?$AAN?$AAO?$AA?$AA@ 0000000180065e08     libcpmt:winapinls.obj
 0002:00004e18       ??_C@_1M@JHGLJMGJ@?$AAa?$AAr?$AA?9?$AAD?$AAZ?$AA?$AA@ 0000000180065e18     libcpmt:winapinls.obj
 0002:00004e28       ??_C@_1M@JKKFDCNP@?$AAz?$AAh?$AA?9?$AAM?$AAO?$AA?$AA@ 0000000180065e28     libcpmt:winapinls.obj
 0002:00004e38       ??_C@_1M@GEEFALPE@?$AAd?$AAe?$AA?9?$AAL?$AAI?$AA?$AA@ 0000000180065e38     libcpmt:winapinls.obj
 0002:00004e48       ??_C@_1M@IGEOFBG@?$AAe?$AAn?$AA?9?$AAN?$AAZ?$AA?$AA@ 0000000180065e48     libcpmt:winapinls.obj
 0002:00004e58       ??_C@_1M@KDBONEHP@?$AAe?$AAs?$AA?9?$AAC?$AAR?$AA?$AA@ 0000000180065e58     libcpmt:winapinls.obj
 0002:00004e68       ??_C@_1M@FHMDOHNN@?$AAf?$AAr?$AA?9?$AAL?$AAU?$AA?$AA@ 0000000180065e68     libcpmt:winapinls.obj
 0002:00004e78       ??_C@_1BG@NFKKMAFG@?$AAb?$AAs?$AA?9?$AAB?$AAA?$AA?9?$AAL?$AAa?$AAt?$AAn?$AA?$AA@ 0000000180065e78     libcpmt:winapinls.obj
 0002:00004e90       ??_C@_1O@IMNBEMCI@?$AAs?$AAm?$AAj?$AA?9?$AAS?$AAE?$AA?$AA@ 0000000180065e90     libcpmt:winapinls.obj
 0002:00004ea0       ??_C@_1M@DHHMBNDP@?$AAa?$AAr?$AA?9?$AAM?$AAA?$AA?$AA@ 0000000180065ea0     libcpmt:winapinls.obj
 0002:00004eb0       ??_C@_1M@BNBLJCGH@?$AAe?$AAn?$AA?9?$AAI?$AAE?$AA?$AA@ 0000000180065eb0     libcpmt:winapinls.obj
 0002:00004ec0       ??_C@_1M@GEPAFMDL@?$AAe?$AAs?$AA?9?$AAP?$AAA?$AA?$AA@ 0000000180065ec0     libcpmt:winapinls.obj
 0002:00004ed0       ??_C@_1M@OJONDMDL@?$AAf?$AAr?$AA?9?$AAM?$AAC?$AA?$AA@ 0000000180065ed0     libcpmt:winapinls.obj
 0002:00004ee0       ??_C@_1BG@OBCNFJB@?$AAs?$AAr?$AA?9?$AAB?$AAA?$AA?9?$AAL?$AAa?$AAt?$AAn?$AA?$AA@ 0000000180065ee0     libcpmt:winapinls.obj
 0002:00004ef8       ??_C@_1O@KEMEEGPO@?$AAs?$AAm?$AAa?$AA?9?$AAN?$AAO?$AA?$AA@ 0000000180065ef8     libcpmt:winapinls.obj
 0002:00004f08       ??_C@_1M@ELMGFODK@?$AAa?$AAr?$AA?9?$AAT?$AAN?$AA?$AA@ 0000000180065f08     libcpmt:winapinls.obj
 0002:00004f18       ??_C@_1M@BHDLHFAF@?$AAe?$AAn?$AA?9?$AAZ?$AAA?$AA?$AA@ 0000000180065f18     libcpmt:winapinls.obj
 0002:00004f28       ??_C@_1M@BMGIGLIF@?$AAe?$AAs?$AA?9?$AAD?$AAO?$AA?$AA@ 0000000180065f28     libcpmt:winapinls.obj
 0002:00004f38       ??_C@_1BG@CMBHIPBE@?$AAs?$AAr?$AA?9?$AAB?$AAA?$AA?9?$AAC?$AAy?$AAr?$AAl?$AA?$AA@ 0000000180065f38     libcpmt:winapinls.obj
 0002:00004f50       ??_C@_1O@HEDBLHNP@?$AAs?$AAm?$AAa?$AA?9?$AAS?$AAE?$AA?$AA@ 0000000180065f50     libcpmt:winapinls.obj
 0002:00004f60       ??_C@_1M@DAGCADIM@?$AAa?$AAr?$AA?9?$AAO?$AAM?$AA?$AA@ 0000000180065f60     libcpmt:winapinls.obj
 0002:00004f70       ??_C@_1M@FODLMICG@?$AAe?$AAn?$AA?9?$AAJ?$AAM?$AA?$AA@ 0000000180065f70     libcpmt:winapinls.obj
 0002:00004f80       ??_C@_1M@DNMLCIHB@?$AAe?$AAs?$AA?9?$AAV?$AAE?$AA?$AA@ 0000000180065f80     libcpmt:winapinls.obj
 0002:00004f90       ??_C@_1O@EOKHMKJK@?$AAs?$AAm?$AAs?$AA?9?$AAF?$AAI?$AA?$AA@ 0000000180065f90     libcpmt:winapinls.obj
 0002:00004fa0       ??_C@_1M@CAFJMKOF@?$AAa?$AAr?$AA?9?$AAY?$AAE?$AA?$AA@ 0000000180065fa0     libcpmt:winapinls.obj
 0002:00004fb0       ??_C@_1M@CBFHIJLI@?$AAe?$AAn?$AA?9?$AAC?$AAB?$AA?$AA@ 0000000180065fb0     libcpmt:winapinls.obj
 0002:00004fc0       ??_C@_1M@BGNFLDN@?$AAe?$AAs?$AA?9?$AAC?$AAO?$AA?$AA@ 0000000180065fc0     libcpmt:winapinls.obj
 0002:00004fd0       ??_C@_1O@JMPHMAMC@?$AAs?$AAm?$AAn?$AA?9?$AAF?$AAI?$AA?$AA@ 0000000180065fd0     libcpmt:winapinls.obj
 0002:00004fe0       ??_C@_1M@JLANABKE@?$AAa?$AAr?$AA?9?$AAS?$AAY?$AA?$AA@ 0000000180065fe0     libcpmt:winapinls.obj
 0002:00004ff0       ??_C@_1M@HPKGCFGN@?$AAe?$AAn?$AA?9?$AAB?$AAZ?$AA?$AA@ 0000000180065ff0     libcpmt:winapinls.obj
 0002:00005000       ??_C@_1M@OLJCMLGM@?$AAe?$AAs?$AA?9?$AAP?$AAE?$AA?$AA@ 0000000180066000     libcpmt:winapinls.obj
 0002:00005010       ??_C@_1M@MKKGFKLE@?$AAa?$AAr?$AA?9?$AAJ?$AAO?$AA?$AA@ 0000000180066010     libcpmt:winapinls.obj
 0002:00005020       ??_C@_1M@EKPGLDNI@?$AAe?$AAn?$AA?9?$AAT?$AAT?$AA?$AA@ 0000000180066020     libcpmt:winapinls.obj
 0002:00005030       ??_C@_1M@OONGHFHE@?$AAe?$AAs?$AA?9?$AAA?$AAR?$AA?$AA@ 0000000180066030     libcpmt:winapinls.obj
 0002:00005040       ??_C@_1M@OOJFGBHE@?$AAa?$AAr?$AA?9?$AAL?$AAB?$AA?$AA@ 0000000180066040     libcpmt:winapinls.obj
 0002:00005050       ??_C@_1M@GCEJHNEG@?$AAe?$AAn?$AA?9?$AAZ?$AAW?$AA?$AA@ 0000000180066050     libcpmt:winapinls.obj
 0002:00005060       ??_C@_1M@JNOCAHJI@?$AAe?$AAs?$AA?9?$AAE?$AAC?$AA?$AA@ 0000000180066060     libcpmt:winapinls.obj
 0002:00005070       ??_C@_1M@JEFHPGGB@?$AAa?$AAr?$AA?9?$AAK?$AAW?$AA?$AA@ 0000000180066070     libcpmt:winapinls.obj
 0002:00005080       ??_C@_1M@MLKIBJOJ@?$AAe?$AAn?$AA?9?$AAP?$AAH?$AA?$AA@ 0000000180066080     libcpmt:winapinls.obj
 0002:00005090       ??_C@_1M@BDNIPEND@?$AAe?$AAs?$AA?9?$AAC?$AAL?$AA?$AA@ 0000000180066090     libcpmt:winapinls.obj
 0002:000050a0       ??_C@_1M@MPNMEKBD@?$AAa?$AAr?$AA?9?$AAA?$AAE?$AA?$AA@ 00000001800660a0     libcpmt:winapinls.obj
 0002:000050b0       ??_C@_1M@KBJALCPI@?$AAe?$AAs?$AA?9?$AAU?$AAY?$AA?$AA@ 00000001800660b0     libcpmt:winapinls.obj
 0002:000050c0       ??_C@_1M@LLCCOAGA@?$AAa?$AAr?$AA?9?$AAB?$AAH?$AA?$AA@ 00000001800660c0     libcpmt:winapinls.obj
 0002:000050d0       ??_C@_1M@PBFNCDEL@?$AAe?$AAs?$AA?9?$AAP?$AAY?$AA?$AA@ 00000001800660d0     libcpmt:winapinls.obj
 0002:000050e0       ??_C@_1M@EDGINPNP@?$AAa?$AAr?$AA?9?$AAQ?$AAA?$AA?$AA@ 00000001800660e0     libcpmt:winapinls.obj
 0002:000050f0       ??_C@_1M@MKDBIIJI@?$AAe?$AAs?$AA?9?$AAB?$AAO?$AA?$AA@ 00000001800660f0     libcpmt:winapinls.obj
 0002:00005100       ??_C@_1M@CPKKEBLD@?$AAe?$AAs?$AA?9?$AAS?$AAV?$AA?$AA@ 0000000180066100     libcpmt:winapinls.obj
 0002:00005110       ??_C@_1M@NDBGMMJL@?$AAe?$AAs?$AA?9?$AAH?$AAN?$AA?$AA@ 0000000180066110     libcpmt:winapinls.obj
 0002:00005120       ??_C@_1M@JIJIBHDP@?$AAe?$AAs?$AA?9?$AAN?$AAI?$AA?$AA@ 0000000180066120     libcpmt:winapinls.obj
 0002:00005130       ??_C@_1M@CGFMKEEK@?$AAe?$AAs?$AA?9?$AAP?$AAR?$AA?$AA@ 0000000180066130     libcpmt:winapinls.obj
 0002:00005140       ??_C@_1O@ICJHKIIK@?$AAz?$AAh?$AA?9?$AAC?$AAH?$AAT?$AA?$AA@ 0000000180066140     libcpmt:winapinls.obj
 0002:00005150       ??_C@_15CLNEJCE@?$AAs?$AAr?$AA?$AA@ 0000000180066150     libcpmt:winapinls.obj
 0002:00005158       ??_C@_1M@KAHEKEIG@?$AAa?$AAf?$AA?9?$AAz?$AAa?$AA?$AA@ 0000000180066158     libcpmt:winapinls.obj
 0002:00005168       ??_C@_1M@GIECOABL@?$AAa?$AAr?$AA?9?$AAa?$AAe?$AA?$AA@ 0000000180066168     libcpmt:winapinls.obj
 0002:00005178       ??_C@_1M@BMLMEKGI@?$AAa?$AAr?$AA?9?$AAb?$AAh?$AA?$AA@ 0000000180066178     libcpmt:winapinls.obj
 0002:00005188       ??_C@_1M@DAPFDGGB@?$AAa?$AAr?$AA?9?$AAd?$AAz?$AA?$AA@ 0000000180066188     libcpmt:winapinls.obj
 0002:00005198       ??_C@_1M@FJNKGKIG@?$AAa?$AAr?$AA?9?$AAe?$AAg?$AA?$AA@ 0000000180066198     libcpmt:winapinls.obj
 0002:000051a8       ??_C@_1M@FLGKKCLO@?$AAa?$AAr?$AA?9?$AAi?$AAq?$AA?$AA@ 00000001800661a8     libcpmt:winapinls.obj
 0002:000051b8       ??_C@_1M@GNDIPALM@?$AAa?$AAr?$AA?9?$AAj?$AAo?$AA?$AA@ 00000001800661b8     libcpmt:winapinls.obj
 0002:000051c8       ??_C@_1M@DDMJFMGJ@?$AAa?$AAr?$AA?9?$AAk?$AAw?$AA?$AA@ 00000001800661c8     libcpmt:winapinls.obj
 0002:000051d8       ??_C@_1M@EJALMLHM@?$AAa?$AAr?$AA?9?$AAl?$AAb?$AA?$AA@ 00000001800661d8     libcpmt:winapinls.obj
 0002:000051e8       ??_C@_1M@MOBDBLOC@?$AAa?$AAr?$AA?9?$AAl?$AAy?$AA?$AA@ 00000001800661e8     libcpmt:winapinls.obj
 0002:000051f8       ??_C@_1M@JAOCLHDH@?$AAa?$AAr?$AA?9?$AAm?$AAa?$AA?$AA@ 00000001800661f8     libcpmt:winapinls.obj
 0002:00005208       ??_C@_1M@JHPMKJIE@?$AAa?$AAr?$AA?9?$AAo?$AAm?$AA?$AA@ 0000000180066208     libcpmt:winapinls.obj
 0002:00005218       ??_C@_1M@OEPGHFNH@?$AAa?$AAr?$AA?9?$AAq?$AAa?$AA?$AA@ 0000000180066218     libcpmt:winapinls.obj
 0002:00005228       ??_C@_1M@KJDONENM@?$AAa?$AAr?$AA?9?$AAs?$AAa?$AA?$AA@ 0000000180066228     libcpmt:winapinls.obj
 0002:00005238       ??_C@_1M@DMJDKLKM@?$AAa?$AAr?$AA?9?$AAs?$AAy?$AA?$AA@ 0000000180066238     libcpmt:winapinls.obj
 0002:00005248       ??_C@_1M@OMFIPEDC@?$AAa?$AAr?$AA?9?$AAt?$AAn?$AA?$AA@ 0000000180066248     libcpmt:winapinls.obj
 0002:00005258       ??_C@_1M@IHMHGAON@?$AAa?$AAr?$AA?9?$AAy?$AAe?$AA?$AA@ 0000000180066258     libcpmt:winapinls.obj
 0002:00005268       ??_C@_1BG@KDCPGJGB@?$AAa?$AAz?$AA?9?$AAa?$AAz?$AA?9?$AAc?$AAy?$AAr?$AAl?$AA?$AA@ 0000000180066268     libcpmt:winapinls.obj
 0002:00005280       ??_C@_1BG@IBCKDDOE@?$AAa?$AAz?$AA?9?$AAa?$AAz?$AA?9?$AAl?$AAa?$AAt?$AAn?$AA?$AA@ 0000000180066280     libcpmt:winapinls.obj
 0002:00005298       ??_C@_1M@EGPFDCPD@?$AAb?$AAe?$AA?9?$AAb?$AAy?$AA?$AA@ 0000000180066298     libcpmt:winapinls.obj
 0002:000052a8       ??_C@_1M@PCMGMCGC@?$AAb?$AAg?$AA?9?$AAb?$AAg?$AA?$AA@ 00000001800662a8     libcpmt:winapinls.obj
 0002:000052b8       ??_C@_1M@BJBMFGOB@?$AAb?$AAn?$AA?9?$AAi?$AAn?$AA?$AA@ 00000001800662b8     libcpmt:winapinls.obj
 0002:000052c8       ??_C@_1BG@EAKMMACD@?$AAb?$AAs?$AA?9?$AAb?$AAa?$AA?9?$AAl?$AAa?$AAt?$AAn?$AA?$AA@ 00000001800662c8     libcpmt:winapinls.obj
 0002:000052e0       ??_C@_1M@KGADAODK@?$AAc?$AAa?$AA?9?$AAe?$AAs?$AA?$AA@ 00000001800662e0     libcpmt:winapinls.obj
 0002:000052f0       ??_C@_1M@COAJPDHI@?$AAc?$AAs?$AA?9?$AAc?$AAz?$AA?$AA@ 00000001800662f0     libcpmt:winapinls.obj
 0002:00005300       ??_C@_1M@DHBHFONH@?$AAc?$AAy?$AA?9?$AAg?$AAb?$AA?$AA@ 0000000180066300     libcpmt:winapinls.obj
 0002:00005310       ??_C@_1M@IMGKELGA@?$AAd?$AAa?$AA?9?$AAd?$AAk?$AA?$AA@ 0000000180066310     libcpmt:winapinls.obj
 0002:00005320       ??_C@_1M@NNDGDNGA@?$AAd?$AAe?$AA?9?$AAa?$AAt?$AA?$AA@ 0000000180066320     libcpmt:winapinls.obj
 0002:00005330       ??_C@_1M@IKDBHEEM@?$AAd?$AAe?$AA?9?$AAc?$AAh?$AA?$AA@ 0000000180066330     libcpmt:winapinls.obj
 0002:00005340       ??_C@_1M@GFFOJMCJ@?$AAd?$AAe?$AA?9?$AAd?$AAe?$AA?$AA@ 0000000180066340     libcpmt:winapinls.obj
 0002:00005350       ??_C@_1M@MDNLKBPM@?$AAd?$AAe?$AA?9?$AAl?$AAi?$AA?$AA@ 0000000180066350     libcpmt:winapinls.obj
 0002:00005360       ??_C@_1M@NJBEEJNL@?$AAd?$AAe?$AA?9?$AAl?$AAu?$AA?$AA@ 0000000180066360     libcpmt:winapinls.obj
 0002:00005370       ??_C@_1O@GNNELBAP@?$AAd?$AAi?$AAv?$AA?9?$AAm?$AAv?$AA?$AA@ 0000000180066370     libcpmt:winapinls.obj
 0002:00005380       ??_C@_1M@EJLEOGAE@?$AAe?$AAl?$AA?9?$AAg?$AAr?$AA?$AA@ 0000000180066380     libcpmt:winapinls.obj
 0002:00005390       ??_C@_1M@GMPONJN@?$AAe?$AAn?$AA?9?$AAa?$AAu?$AA?$AA@ 0000000180066390     libcpmt:winapinls.obj
 0002:000053a0       ??_C@_1M@NIDIIPGF@?$AAe?$AAn?$AA?9?$AAb?$AAz?$AA?$AA@ 00000001800663a0     libcpmt:winapinls.obj
 0002:000053b0       ??_C@_1M@JEHMIMFO@?$AAe?$AAn?$AA?9?$AAc?$AAa?$AA?$AA@ 00000001800663b0     libcpmt:winapinls.obj
 0002:000053c0       ??_C@_1M@IGMJCDLA@?$AAe?$AAn?$AA?9?$AAc?$AAb?$AA?$AA@ 00000001800663c0     libcpmt:winapinls.obj
 0002:000053d0       ??_C@_1M@BNFIGBKG@?$AAe?$AAn?$AA?9?$AAg?$AAb?$AA?$AA@ 00000001800663d0     libcpmt:winapinls.obj
 0002:000053e0       ??_C@_1M@LKIFDIGP@?$AAe?$AAn?$AA?9?$AAi?$AAe?$AA?$AA@ 00000001800663e0     libcpmt:winapinls.obj
 0002:000053f0       ??_C@_1M@PJKFGCCO@?$AAe?$AAn?$AA?9?$AAj?$AAm?$AA?$AA@ 00000001800663f0     libcpmt:winapinls.obj
 0002:00005400       ??_C@_1M@KPPKEPBO@?$AAe?$AAn?$AA?9?$AAn?$AAz?$AA?$AA@ 0000000180066400     libcpmt:winapinls.obj
 0002:00005410       ??_C@_1M@GMDGLDOB@?$AAe?$AAn?$AA?9?$AAp?$AAh?$AA?$AA@ 0000000180066410     libcpmt:winapinls.obj
 0002:00005420       ??_C@_1M@ONGIBJNA@?$AAe?$AAn?$AA?9?$AAt?$AAt?$AA?$AA@ 0000000180066420     libcpmt:winapinls.obj
 0002:00005430       ??_C@_1M@LLODPCMM@?$AAe?$AAn?$AA?9?$AAu?$AAs?$AA?$AA@ 0000000180066430     libcpmt:winapinls.obj
 0002:00005440       ??_C@_1M@LAKFNPAN@?$AAe?$AAn?$AA?9?$AAz?$AAa?$AA?$AA@ 0000000180066440     libcpmt:winapinls.obj
 0002:00005450       ??_C@_1M@MFNHNHEO@?$AAe?$AAn?$AA?9?$AAz?$AAw?$AA?$AA@ 0000000180066450     libcpmt:winapinls.obj
 0002:00005460       ??_C@_1M@EJEINPHM@?$AAe?$AAs?$AA?9?$AAa?$AAr?$AA?$AA@ 0000000180066460     libcpmt:winapinls.obj
 0002:00005470       ??_C@_1M@GNKPCCJA@?$AAe?$AAs?$AA?9?$AAb?$AAo?$AA?$AA@ 0000000180066470     libcpmt:winapinls.obj
 0002:00005480       ??_C@_1M@LEEGFONL@?$AAe?$AAs?$AA?9?$AAc?$AAl?$AA?$AA@ 0000000180066480     libcpmt:winapinls.obj
 0002:00005490       ??_C@_1M@KGPDPBDF@?$AAe?$AAs?$AA?9?$AAc?$AAo?$AA?$AA@ 0000000180066490     libcpmt:winapinls.obj
 0002:000054a0       ??_C@_1M@EIAHOHH@?$AAe?$AAs?$AA?9?$AAc?$AAr?$AA?$AA@ 00000001800664a0     libcpmt:winapinls.obj
 0002:000054b0       ??_C@_1M@LLPGMBIN@?$AAe?$AAs?$AA?9?$AAd?$AAo?$AA?$AA@ 00000001800664b0     libcpmt:winapinls.obj
 0002:000054c0       ??_C@_1M@DKHMKNJA@?$AAe?$AAs?$AA?9?$AAe?$AAc?$AA?$AA@ 00000001800664c0     libcpmt:winapinls.obj
 0002:000054d0       ??_C@_1M@GKGFPKAP@?$AAe?$AAs?$AA?9?$AAe?$AAs?$AA?$AA@ 00000001800664d0     libcpmt:winapinls.obj
 0002:000054e0       ??_C@_1M@LKHKGDLN@?$AAe?$AAs?$AA?9?$AAg?$AAt?$AA?$AA@ 00000001800664e0     libcpmt:winapinls.obj
 0002:000054f0       ??_C@_1M@HEIIGGJD@?$AAe?$AAs?$AA?9?$AAh?$AAn?$AA?$AA@ 00000001800664f0     libcpmt:winapinls.obj
 0002:00005500       ??_C@_1M@FBDHPPGD@?$AAe?$AAs?$AA?9?$AAm?$AAx?$AA?$AA@ 0000000180066500     libcpmt:winapinls.obj
 0002:00005510       ??_C@_1M@DPAGLNDH@?$AAe?$AAs?$AA?9?$AAn?$AAi?$AA?$AA@ 0000000180066510     libcpmt:winapinls.obj
 0002:00005520       ??_C@_1M@MDGOPGDD@?$AAe?$AAs?$AA?9?$AAp?$AAa?$AA?$AA@ 0000000180066520     libcpmt:winapinls.obj
 0002:00005530       ??_C@_1M@EMAMGBGE@?$AAe?$AAs?$AA?9?$AAp?$AAe?$AA?$AA@ 0000000180066530     libcpmt:winapinls.obj
 0002:00005540       ??_C@_1M@IBMCAOEC@?$AAe?$AAs?$AA?9?$AAp?$AAr?$AA?$AA@ 0000000180066540     libcpmt:winapinls.obj
 0002:00005550       ??_C@_1M@FGMDIJED@?$AAe?$AAs?$AA?9?$AAp?$AAy?$AA?$AA@ 0000000180066550     libcpmt:winapinls.obj
 0002:00005560       ??_C@_1M@IIDEOLLL@?$AAe?$AAs?$AA?9?$AAs?$AAv?$AA?$AA@ 0000000180066560     libcpmt:winapinls.obj
 0002:00005570       ??_C@_1M@GAOBIPA@?$AAe?$AAs?$AA?9?$AAu?$AAy?$AA?$AA@ 0000000180066570     libcpmt:winapinls.obj
 0002:00005580       ??_C@_1M@JKFFICHJ@?$AAe?$AAs?$AA?9?$AAv?$AAe?$AA?$AA@ 0000000180066580     libcpmt:winapinls.obj
 0002:00005598       ??_7type_info@@6B@         0000000180066598     LIBCMT:std_type_info_static.obj
 0002:000055a0       _pDefaultRawDllMain        00000001800665a0     LIBCMT:dll_dllmain.obj
 0002:000055a0       _pRawDllMain               00000001800665a0     LIBCMT:dll_dllmain.obj
 0002:000055c0       ??_7bad_array_new_length@std@@6B@ 00000001800665c0     LIBCMT:throw_bad_alloc.obj
 0002:000055d0       ??_C@_0BF@KINCDENJ@bad?5array?5new?5length?$AA@ 00000001800665d0     LIBCMT:throw_bad_alloc.obj
 0002:00005668       ??_7improper_lock@Concurrency@@6B@ 0000000180066668     libconcrt:rtlocks.obj
 0002:00005678       ??_C@_0BD@BAGHDICJ@Lock?5already?5taken?$AA@ 0000000180066678     libconcrt:rtlocks.obj
 0002:00005698       ??_7scheduler_resource_allocation_error@Concurrency@@6B@ 0000000180066698     libconcrt:Platform.obj
 0002:000056a8       ??_C@_0BH@CJPDKMEB@SetThreadGroupAffinity?$AA@ 00000001800666a8     libconcrt:Platform.obj
 0002:000056c0       ??_C@_0BH@CINNILJO@GetThreadGroupAffinity?$AA@ 00000001800666c0     libconcrt:Platform.obj
 0002:000056d8       ??_C@_0BM@JLHMEGJA@GetCurrentProcessorNumberEx?$AA@ 00000001800666d8     libconcrt:Platform.obj
 0002:000056f8       ??_C@_0CB@HOJBBPPI@GetLogicalProcessorInformationEx@ 00000001800666f8     libconcrt:Platform.obj
 0002:00005728       ??_7scheduler_worker_creation_error@Concurrency@@6B@ 0000000180066728     libconcrt:Exceptions.obj
 0002:00005740       ??_7unsupported_os@Concurrency@@6B@ 0000000180066740     libconcrt:Exceptions.obj
 0002:00005758       ??_7improper_scheduler_attach@Concurrency@@6B@ 0000000180066758     libconcrt:Exceptions.obj
 0002:00005770       ??_7improper_scheduler_reference@Concurrency@@6B@ 0000000180066770     libconcrt:Exceptions.obj
 0002:00005788       ??_7context_unblock_unbalanced@Concurrency@@6B@ 0000000180066788     libconcrt:Exceptions.obj
 0002:000057a0       ??_7context_self_unblock@Concurrency@@6B@ 00000001800667a0     libconcrt:Exceptions.obj
 0002:000057b8       ??_7missing_wait@Concurrency@@6B@ 00000001800667b8     libconcrt:Exceptions.obj
 0002:000057d0       ??_7invalid_scheduler_policy_key@Concurrency@@6B@ 00000001800667d0     libconcrt:Exceptions.obj
 0002:000057e8       ??_7invalid_scheduler_policy_value@Concurrency@@6B@ 00000001800667e8     libconcrt:Exceptions.obj
 0002:00005800       ??_7invalid_scheduler_policy_thread_specification@Concurrency@@6B@ 0000000180066800     libconcrt:Exceptions.obj
 0002:00005818       ??_7nested_scheduler_missing_detach@Concurrency@@6B@ 0000000180066818     libconcrt:Exceptions.obj
 0002:00005830       ??_7invalid_oversubscribe_operation@Concurrency@@6B@ 0000000180066830     libconcrt:Exceptions.obj
 0002:00005ac8       ??_7invalid_operation@Concurrency@@6B@ 0000000180066ac8     libconcrt:ResourceManager.obj
 0002:00005ae0       ??_7TopologyObject@GlobalCore@details@Concurrency@@6B@ 0000000180066ae0     libconcrt:ResourceManager.obj
 0002:00005af8       ??_7TopologyObject@GlobalNode@details@Concurrency@@6B@ 0000000180066af8     libconcrt:ResourceManager.obj
 0002:00005b28       ??_7ResourceManager@details@Concurrency@@6B@ 0000000180066b28     libconcrt:ResourceManager.obj
 0002:00005b58       ??_C@_05IOMEMJEC@count?$AA@ 0000000180066b58     libconcrt:ResourceManager.obj
 0002:00005b60       ??_C@_0L@HKFDMHB@pScheduler?$AA@ 0000000180066b60     libconcrt:ResourceManager.obj
 0002:00005b70       ??_C@_07CPCPJPKL@version?$AA@ 0000000180066b70     libconcrt:ResourceManager.obj
 0002:00005b78       __real@0000000000000000    0000000180066b78     libconcrt:ResourceManager.obj
 0002:00005b80       __real@3e7ad7f29abcaf48    0000000180066b80     libconcrt:ResourceManager.obj
 0002:00005b88       __real@3ff0000000000000    0000000180066b88     libconcrt:ResourceManager.obj
 0002:00005b90       ?s_maxExternalAllocators@SchedulerBase@details@Concurrency@@0HB 0000000180066b90     libconcrt:SchedulerBase.obj
 0002:00005b94       ?s_allocatorFreePoolLimit@SchedulerBase@details@Concurrency@@0HB 0000000180066b94     libconcrt:SchedulerBase.obj
 0002:00005e98       ??_7ScheduleGroup@Concurrency@@6B@ 0000000180066e98     libconcrt:SchedulerBase.obj
 0002:00005ec8       ??_7Scheduler@Concurrency@@6B@ 0000000180066ec8     libconcrt:SchedulerBase.obj
 0002:00005f38       ??_7_Chore@details@Concurrency@@6B@ 0000000180066f38     libconcrt:SchedulerBase.obj
 0002:00005f48       ??_7RealizedChore@details@Concurrency@@6B@ 0000000180066f48     libconcrt:SchedulerBase.obj
 0002:00005f58       ??_7SchedulerBase@details@Concurrency@@6B@ 0000000180066f58     libconcrt:SchedulerBase.obj
 0002:00006020       ??_7CacheLocalScheduleGroupSegment@details@Concurrency@@6B@ 0000000180067020     libconcrt:SchedulerBase.obj
 0002:00006048       ??_7CacheLocalScheduleGroup@details@Concurrency@@6B@ 0000000180067048     libconcrt:SchedulerBase.obj
 0002:000060a0       ??_7FairScheduleGroupSegment@details@Concurrency@@6B@ 00000001800670a0     libconcrt:SchedulerBase.obj
 0002:000060c8       ??_7FairScheduleGroup@details@Concurrency@@6B@ 00000001800670c8     libconcrt:SchedulerBase.obj
 0002:00006118       ??_C@_0M@IAPOLKMH@eventObject?$AA@ 0000000180067118     libconcrt:SchedulerBase.obj
 0002:00006128       ??_C@_0BI@PMOAFEOC@ppVirtualProcessorRoots?$AA@ 0000000180067128     libconcrt:SchedulerBase.obj
 0002:000062b0       ??_7WaitBlock@details@Concurrency@@6B@ 00000001800672b0     libconcrt:event.obj
 0002:000062e0       ??_7SingleWaitBlock@details@Concurrency@@6B@ 00000001800672e0     libconcrt:event.obj
 0002:00006310       ??_7MultiWaitBlock@details@Concurrency@@6B@ 0000000180067310     libconcrt:event.obj
 0002:00006348       ??_7WaitAllBlock@details@Concurrency@@6B@ 0000000180067348     libconcrt:event.obj
 0002:00006380       ??_7WaitAnyBlock@details@Concurrency@@6B@ 0000000180067380     libconcrt:event.obj
 0002:000063b8       ??_7TimedSingleWaitBlock@details@Concurrency@@6B@ 00000001800673b8     libconcrt:event.obj
 0002:000063e8       ??_7?$_MallocaArrayHolder@PEAVContext@Concurrency@@@details@Concurrency@@6B@ 00000001800673e8     libconcrt:event.obj
 0002:000063f0       ??_C@_07CAAEJHLA@pEvents?$AA@ 00000001800673f0     libconcrt:event.obj
 0002:00006540       ??_7Context@Concurrency@@6B@ 0000000180067540     libconcrt:ContextBase.obj
 0002:00006578       ??_7ContextBase@details@Concurrency@@6B@ 0000000180067578     libconcrt:ContextBase.obj
 0002:000067c0       ?_Upper@?1??_Memory_order_upper_bound@std@@YA?AW4memory_order@2@W432@0@Z@4QAY05$$CBW432@A 00000001800677c0     libconcrt:TaskCollection.obj
 0002:00006858       ??_7_Interruption_exception@details@Concurrency@@6B@ 0000000180067858     libconcrt:TaskCollection.obj
 0002:00006870       ??_7_RefCounter@details@Concurrency@@6B@ 0000000180067870     libconcrt:TaskCollection.obj
 0002:00006888       ??_7_CancellationTokenRegistration@details@Concurrency@@6B@ 0000000180067888     libconcrt:TaskCollection.obj
 0002:000068a8       ??_7CancellationTokenRegistration_TaskProc@details@Concurrency@@6B@ 00000001800678a8     libconcrt:TaskCollection.obj
 0002:000068c8       ??_7?$_MallocaArrayHolder@PEAVevent@Concurrency@@@details@Concurrency@@6B@ 00000001800678c8     libconcrt:TaskCollection.obj
 0002:000068d0       ??_C@_0O@JJAHDPNG@SchedulerKind?$AA@ 00000001800678d0     libconcrt:SchedulerPolicyBase.obj
 0002:000068e0       ??_C@_0P@CGAHIHHE@MaxConcurrency?$AA@ 00000001800678e0     libconcrt:SchedulerPolicyBase.obj
 0002:000068f0       ??_C@_0P@BLMOAEF@MinConcurrency?$AA@ 00000001800678f0     libconcrt:SchedulerPolicyBase.obj
 0002:00006900       ??_C@_0BN@GKPFKNNF@TargetOversubscriptionFactor?$AA@ 0000000180067900     libconcrt:SchedulerPolicyBase.obj
 0002:00006920       ??_C@_0BG@PCMPEOIE@LocalContextCacheSize?$AA@ 0000000180067920     libconcrt:SchedulerPolicyBase.obj
 0002:00006938       ??_C@_0BB@OPLJNNNB@ContextStackSize?$AA@ 0000000180067938     libconcrt:SchedulerPolicyBase.obj
 0002:00006950       ??_C@_0BA@CHGPFLBM@ContextPriority?$AA@ 0000000180067950     libconcrt:SchedulerPolicyBase.obj
 0002:00006960       ??_C@_0BD@HMLGOEAM@SchedulingProtocol?$AA@ 0000000180067960     libconcrt:SchedulerPolicyBase.obj
 0002:00006978       ??_C@_0BI@PEDMDBKL@DynamicProgressFeedback?$AA@ 0000000180067978     libconcrt:SchedulerPolicyBase.obj
 0002:00006990       ??_C@_0BE@EBKJEJDK@WinRTInitialization?$AA@ 0000000180067990     libconcrt:SchedulerPolicyBase.obj
 0002:000069a8       ??_C@_0BE@OJPKBKLL@MaxPolicyElementKey?$AA@ 00000001800679a8     libconcrt:SchedulerPolicyBase.obj
 0002:000069f0       ??_7ExecutionResource@details@Concurrency@@6B@ 00000001800679f0     libconcrt:ExecutionResource.obj
 0002:00006a10       __real@3f1a36e2eb1c432d    0000000180067a10     libconcrt:HillClimbing.obj
 0002:00006a18       __real@3f70624dd2f1a9fc    0000000180067a18     libconcrt:HillClimbing.obj
 0002:00006a20       __real@3fc3333333333333    0000000180067a20     libconcrt:HillClimbing.obj
 0002:00006a28       __real@bff0000000000000    0000000180067a28     libconcrt:HillClimbing.obj
 0002:00006c40       ??_7SchedulerProxy@details@Concurrency@@6B@ 0000000180067c40     libconcrt:SchedulerProxy.obj
 0002:00006c90       ??_C@_08BAFMHLII@pContext?$AA@ 0000000180067c90     libconcrt:SchedulerProxy.obj
 0002:00006ca0       ??_C@_0BD@HOFLOOHM@pExecutionResource?$AA@ 0000000180067ca0     libconcrt:SchedulerProxy.obj
 0002:00006cb8       ??_C@_0BF@PHKBGNNA@CreateRemoteThreadEx?$AA@ 0000000180067cb8     libconcrt:UMSWrapper.obj
 0002:00006cd0       ??_C@_0BI@OFOMFECC@CreateUmsCompletionList?$AA@ 0000000180067cd0     libconcrt:UMSWrapper.obj
 0002:00006ce8       ??_C@_0BH@NBGNADAH@CreateUmsThreadContext?$AA@ 0000000180067ce8     libconcrt:UMSWrapper.obj
 0002:00006d00       ??_C@_0BO@JONJJOMF@DeleteProcThreadAttributeList?$AA@ 0000000180067d00     libconcrt:UMSWrapper.obj
 0002:00006d20       ??_C@_0BI@BPKNDLMM@DeleteUmsCompletionList?$AA@ 0000000180067d20     libconcrt:UMSWrapper.obj
 0002:00006d38       ??_C@_0BH@JPDPIOBJ@DeleteUmsThreadContext?$AA@ 0000000180067d38     libconcrt:UMSWrapper.obj
 0002:00006d50       ??_C@_0BO@GGFJEFKK@DequeueUmsCompletionListItems?$AA@ 0000000180067d50     libconcrt:UMSWrapper.obj
 0002:00006d70       ??_C@_0BH@BLPFNIKG@EnterUmsSchedulingMode?$AA@ 0000000180067d70     libconcrt:UMSWrapper.obj
 0002:00006d88       ??_C@_0BB@DHABPDKF@ExecuteUmsThread?$AA@ 0000000180067d88     libconcrt:UMSWrapper.obj
 0002:00006da0       ??_C@_0BE@FLBMLIK@GetCurrentUmsThread?$AA@ 0000000180067da0     libconcrt:UMSWrapper.obj
 0002:00006db8       ??_C@_0BD@FNFEEGCI@GetNextUmsListItem?$AA@ 0000000180067db8     libconcrt:UMSWrapper.obj
 0002:00006dd0       ??_C@_0BK@MGNBLFMB@GetUmsCompletionListEvent?$AA@ 0000000180067dd0     libconcrt:UMSWrapper.obj
 0002:00006df0       ??_C@_0CC@PLANOPMM@InitializeProcThreadAttributeLis@ 0000000180067df0     libconcrt:UMSWrapper.obj
 0002:00006e18       ??_C@_0BK@DAKPFGE@QueryUmsThreadInformation?$AA@ 0000000180067e18     libconcrt:UMSWrapper.obj
 0002:00006e38       ??_C@_0BI@DPBBCPDB@SetUmsThreadInformation?$AA@ 0000000180067e38     libconcrt:UMSWrapper.obj
 0002:00006e50       ??_C@_0P@ILGNBNP@UmsThreadYield?$AA@ 0000000180067e50     libconcrt:UMSWrapper.obj
 0002:00006e60       ??_C@_0BK@LCOMJCNI@UpdateProcThreadAttribute?$AA@ 0000000180067e60     libconcrt:UMSWrapper.obj
 0002:00006e80       ??_C@_1BI@IDAOOPDH@?$AAc?$AAo?$AAm?$AAb?$AAa?$AAs?$AAe?$AA?4?$AAd?$AAl?$AAl?$AA?$AA@ 0000000180067e80     libconcrt:WinRTWrapper.obj
 0002:00006e98       ??_C@_0N@PPOMPGGK@RoInitialize?$AA@ 0000000180067e98     libconcrt:WinRTWrapper.obj
 0002:00006ea8       ??_C@_0P@LLFHBIJD@RoUninitialize?$AA@ 0000000180067ea8     libconcrt:WinRTWrapper.obj
 0002:00006f60       ??_7FreeThreadProxy@details@Concurrency@@6B@ 0000000180067f60     libconcrt:ThreadProxyFactoryManager.obj
 0002:00006f98       ??_7IThreadProxyFactory@details@Concurrency@@6B@ 0000000180067f98     libconcrt:ThreadProxyFactoryManager.obj
 0002:00006fc8       ?s_proxyStackSize@?$ThreadProxyFactory@VFreeThreadProxy@details@Concurrency@@@details@Concurrency@@1QBIB 0000000180067fc8     libconcrt:ThreadProxyFactoryManager.obj
 0002:00006fe0       ??_7?$ThreadProxyFactory@VFreeThreadProxy@details@Concurrency@@@details@Concurrency@@6B@ 0000000180067fe0     libconcrt:ThreadProxyFactoryManager.obj
 0002:00007038       ??_7FreeThreadProxyFactory@details@Concurrency@@6B@ 0000000180068038     libconcrt:ThreadProxyFactoryManager.obj
 0002:00007088       ?ConcRT_ProviderGuid@Concurrency@@3U_GUID@@B 0000000180068088     libconcrt:Trace.obj
 0002:00007098       ?ConcRTEventGuid@Concurrency@@3U_GUID@@B 0000000180068098     libconcrt:Trace.obj
 0002:000070a8       ?SchedulerEventGuid@Concurrency@@3U_GUID@@B 00000001800680a8     libconcrt:Trace.obj
 0002:000070b8       ?ScheduleGroupEventGuid@Concurrency@@3U_GUID@@B 00000001800680b8     libconcrt:Trace.obj
 0002:000070c8       ?ContextEventGuid@Concurrency@@3U_GUID@@B 00000001800680c8     libconcrt:Trace.obj
 0002:000070d8       ?ChoreEventGuid@Concurrency@@3U_GUID@@B 00000001800680d8     libconcrt:Trace.obj
 0002:000070e8       ?VirtualProcessorEventGuid@Concurrency@@3U_GUID@@B 00000001800680e8     libconcrt:Trace.obj
 0002:000070f8       ?LockEventGuid@Concurrency@@3U_GUID@@B 00000001800680f8     libconcrt:Trace.obj
 0002:00007108       ?ResourceManagerEventGuid@Concurrency@@3U_GUID@@B 0000000180068108     libconcrt:Trace.obj
 0002:00007118       ?PPLParallelInvokeEventGuid@Concurrency@@3U_GUID@@B 0000000180068118     libconcrt:Trace.obj
 0002:00007128       ?PPLParallelForEventGuid@Concurrency@@3U_GUID@@B 0000000180068128     libconcrt:Trace.obj
 0002:00007138       ?PPLParallelForeachEventGuid@Concurrency@@3U_GUID@@B 0000000180068138     libconcrt:Trace.obj
 0002:00007148       ?AgentEventGuid@Concurrency@@3U_GUID@@B 0000000180068148     libconcrt:Trace.obj
 0002:00007180       ??_C@_1BK@JHLNAEJL@?$AAa?$AAd?$AAv?$AAa?$AAp?$AAi?$AA3?$AA2?$AA?4?$AAd?$AAl?$AAl?$AA?$AA@ 0000000180068180     libconcrt:Trace.obj
 0002:000071a0       ??_C@_0BE@FKJMGMF@RegisterTraceGuidsW?$AA@ 00000001800681a0     libconcrt:Trace.obj
 0002:000071b8       ??_C@_0BF@OFMMALCC@UnregisterTraceGuids?$AA@ 00000001800681b8     libconcrt:Trace.obj
 0002:000071d0       ??_C@_0L@EOLEDHLE@TraceEvent?$AA@ 00000001800681d0     libconcrt:Trace.obj
 0002:000071e0       ??_C@_0BF@OFCGPMKL@GetTraceLoggerHandle?$AA@ 00000001800681e0     libconcrt:Trace.obj
 0002:000071f8       ??_C@_0BE@JCHMKLLJ@GetTraceEnableLevel?$AA@ 00000001800681f8     libconcrt:Trace.obj
 0002:00007210       ??_C@_0BE@DNOHFPHI@GetTraceEnableFlags?$AA@ 0000000180068210     libconcrt:Trace.obj
 0002:00007258       ??_7VirtualProcessor@details@Concurrency@@6B@ 0000000180068258     libconcrt:VirtualProcessor.obj
 0002:000072d0       ?s_bucketSizes@SubAllocator@details@Concurrency@@0QBHB 00000001800682d0     libconcrt:SubAllocator.obj
 0002:00007450       ?GranularityShift@SubAllocator@details@Concurrency@@0HB 0000000180068450     libconcrt:SubAllocator.obj
 0002:00007454       ?MaxAllocationSize@SubAllocator@details@Concurrency@@0HB 0000000180068454     libconcrt:SubAllocator.obj
 0002:00007550       ??_7IExecutionContext@Concurrency@@6B@ 0000000180068550     libconcrt:InternalContextBase.obj
 0002:00007580       ??_7InternalContextBase@details@Concurrency@@6BIExecutionContext@2@@ 0000000180068580     libconcrt:InternalContextBase.obj
 0002:000075d0       ??_7InternalContextBase@details@Concurrency@@6BContextBase@12@@ 00000001800685d0     libconcrt:InternalContextBase.obj
 0002:00007660       ??_C@_0N@FACDCNDA@pThreadProxy?$AA@ 0000000180068660     libconcrt:InternalContextBase.obj
 0002:00007830       ??_7ScheduleGroupSegmentBase@details@Concurrency@@6B@ 0000000180068830     libconcrt:ScheduleGroupBase.obj
 0002:00007858       ??_7ScheduleGroupBase@details@Concurrency@@6B@ 0000000180068858     libconcrt:ScheduleGroupBase.obj
 0002:000078a8       ??_C@_04MGCDEED@proc?$AA@  00000001800688a8     libconcrt:ScheduleGroupBase.obj
 0002:00007958       ??_7ExternalContextBase@details@Concurrency@@6B@ 0000000180068958     libconcrt:ExternalContextBase.obj
 0002:00007a68       ??_7IScheduler@Concurrency@@6B@ 0000000180068a68     libconcrt:ThreadScheduler.obj
 0002:00007aa8       ??_7ThreadInternalContext@details@Concurrency@@6BIExecutionContext@2@@ 0000000180068aa8     libconcrt:ThreadScheduler.obj
 0002:00007af8       ??_7ThreadInternalContext@details@Concurrency@@6BContextBase@12@@ 0000000180068af8     libconcrt:ThreadScheduler.obj
 0002:00007b90       ??_7ThreadScheduler@details@Concurrency@@6BIScheduler@2@@ 0000000180068b90     libconcrt:ThreadScheduler.obj
 0002:00007bd0       ??_7ThreadScheduler@details@Concurrency@@6BSchedulerBase@12@@ 0000000180068bd0     libconcrt:ThreadScheduler.obj
 0002:00007d88       ??_7VirtualProcessorRoot@details@Concurrency@@6B@ 0000000180068d88     libconcrt:VirtualProcessorRoot.obj
 0002:00007de0       ??_7FreeVirtualProcessorRoot@details@Concurrency@@6B@ 0000000180068de0     libconcrt:FreeVirtualProcessorRoot.obj
 0002:00007e30       ??_C@_0M@CIMHMGAD@switchState?$AA@ 0000000180068e30     libconcrt:FreeThreadProxy.obj
 0002:00007e70       ??_7ThreadProxy@details@Concurrency@@6B@ 0000000180068e70     libconcrt:ThreadProxy.obj
 0002:00007ef8       ??_7ThreadVirtualProcessor@details@Concurrency@@6B@ 0000000180068ef8     libconcrt:ThreadVirtualProcessor.obj
 0002:00008018       _pDestructExceptionObject  0000000180069018     libvcruntime:frame.obj
 0002:00008028       ??_7bad_exception@std@@6B@ 0000000180069028     libvcruntime:frame.obj
 0002:00008038       ??_C@_0O@DPKOEFFH@bad?5exception?$AA@ 0000000180069038     libvcruntime:frame.obj
 0002:00008068       ??_C@_1BC@DNHGCMLG@?$AAa?$AAd?$AAv?$AAa?$AAp?$AAi?$AA3?$AA2?$AA?$AA@ 0000000180069068     libvcruntime:winapi_downlevel.obj
 0002:00008080       ??_C@_1DM@KHCHBNEB@?$AAa?$AAp?$AAi?$AA?9?$AAm?$AAs?$AA?9?$AAw?$AAi?$AAn?$AA?9?$AAc?$AAo?$AAr?$AAe?$AA?9?$AAf?$AAi?$AAb?$AAe?$AAr?$AAs?$AA?9?$AAl?$AA1?$AA?9?$AA1?$AA?9?$AA1?$AA?$AA@ 0000000180069080     libvcruntime:winapi_downlevel.obj
 0002:000080c0       ??_C@_1DK@LPPGFMPP@?$AAa?$AAp?$AAi?$AA?9?$AAm?$AAs?$AA?9?$AAw?$AAi?$AAn?$AA?9?$AAc?$AAo?$AAr?$AAe?$AA?9?$AAs?$AAy?$AAn?$AAc?$AAh?$AA?9?$AAl?$AA1?$AA?9?$AA2?$AA?9?$AA0?$AA?$AA@ 00000001800690c0     libvcruntime:winapi_downlevel.obj
 0002:00008100       ??_C@_1BC@GDMECMAK@?$AAk?$AAe?$AAr?$AAn?$AAe?$AAl?$AA3?$AA2?$AA?$AA@ 0000000180069100     libvcruntime:winapi_downlevel.obj
 0002:00008118       ??_C@_0O@BAMBGLIE@EventRegister?$AA@ 0000000180069118     libvcruntime:winapi_downlevel.obj
 0002:00008130       ??_C@_0BE@BJEEGHGK@EventSetInformation?$AA@ 0000000180069130     libvcruntime:winapi_downlevel.obj
 0002:00008148       ??_C@_0BA@FAKLIPIC@EventUnregister?$AA@ 0000000180069148     libvcruntime:winapi_downlevel.obj
 0002:00008160       ??_C@_0BD@PKLHJPHD@EventWriteTransfer?$AA@ 0000000180069160     libvcruntime:winapi_downlevel.obj
 0002:000081a0       _Microsoft_CRTProvider     00000001800691a0     libvcruntime:telemetry.obj
 0002:000081a8       ??_C@_0O@JEOPJOMI@Main?5Invoked?4?$AA@ 00000001800691a8     libvcruntime:telemetry.obj
 0002:000081b8       ??_C@_0P@NEAEIBDO@Main?5Returned?4?$AA@ 00000001800691b8     libvcruntime:telemetry.obj
 0002:000081d0       ??_7bad_typeid@std@@6B@    00000001800691d0     libvcruntime:rtti.obj
 0002:000081e8       ??_7__non_rtti_object@std@@6B@ 00000001800691e8     libvcruntime:rtti.obj
 0002:000081f8       ??_C@_0CB@CGKGGDFI@Access?5violation?5?9?5no?5RTTI?5data?$CB@ 00000001800691f8     libvcruntime:rtti.obj
 0002:00008220       ??_C@_0BC@JNJNLHBP@Bad?5dynamic_cast?$CB?$AA@ 0000000180069220     libvcruntime:rtti.obj
 0002:00008560       ??_C@_08EHJDFFNH@__based?$CI?$AA@ 0000000180069560     libvcruntime:undname.obj
 0002:00008570       ??_C@_07KOLFKCDI@__cdecl?$AA@ 0000000180069570     libvcruntime:undname.obj
 0002:00008578       ??_C@_08GHMPAG@__pascal?$AA@ 0000000180069578     libvcruntime:undname.obj
 0002:00008588       ??_C@_09IFJBGAPI@__stdcall?$AA@ 0000000180069588     libvcruntime:undname.obj
 0002:00008598       ??_C@_0L@NPHFGOKO@__thiscall?$AA@ 0000000180069598     libvcruntime:undname.obj
 0002:000085a8       ??_C@_0L@JMKHOMEK@__fastcall?$AA@ 00000001800695a8     libvcruntime:undname.obj
 0002:000085b8       ??_C@_0N@BCKKPABJ@__vectorcall?$AA@ 00000001800695b8     libvcruntime:undname.obj
 0002:000085c8       ??_C@_09HIJEGCPM@__clrcall?$AA@ 00000001800695c8     libvcruntime:undname.obj
 0002:000085d4       ??_C@_06GHPCKEAG@__eabi?$AA@ 00000001800695d4     libvcruntime:undname.obj
 0002:000085e0       ??_C@_07JOMMBBKO@__ptr64?$AA@ 00000001800695e0     libvcruntime:undname.obj
 0002:000085e8       ??_C@_0L@PILCLIHE@__restrict?$AA@ 00000001800695e8     libvcruntime:undname.obj
 0002:000085f8       ??_C@_0M@GFIIJFMG@__unaligned?$AA@ 00000001800695f8     libvcruntime:undname.obj
 0002:00008608       ??_C@_09DHDLOLLB@restrict?$CI?$AA@ 0000000180069608     libvcruntime:undname.obj
 0002:00008614       ??_C@_04NIHEBCM@?5new?$AA@ 0000000180069614     libvcruntime:undname.obj
 0002:00008620       ??_C@_07FPCDHGMM@?5delete?$AA@ 0000000180069620     libvcruntime:undname.obj
 0002:00008628       ??_C@_01NEMOKFLO@?$DN?$AA@ 0000000180069628     libvcruntime:undname.obj
 0002:0000862c       ??_C@_02GPIOPFAK@?$DO?$DO?$AA@ 000000018006962c     libvcruntime:undname.obj
 0002:00008630       ??_C@_02FODMEDOG@?$DM?$DM?$AA@ 0000000180069630     libvcruntime:undname.obj
 0002:00008634       ??_C@_01DCLJPIOD@?$CB?$AA@ 0000000180069634     libvcruntime:undname.obj
 0002:00008638       ??_C@_02EGOFBIJA@?$DN?$DN?$AA@ 0000000180069638     libvcruntime:undname.obj
 0002:0000863c       ??_C@_02FDNJECIE@?$CB?$DN?$AA@ 000000018006963c     libvcruntime:undname.obj
 0002:00008640       ??_C@_02GPECMEKF@?$FL?$FN?$AA@ 0000000180069640     libvcruntime:undname.obj
 0002:00008648       ??_C@_08LHJFAFGD@operator?$AA@ 0000000180069648     libvcruntime:undname.obj
 0002:00008654       ??_C@_02HBOOOICD@?9?$DO?$AA@ 0000000180069654     libvcruntime:undname.obj
 0002:00008658       ??_C@_02ECNGHCIF@?$CL?$CL?$AA@ 0000000180069658     libvcruntime:undname.obj
 0002:0000865c       ??_C@_02BAABKJLB@?9?9?$AA@ 000000018006965c     libvcruntime:undname.obj
 0002:00008660       ??_C@_01MIFGBAGJ@?$CL?$AA@ 0000000180069660     libvcruntime:undname.obj
 0002:00008664       ??_C@_01HNPIGOCE@?$CG?$AA@ 0000000180069664     libvcruntime:undname.obj
 0002:00008668       ??_C@_03MNHNFDLC@?9?$DO?$CK?$AA@ 0000000180069668     libvcruntime:undname.obj
 0002:0000866c       ??_C@_01FGNFDNOH@?$CF?$AA@ 000000018006966c     libvcruntime:undname.obj
 0002:00008670       ??_C@_01MNNFJEPP@?$DM?$AA@ 0000000180069670     libvcruntime:undname.obj
 0002:00008674       ??_C@_02EHCHHCKH@?$DM?$DN?$AA@ 0000000180069674     libvcruntime:undname.obj
 0002:00008678       ??_C@_01PPODPGHN@?$DO?$AA@ 0000000180069678     libvcruntime:undname.obj
 0002:0000867c       ??_C@_02EEKDKGMJ@?$DO?$DN?$AA@ 000000018006967c     libvcruntime:undname.obj
 0002:00008680       ??_C@_01IHBHIGKO@?0?$AA@   0000000180069680     libvcruntime:undname.obj
 0002:00008684       ??_C@_02HCKGKOFO@?$CI?$CJ?$AA@ 0000000180069684     libvcruntime:undname.obj
 0002:00008688       ??_C@_01PJKLJHI@?$HO?$AA@  0000000180069688     libvcruntime:undname.obj
 0002:0000868c       ??_C@_01JKBOJNNK@?$FO?$AA@ 000000018006968c     libvcruntime:undname.obj
 0002:00008690       ??_C@_01DNKMNLPK@?$HM?$AA@ 0000000180069690     libvcruntime:undname.obj
 0002:00008694       ??_C@_02PPKAJPJL@?$CG?$CG?$AA@ 0000000180069694     libvcruntime:undname.obj
 0002:00008698       ??_C@_02NONPIBCD@?$HM?$HM?$AA@ 0000000180069698     libvcruntime:undname.obj
 0002:0000869c       ??_C@_02FPIMKNGF@?$CK?$DN?$AA@ 000000018006969c     libvcruntime:undname.obj
 0002:000086a0       ??_C@_02FOEOMHFC@?$CL?$DN?$AA@ 00000001800696a0     libvcruntime:undname.obj
 0002:000086a4       ??_C@_02FKMDLLOA@?9?$DN?$AA@ 00000001800696a4     libvcruntime:undname.obj
 0002:000086a8       ??_C@_02FJEHGPIO@?1?$DN?$AA@ 00000001800696a8     libvcruntime:undname.obj
 0002:000086ac       ??_C@_02FENAOKFI@?$CF?$DN?$AA@ 00000001800696ac     libvcruntime:undname.obj
 0002:000086b0       ??_C@_03IKFCCPFF@?$DO?$DO?$DN?$AA@ 00000001800696b0     libvcruntime:undname.obj
 0002:000086b4       ??_C@_03CDNPDDLA@?$DM?$DM?$DN?$AA@ 00000001800696b4     libvcruntime:undname.obj
 0002:000086b8       ??_C@_02FGJGFEAB@?$CG?$DN?$AA@ 00000001800696b8     libvcruntime:undname.obj
 0002:000086bc       ??_C@_02DHLNPPGH@?$HM?$DN?$AA@ 00000001800696bc     libvcruntime:undname.obj
 0002:000086c0       ??_C@_02MHEGNOJ@?$FO?$DN?$AA@ 00000001800696c0     libvcruntime:undname.obj
 0002:000086c8       ??_C@_09IFPLHPGF@?$GAvftable?8?$AA@ 00000001800696c8     libvcruntime:undname.obj
 0002:000086d8       ??_C@_09BLBHBJP@?$GAvbtable?8?$AA@ 00000001800696d8     libvcruntime:undname.obj
 0002:000086e8       ??_C@_07FEEIOKP@?$GAvcall?8?$AA@ 00000001800696e8     libvcruntime:undname.obj
 0002:000086f0       ??_C@_08LLFFHHDJ@?$GAtypeof?8?$AA@ 00000001800696f0     libvcruntime:undname.obj
 0002:00008700       ??_C@_0BF@KDPPACIK@?$GAlocal?5static?5guard?8?$AA@ 0000000180069700     libvcruntime:undname.obj
 0002:00008718       ??_C@_08OBABFOLI@?$GAstring?8?$AA@ 0000000180069718     libvcruntime:undname.obj
 0002:00008728       ??_C@_0BD@JDLKDPAB@?$GAvbase?5destructor?8?$AA@ 0000000180069728     libvcruntime:undname.obj
 0002:00008740       ??_C@_0BN@DEGPLNFK@?$GAvector?5deleting?5destructor?8?$AA@ 0000000180069740     libvcruntime:undname.obj
 0002:00008760       ??_C@_0BO@OBMKPJIG@?$GAdefault?5constructor?5closure?8?$AA@ 0000000180069760     libvcruntime:undname.obj
 0002:00008780       ??_C@_0BN@IMDCHIKM@?$GAscalar?5deleting?5destructor?8?$AA@ 0000000180069780     libvcruntime:undname.obj
 0002:000087a0       ??_C@_0BO@PFGOCPJJ@?$GAvector?5constructor?5iterator?8?$AA@ 00000001800697a0     libvcruntime:undname.obj
 0002:000087c0       ??_C@_0BN@LFPFMEDL@?$GAvector?5destructor?5iterator?8?$AA@ 00000001800697c0     libvcruntime:undname.obj
 0002:000087e0       ??_C@_0CE@IKBNEHA@?$GAvector?5vbase?5constructor?5iterat@ 00000001800697e0     libvcruntime:undname.obj
 0002:00008808       ??_C@_0BL@NILFHHPC@?$GAvirtual?5displacement?5map?8?$AA@ 0000000180069808     libvcruntime:undname.obj
 0002:00008828       ??_C@_0CB@JONCMFFK@?$GAeh?5vector?5constructor?5iterator?8@ 0000000180069828     libvcruntime:undname.obj
 0002:00008850       ??_C@_0CA@GCEOPDGL@?$GAeh?5vector?5destructor?5iterator?8?$AA@ 0000000180069850     libvcruntime:undname.obj
 0002:00008870       ??_C@_0CH@OOJPLCPH@?$GAeh?5vector?5vbase?5constructor?5ite@ 0000000180069870     libvcruntime:undname.obj
 0002:00008898       ??_C@_0BL@LLKPOHJI@?$GAcopy?5constructor?5closure?8?$AA@ 0000000180069898     libvcruntime:undname.obj
 0002:000088b8       ??_C@_0BA@KBCDOMBN@?$GAudt?5returning?8?$AA@ 00000001800698b8     libvcruntime:undname.obj
 0002:000088c8       ??_C@_03KLGMFNMG@?$GAEH?$AA@ 00000001800698c8     libvcruntime:undname.obj
 0002:000088cc       ??_C@_05KHLCHHI@?$GARTTI?$AA@ 00000001800698cc     libvcruntime:undname.obj
 0002:000088d8       ??_C@_0BA@KKLDJDLB@?$GAlocal?5vftable?8?$AA@ 00000001800698d8     libvcruntime:undname.obj
 0002:000088e8       ??_C@_0CE@IIHCMGGL@?$GAlocal?5vftable?5constructor?5closu@ 00000001800698e8     libvcruntime:undname.obj
 0002:0000890c       ??_C@_06FHBGPFGH@?5new?$FL?$FN?$AA@ 000000018006990c     libvcruntime:undname.obj
 0002:00008918       ??_C@_09LBNFPBCA@?5delete?$FL?$FN?$AA@ 0000000180069918     libvcruntime:undname.obj
 0002:00008928       ??_C@_0P@HJKNJFNN@?$GAomni?5callsig?8?$AA@ 0000000180069928     libvcruntime:undname.obj
 0002:00008938       ??_C@_0BL@CNOONJFP@?$GAplacement?5delete?5closure?8?$AA@ 0000000180069938     libvcruntime:undname.obj
 0002:00008958       ??_C@_0BN@CKNJLHMB@?$GAplacement?5delete?$FL?$FN?5closure?8?$AA@ 0000000180069958     libvcruntime:undname.obj
 0002:00008978       ??_C@_0CG@CFDHKGGD@?$GAmanaged?5vector?5constructor?5iter@ 0000000180069978     libvcruntime:undname.obj
 0002:000089a0       ??_C@_0CF@IMGKMJNO@?$GAmanaged?5vector?5destructor?5itera@ 00000001800699a0     libvcruntime:undname.obj
 0002:000089c8       ??_C@_0CG@HLDDJMAG@?$GAeh?5vector?5copy?5constructor?5iter@ 00000001800699c8     libvcruntime:undname.obj
 0002:000089f0       ??_C@_0CM@FCBBDIGB@?$GAeh?5vector?5vbase?5copy?5constructo@ 00000001800699f0     libvcruntime:undname.obj
 0002:00008a20       ??_C@_0BL@CLIPGLGB@?$GAdynamic?5initializer?5for?5?8?$AA@ 0000000180069a20     libvcruntime:undname.obj
 0002:00008a40       ??_C@_0CB@PDBIFEP@?$GAdynamic?5atexit?5destructor?5for?5?8@ 0000000180069a40     libvcruntime:undname.obj
 0002:00008a68       ??_C@_0CD@CGAJBKEJ@?$GAvector?5copy?5constructor?5iterato@ 0000000180069a68     libvcruntime:undname.obj
 0002:00008a90       ??_C@_0CJ@GJELGAMM@?$GAvector?5vbase?5copy?5constructor?5i@ 0000000180069a90     libvcruntime:undname.obj
 0002:00008ac0       ??_C@_0CL@FGIJHLCE@?$GAmanaged?5vector?5copy?5constructor@ 0000000180069ac0     libvcruntime:undname.obj
 0002:00008af0       ??_C@_0BM@PMGGMLDN@?$GAlocal?5static?5thread?5guard?8?$AA@ 0000000180069af0     libvcruntime:undname.obj
 0002:00008b10       ??_C@_0N@BDNMDMOL@operator?5?$CC?$CC?5?$AA@ 0000000180069b10     libvcruntime:undname.obj
 0002:00008b20       ??_C@_0BC@DAFEJGAK@?5Type?5Descriptor?8?$AA@ 0000000180069b20     libvcruntime:undname.obj
 0002:00008b38       ??_C@_0BM@LDKODKLH@?5Base?5Class?5Descriptor?5at?5?$CI?$AA@ 0000000180069b38     libvcruntime:undname.obj
 0002:00008b58       ??_C@_0BD@LGICGFMM@?5Base?5Class?5Array?8?$AA@ 0000000180069b58     libvcruntime:undname.obj
 0002:00008b70       ??_C@_0BN@MECKDCOJ@?5Class?5Hierarchy?5Descriptor?8?$AA@ 0000000180069b70     libvcruntime:undname.obj
 0002:00008b90       ??_C@_0BK@CFCOFLF@?5Complete?5Object?5Locator?8?$AA@ 0000000180069b90     libvcruntime:undname.obj
 0002:00008d20       standard_lookup_table      0000000180069d20     libucrt:output.obj
 0002:00008d80       format_validation_lookup_table 0000000180069d80     libucrt:output.obj
 0002:00008ddc       ??_C@_06OJHGLDPL@?$CInull?$CJ?$AA@ 0000000180069ddc     libucrt:output.obj
 0002:00008de8       ??_C@_1O@CEDCILHN@?$AA?$CI?$AAn?$AAu?$AAl?$AAl?$AA?$CJ?$AA?$AA@ 0000000180069de8     libucrt:output.obj
 0002:00008df8       __real@8000000000000000    0000000180069df8     libucrt:frexp.obj
 0002:00008e00       __newctype                 0000000180069e00     libucrt:ctype.obj
 0002:00009100       __newclmap                 000000018006a100     libucrt:ctype.obj
 0002:00009280       __newcumap                 000000018006a280     libucrt:ctype.obj
 0002:00009400       _wctype                    000000018006a400     libucrt:ctype.obj
 0002:00009610       ?large_power_data@?1??multiply_by_power_of_ten@__crt_strtox@@YA_NAEAUbig_integer@2@I@Z@4QBIB 000000018006a610     libucrt:strtod.obj
 0002:00009f20       ?large_power_indices@?1??multiply_by_power_of_ten@__crt_strtox@@YA_NAEAUbig_integer@2@I@Z@4QBUunpack_index@?1??12@YA_N0I@Z@B 000000018006af20     libucrt:strtod.obj
 0002:00009fb8       ?small_powers_of_ten@?6??multiply_by_power_of_ten@__crt_strtox@@YA_NAEAUbig_integer@2@I@Z@4QBIB 000000018006afb8     libucrt:strtod.obj
 0002:0000bc90       __acrt_exception_action_table 000000018006cc90     libucrt:exception_filter.obj
 0002:0000bd50       __acrt_signal_action_table_count 000000018006cd50     libucrt:exception_filter.obj
 0002:0000bd58       __acrt_signal_action_first_fpe_index 000000018006cd58     libucrt:exception_filter.obj
 0002:0000bd60       __acrt_signal_action_fpe_count 000000018006cd60     libucrt:exception_filter.obj
 0002:0000bd68       ??_C@_1BI@BGOHAHKC@?$AAm?$AAs?$AAc?$AAo?$AAr?$AAe?$AAe?$AA?4?$AAd?$AAl?$AAl?$AA?$AA@ 000000018006cd68     libucrt:exit.obj
 0002:0000bd80       ??_C@_0P@MIGLKIOC@CorExitProcess?$AA@ 000000018006cd80     libucrt:exit.obj
 0002:0000bf80       ??_C@_04EIAKFFMI@sqrt?$AA@ 000000018006cf80     libucrt:sqrt.obj
 0002:0000bf90       __lc_category              000000018006cf90     libucrt:wsetlocale.obj
 0002:0000c020       ??_C@_1O@GIFLHMA@?$AAL?$AAC?$AA_?$AAA?$AAL?$AAL?$AA?$AA@ 000000018006d020     libucrt:wsetlocale.obj
 0002:0000c030       ??_C@_1BG@PPOMIBNJ@?$AAL?$AAC?$AA_?$AAC?$AAO?$AAL?$AAL?$AAA?$AAT?$AAE?$AA?$AA@ 000000018006d030     libucrt:wsetlocale.obj
 0002:0000c048       ??_C@_1BC@FFJGAPJM@?$AAL?$AAC?$AA_?$AAC?$AAT?$AAY?$AAP?$AAE?$AA?$AA@ 000000018006d048     libucrt:wsetlocale.obj
 0002:0000c060       ??_C@_1BI@PCKFNJFB@?$AAL?$AAC?$AA_?$AAM?$AAO?$AAN?$AAE?$AAT?$AAA?$AAR?$AAY?$AA?$AA@ 000000018006d060     libucrt:wsetlocale.obj
 0002:0000c078       ??_C@_1BG@ENIEDKID@?$AAL?$AAC?$AA_?$AAN?$AAU?$AAM?$AAE?$AAR?$AAI?$AAC?$AA?$AA@ 000000018006d078     libucrt:wsetlocale.obj
 0002:0000c090       ??_C@_1BA@HAAOMIIG@?$AAL?$AAC?$AA_?$AAT?$AAI?$AAM?$AAE?$AA?$AA@ 000000018006d090     libucrt:wsetlocale.obj
 0002:0000c120       ??_C@_15NBPDDFIP@?$AA?$DN?$AA?$DL?$AA?$AA@ 000000018006d120     libucrt:wsetlocale.obj
 0002:0000c128       ??_C@_13PJJBFPED@?$AA?$DL?$AA?$AA@ 000000018006d128     libucrt:wsetlocale.obj
 0002:0000c12c       ??_C@_13NMPKAAJP@?$AA?$DN?$AA?$AA@ 000000018006d12c     libucrt:wsetlocale.obj
 0002:0000c130       ??_C@_13FHBKNHDA@?$AAC?$AA?$AA@ 000000018006d130     libucrt:wsetlocale.obj
 0002:0000c138       ??_C@_17MBJJLFDM@?$AA_?$AA?4?$AA?0?$AA?$AA@ 000000018006d138     libucrt:wsetlocale.obj
 0002:0000c140       ??_C@_13ENNFDPBH@?$AA_?$AA?$AA@ 000000018006d140     libucrt:wsetlocale.obj
 0002:0000c144       ??_C@_13JOFGPIOO@?$AA?4?$AA?$AA@ 000000018006d144     libucrt:wsetlocale.obj
 0002:0000c150       __lc_time_c                000000018006d150     libucrt:nlsdata.obj
 0002:0000c410       ??_C@_03KOEHGMDN@Sun?$AA@  000000018006d410     libucrt:nlsdata.obj
 0002:0000c414       ??_C@_03PDAGKDH@Mon?$AA@   000000018006d414     libucrt:nlsdata.obj
 0002:0000c418       ??_C@_03NAGEINEP@Tue?$AA@  000000018006d418     libucrt:nlsdata.obj
 0002:0000c41c       ??_C@_03MHOMLAJA@Wed?$AA@  000000018006d41c     libucrt:nlsdata.obj
 0002:0000c420       ??_C@_03IOFIKPDN@Thu?$AA@  000000018006d420     libucrt:nlsdata.obj
 0002:0000c424       ??_C@_03IDIOELNC@Fri?$AA@  000000018006d424     libucrt:nlsdata.obj
 0002:0000c428       ??_C@_03FEFJNEK@Sat?$AA@   000000018006d428     libucrt:nlsdata.obj
 0002:0000c42c       ??_C@_06OOPIFAJ@Sunday?$AA@ 000000018006d42c     libucrt:nlsdata.obj
 0002:0000c434       ??_C@_06JLEDEDGH@Monday?$AA@ 000000018006d434     libucrt:nlsdata.obj
 0002:0000c440       ??_C@_07BAAGCFCM@Tuesday?$AA@ 000000018006d440     libucrt:nlsdata.obj
 0002:0000c448       ??_C@_09DLIGFAKA@Wednesday?$AA@ 000000018006d448     libucrt:nlsdata.obj
 0002:0000c458       ??_C@_08HACCIKIA@Thursday?$AA@ 000000018006d458     libucrt:nlsdata.obj
 0002:0000c464       ??_C@_06JECMNKMI@Friday?$AA@ 000000018006d464     libucrt:nlsdata.obj
 0002:0000c470       ??_C@_08INBOOONO@Saturday?$AA@ 000000018006d470     libucrt:nlsdata.obj
 0002:0000c47c       ??_C@_03JIHJHPIE@Jan?$AA@  000000018006d47c     libucrt:nlsdata.obj
 0002:0000c480       ??_C@_03HJBDCHOM@Feb?$AA@  000000018006d480     libucrt:nlsdata.obj
 0002:0000c484       ??_C@_03ODNJBKGA@Mar?$AA@  000000018006d484     libucrt:nlsdata.obj
 0002:0000c488       ??_C@_03LEOLGMJP@Apr?$AA@  000000018006d488     libucrt:nlsdata.obj
 0002:0000c48c       ??_C@_03CNMDKL@May?$AA@    000000018006d48c     libucrt:nlsdata.obj
 0002:0000c490       ??_C@_03IDFGHECI@Jun?$AA@  000000018006d490     libucrt:nlsdata.obj
 0002:0000c494       ??_C@_03LBGABGKK@Jul?$AA@  000000018006d494     libucrt:nlsdata.obj
 0002:0000c498       ??_C@_03IFJFEIGA@Aug?$AA@  000000018006d498     libucrt:nlsdata.obj
 0002:0000c49c       ??_C@_03GGCAPAJC@Sep?$AA@  000000018006d49c     libucrt:nlsdata.obj
 0002:0000c4a0       ??_C@_03BMAOKBAD@Oct?$AA@  000000018006d4a0     libucrt:nlsdata.obj
 0002:0000c4a4       ??_C@_03JPJOFNIA@Nov?$AA@  000000018006d4a4     libucrt:nlsdata.obj
 0002:0000c4a8       ??_C@_03MKABNOCG@Dec?$AA@  000000018006d4a8     libucrt:nlsdata.obj
 0002:0000c4b0       ??_C@_07CGJPFGJA@January?$AA@ 000000018006d4b0     libucrt:nlsdata.obj
 0002:0000c4b8       ??_C@_08GNJGEPFN@February?$AA@ 000000018006d4b8     libucrt:nlsdata.obj
 0002:0000c4c4       ??_C@_05HPCKOFNC@March?$AA@ 000000018006d4c4     libucrt:nlsdata.obj
 0002:0000c4cc       ??_C@_05DMJDNLEJ@April?$AA@ 000000018006d4cc     libucrt:nlsdata.obj
 0002:0000c4d4       ??_C@_04CNLMGBGM@June?$AA@ 000000018006d4d4     libucrt:nlsdata.obj
 0002:0000c4dc       ??_C@_04MIEPOIFP@July?$AA@ 000000018006d4dc     libucrt:nlsdata.obj
 0002:0000c4e4       ??_C@_06LBBHFDDG@August?$AA@ 000000018006d4e4     libucrt:nlsdata.obj
 0002:0000c4f0       ??_C@_09BHHEALKD@September?$AA@ 000000018006d4f0     libucrt:nlsdata.obj
 0002:0000c500       ??_C@_07JJNFCEND@October?$AA@ 000000018006d500     libucrt:nlsdata.obj
 0002:0000c508       ??_C@_08HCHEGEOA@November?$AA@ 000000018006d508     libucrt:nlsdata.obj
 0002:0000c518       ??_C@_08EDHMEBNP@December?$AA@ 000000018006d518     libucrt:nlsdata.obj
 0002:0000c524       ??_C@_02DEDBPAFC@AM?$AA@   000000018006d524     libucrt:nlsdata.obj
 0002:0000c528       ??_C@_02CJNFDJBF@PM?$AA@   000000018006d528     libucrt:nlsdata.obj
 0002:0000c530       ??_C@_08BPBNCDIB@MM?1dd?1yy?$AA@ 000000018006d530     libucrt:nlsdata.obj
 0002:0000c540       ??_C@_0BE@CKGJFCPC@dddd?0?5MMMM?5dd?0?5yyyy?$AA@ 000000018006d540     libucrt:nlsdata.obj
 0002:0000c558       ??_C@_08JCCMCCIL@HH?3mm?3ss?$AA@ 000000018006d558     libucrt:nlsdata.obj
 0002:0000c568       ??_C@_17MBGCMIPB@?$AAS?$AAu?$AAn?$AA?$AA@ 000000018006d568     libucrt:nlsdata.obj
 0002:0000c570       ??_C@_17KBOMKBF@?$AAM?$AAo?$AAn?$AA?$AA@ 000000018006d570     libucrt:nlsdata.obj
 0002:0000c578       ??_C@_17BMKGEGOJ@?$AAT?$AAu?$AAe?$AA?$AA@ 000000018006d578     libucrt:nlsdata.obj
 0002:0000c580       ??_C@_17CJEDCEPE@?$AAW?$AAe?$AAd?$AA?$AA@ 000000018006d580     libucrt:nlsdata.obj
 0002:0000c588       ??_C@_17PDPHAADD@?$AAT?$AAh?$AAu?$AA?$AA@ 000000018006d588     libucrt:nlsdata.obj
 0002:0000c590       ??_C@_17HFOLPPLP@?$AAF?$AAr?$AAi?$AA?$AA@ 000000018006d590     libucrt:nlsdata.obj
 0002:0000c598       ??_C@_17GGIBDPIH@?$AAS?$AAa?$AAt?$AA?$AA@ 000000018006d598     libucrt:nlsdata.obj
 0002:0000c5a0       ??_C@_1O@IHNHDHPB@?$AAS?$AAu?$AAn?$AAd?$AAa?$AAy?$AA?$AA@ 000000018006d5a0     libucrt:nlsdata.obj
 0002:0000c5b0       ??_C@_1O@MMNBFLIA@?$AAM?$AAo?$AAn?$AAd?$AAa?$AAy?$AA?$AA@ 000000018006d5b0     libucrt:nlsdata.obj
 0002:0000c5c0       ??_C@_1BA@ENFBFFEK@?$AAT?$AAu?$AAe?$AAs?$AAd?$AAa?$AAy?$AA?$AA@ 000000018006d5c0     libucrt:nlsdata.obj
 0002:0000c5d0       ??_C@_1BE@EBOGMDOH@?$AAW?$AAe?$AAd?$AAn?$AAe?$AAs?$AAd?$AAa?$AAy?$AA?$AA@ 000000018006d5d0     libucrt:nlsdata.obj
 0002:0000c5e8       ??_C@_1BC@HHMNLIHE@?$AAT?$AAh?$AAu?$AAr?$AAs?$AAd?$AAa?$AAy?$AA?$AA@ 000000018006d5e8     libucrt:nlsdata.obj
 0002:0000c600       ??_C@_1O@PDICJHAG@?$AAF?$AAr?$AAi?$AAd?$AAa?$AAy?$AA?$AA@ 000000018006d600     libucrt:nlsdata.obj
 0002:0000c610       ??_C@_1BC@ENMNNPAJ@?$AAS?$AAa?$AAt?$AAu?$AAr?$AAd?$AAa?$AAy?$AA?$AA@ 000000018006d610     libucrt:nlsdata.obj
 0002:0000c628       ??_C@_17DKNBKCHM@?$AAJ?$AAa?$AAn?$AA?$AA@ 000000018006d628     libucrt:nlsdata.obj
 0002:0000c630       ??_C@_17LMDJEKJN@?$AAF?$AAe?$AAb?$AA?$AA@ 000000018006d630     libucrt:nlsdata.obj
 0002:0000c638       ??_C@_17CKNLEDEC@?$AAM?$AAa?$AAr?$AA?$AA@ 000000018006d638     libucrt:nlsdata.obj
 0002:0000c640       ??_C@_17LFPOIHDD@?$AAA?$AAp?$AAr?$AA?$AA@ 000000018006d640     libucrt:nlsdata.obj
 0002:0000c648       ??_C@_17PNNKMEED@?$AAM?$AAa?$AAy?$AA?$AA@ 000000018006d648     libucrt:nlsdata.obj
 0002:0000c650       ??_C@_17KCJGOCPB@?$AAJ?$AAu?$AAn?$AA?$AA@ 000000018006d650     libucrt:nlsdata.obj
 0002:0000c658       ??_C@_17IJPCKHK@?$AAJ?$AAu?$AAl?$AA?$AA@ 000000018006d658     libucrt:nlsdata.obj
 0002:0000c660       ??_C@_17ICPELBCN@?$AAA?$AAu?$AAg?$AA?$AA@ 000000018006d660     libucrt:nlsdata.obj
 0002:0000c668       ??_C@_17HCHCOKMG@?$AAS?$AAe?$AAp?$AA?$AA@ 000000018006d668     libucrt:nlsdata.obj
 0002:0000c670       ??_C@_17FNLKOI@?$AAO?$AAc?$AAt?$AA?$AA@ 000000018006d670     libucrt:nlsdata.obj
 0002:0000c678       ??_C@_17BBDMLCIG@?$AAN?$AAo?$AAv?$AA?$AA@ 000000018006d678     libucrt:nlsdata.obj
 0002:0000c680       ??_C@_17EGKACKIF@?$AAD?$AAe?$AAc?$AA?$AA@ 000000018006d680     libucrt:nlsdata.obj
 0002:0000c688       ??_C@_1BA@EFMEIEBA@?$AAJ?$AAa?$AAn?$AAu?$AAa?$AAr?$AAy?$AA?$AA@ 000000018006d688     libucrt:nlsdata.obj
 0002:0000c698       ??_C@_1BC@JGDDFFAM@?$AAF?$AAe?$AAb?$AAr?$AAu?$AAa?$AAr?$AAy?$AA?$AA@ 000000018006d698     libucrt:nlsdata.obj
 0002:0000c6b0       ??_C@_1M@IKEENEDF@?$AAM?$AAa?$AAr?$AAc?$AAh?$AA?$AA@ 000000018006d6b0     libucrt:nlsdata.obj
 0002:0000c6c0       ??_C@_1M@GJNLMHFD@?$AAA?$AAp?$AAr?$AAi?$AAl?$AA?$AA@ 000000018006d6c0     libucrt:nlsdata.obj
 0002:0000c6d0       ??_C@_19EPFLPGAP@?$AAJ?$AAu?$AAn?$AAe?$AA?$AA@ 000000018006d6d0     libucrt:nlsdata.obj
 0002:0000c6e0       ??_C@_19BIFMLPCD@?$AAJ?$AAu?$AAl?$AAy?$AA?$AA@ 000000018006d6e0     libucrt:nlsdata.obj
 0002:0000c6f0       ??_C@_1O@PAHLKOAC@?$AAA?$AAu?$AAg?$AAu?$AAs?$AAt?$AA?$AA@ 000000018006d6f0     libucrt:nlsdata.obj
 0002:0000c700       ??_C@_1BE@DKAAMBJL@?$AAS?$AAe?$AAp?$AAt?$AAe?$AAm?$AAb?$AAe?$AAr?$AA?$AA@ 000000018006d700     libucrt:nlsdata.obj
 0002:0000c718       ??_C@_1BA@EPANDLNG@?$AAO?$AAc?$AAt?$AAo?$AAb?$AAe?$AAr?$AA?$AA@ 000000018006d718     libucrt:nlsdata.obj
 0002:0000c728       ??_C@_1BC@BGLIFPF@?$AAN?$AAo?$AAv?$AAe?$AAm?$AAb?$AAe?$AAr?$AA?$AA@ 000000018006d728     libucrt:nlsdata.obj
 0002:0000c740       ??_C@_1BC@FEMKIFH@?$AAD?$AAe?$AAc?$AAe?$AAm?$AAb?$AAe?$AAr?$AA?$AA@ 000000018006d740     libucrt:nlsdata.obj
 0002:0000c754       ??_C@_15ODEHAHHF@?$AAA?$AAM?$AA?$AA@ 000000018006d754     libucrt:nlsdata.obj
 0002:0000c75c       ??_C@_15CLMNNGEL@?$AAP?$AAM?$AA?$AA@ 000000018006d75c     libucrt:nlsdata.obj
 0002:0000c768       ??_C@_1BC@IEBCMHCM@?$AAM?$AAM?$AA?1?$AAd?$AAd?$AA?1?$AAy?$AAy?$AA?$AA@ 000000018006d768     libucrt:nlsdata.obj
 0002:0000c780       ??_C@_1CI@KNAKOEBC@?$AAd?$AAd?$AAd?$AAd?$AA?0?$AA?5?$AAM?$AAM?$AAM?$AAM?$AA?5?$AAd?$AAd?$AA?0?$AA?5?$AAy?$AAy?$AAy?$AAy?$AA?$AA@ 000000018006d780     libucrt:nlsdata.obj
 0002:0000c7a8       ??_C@_1BC@GDGBMEMK@?$AAH?$AAH?$AA?3?$AAm?$AAm?$AA?3?$AAs?$AAs?$AA?$AA@ 000000018006d7a8     libucrt:nlsdata.obj
 0002:0000c7bc       ??_C@_03OEIAHPBN@INF?$AA@  000000018006d7bc     libucrt:cvt.obj
 0002:0000c7c0       ??_C@_03OJHLLCGB@inf?$AA@  000000018006d7c0     libucrt:cvt.obj
 0002:0000c7c4       ??_C@_03LKNCIKJB@NAN?$AA@  000000018006d7c4     libucrt:cvt.obj
 0002:0000c7c8       ??_C@_03LHCJEHON@nan?$AA@  000000018006d7c8     libucrt:cvt.obj
 0002:0000c7d0       ??_C@_09OFJJIMPC@NAN?$CISNAN?$CJ?$AA@ 000000018006d7d0     libucrt:cvt.obj
 0002:0000c7e0       ??_C@_09IPFBKMDL@nan?$CIsnan?$CJ?$AA@ 000000018006d7e0     libucrt:cvt.obj
 0002:0000c7f0       ??_C@_08IKHNHAJ@NAN?$CIIND?$CJ?$AA@ 000000018006d7f0     libucrt:cvt.obj
 0002:0000c800       ??_C@_08OFCDMILK@nan?$CIind?$CJ?$AA@ 000000018006d800     libucrt:cvt.obj
 0002:0000c80c       ??_C@_05KLBDPFGC@e?$CL000?$AA@ 000000018006d80c     libucrt:cvt.obj
 0002:0000c9f0       ??_C@_03KHJOGHMM@exp?$AA@  000000018006d9f0     libucrt:fpexcept.obj
 0002:0000c9f4       ??_C@_03JGHBODFD@pow?$AA@  000000018006d9f4     libucrt:fpexcept.obj
 0002:0000c9f8       ??_C@_03MGHMBJCF@log?$AA@  000000018006d9f8     libucrt:fpexcept.obj
 0002:0000c9fc       ??_C@_05HGHHAHAP@log10?$AA@ 000000018006d9fc     libucrt:fpexcept.obj
 0002:0000ca04       ??_C@_04COOMCNPB@sinh?$AA@ 000000018006da04     libucrt:fpexcept.obj
 0002:0000ca0c       ??_C@_04HPJJNFIM@cosh?$AA@ 000000018006da0c     libucrt:fpexcept.obj
 0002:0000ca14       ??_C@_04FJHINJAO@tanh?$AA@ 000000018006da14     libucrt:fpexcept.obj
 0002:0000ca1c       ??_C@_04FIHNOPOL@asin?$AA@ 000000018006da1c     libucrt:fpexcept.obj
 0002:0000ca24       ??_C@_04PDIFKINK@acos?$AA@ 000000018006da24     libucrt:fpexcept.obj
 0002:0000ca2c       ??_C@_04MLLJIGOK@atan?$AA@ 000000018006da2c     libucrt:fpexcept.obj
 0002:0000ca34       ??_C@_05KNGEOGJB@atan2?$AA@ 000000018006da34     libucrt:fpexcept.obj
 0002:0000ca3c       ??_C@_03BLEJJJBH@sin?$AA@  000000018006da3c     libucrt:fpexcept.obj
 0002:0000ca40       ??_C@_03LALBNOCG@cos?$AA@  000000018006da40     libucrt:fpexcept.obj
 0002:0000ca44       ??_C@_03IIINPABG@tan?$AA@  000000018006da44     libucrt:fpexcept.obj
 0002:0000ca48       ??_C@_04GFPJNGEK@ceil?$AA@ 000000018006da48     libucrt:fpexcept.obj
 0002:0000ca50       ??_C@_05PBJFFIGL@floor?$AA@ 000000018006da50     libucrt:fpexcept.obj
 0002:0000ca58       ??_C@_04ODHECPBC@fabs?$AA@ 000000018006da58     libucrt:fpexcept.obj
 0002:0000ca60       ??_C@_04EHEDPDJG@modf?$AA@ 000000018006da60     libucrt:fpexcept.obj
 0002:0000ca68       ??_C@_05CEJMAHNP@ldexp?$AA@ 000000018006da68     libucrt:fpexcept.obj
 0002:0000ca70       ??_C@_05KBKMEMPO@_cabs?$AA@ 000000018006da70     libucrt:fpexcept.obj
 0002:0000ca78       ??_C@_06MEIMCGCF@_hypot?$AA@ 000000018006da78     libucrt:fpexcept.obj
 0002:0000ca80       ??_C@_04KEPJIHGP@fmod?$AA@ 000000018006da80     libucrt:fpexcept.obj
 0002:0000ca88       ??_C@_05GKKHEGJL@frexp?$AA@ 000000018006da88     libucrt:fpexcept.obj
 0002:0000ca90       ??_C@_03MJLDFKDL@_y0?$AA@  000000018006da90     libucrt:fpexcept.obj
 0002:0000ca94       ??_C@_03NAKIGLHK@_y1?$AA@  000000018006da94     libucrt:fpexcept.obj
 0002:0000ca98       ??_C@_03ONILCKOB@_yn?$AA@  000000018006da98     libucrt:fpexcept.obj
 0002:0000ca9c       ??_C@_05JGDBENOH@_logb?$AA@ 000000018006da9c     libucrt:fpexcept.obj
 0002:0000caa8       ??_C@_0L@KDOEJCKC@_nextafter?$AA@ 000000018006daa8     libucrt:fpexcept.obj
 0002:0000cab8       _d_inf                     000000018006dab8     libucrt:util.obj
 0002:0000cac0       _d_max                     000000018006dac0     libucrt:util.obj
 0002:0000cb70       ??_C@_1EG@CNNIPFIM@?$AAa?$AAp?$AAi?$AA?9?$AAm?$AAs?$AA?9?$AAw?$AAi?$AAn?$AA?9?$AAa?$AAp?$AAp?$AAm?$AAo?$AAd?$AAe?$AAl?$AA?9?$AAr?$AAu?$AAn?$AAt?$AAi?$AAm?$AAe?$AA?9?$AAl?$AA1?$AA?9?$AA1@ 000000018006db70     libucrt:winapi_thunks.obj
 0002:0000cbc0       ??_C@_1EA@JGEFHKEI@?$AAa?$AAp?$AAi?$AA?9?$AAm?$AAs?$AA?9?$AAw?$AAi?$AAn?$AA?9?$AAc?$AAo?$AAr?$AAe?$AA?9?$AAd?$AAa?$AAt?$AAe?$AAt?$AAi?$AAm?$AAe?$AA?9?$AAl?$AA1?$AA?9?$AA1?$AA?9?$AA1?$AA?$AA@ 000000018006dbc0     libucrt:winapi_thunks.obj
 0002:0000cc00       ??_C@_1DI@GCIAAENM@?$AAa?$AAp?$AAi?$AA?9?$AAm?$AAs?$AA?9?$AAw?$AAi?$AAn?$AA?9?$AAc?$AAo?$AAr?$AAe?$AA?9?$AAf?$AAi?$AAl?$AAe?$AA?9?$AAl?$AA2?$AA?9?$AA1?$AA?9?$AA1?$AA?$AA@ 000000018006dc00     libucrt:winapi_thunks.obj
 0002:0000cc40       ??_C@_1EI@MPIAOHOC@?$AAa?$AAp?$AAi?$AA?9?$AAm?$AAs?$AA?9?$AAw?$AAi?$AAn?$AA?9?$AAc?$AAo?$AAr?$AAe?$AA?9?$AAl?$AAo?$AAc?$AAa?$AAl?$AAi?$AAz?$AAa?$AAt?$AAi?$AAo?$AAn?$AA?9?$AAl?$AA1?$AA?9@ 000000018006dc40     libucrt:winapi_thunks.obj
 0002:0000cc90       ??_C@_1FK@FPHCKFIE@?$AAa?$AAp?$AAi?$AA?9?$AAm?$AAs?$AA?9?$AAw?$AAi?$AAn?$AA?9?$AAc?$AAo?$AAr?$AAe?$AA?9?$AAl?$AAo?$AAc?$AAa?$AAl?$AAi?$AAz?$AAa?$AAt?$AAi?$AAo?$AAn?$AA?9?$AAo?$AAb?$AAs@ 000000018006dc90     libucrt:winapi_thunks.obj
